
kernel/kernel:     file format elf32-i386


Disassembly of section .text:

00100000 <multiboot_header>:
multiboot_header():
  100000:	02 b0 ad 1b 01 00    	add    0x11bad(%eax),%dh
  100006:	01 00                	add    %eax,(%eax)
  100008:	fd                   	std    
  100009:	4f                   	dec    %edi
  10000a:	51                   	push   %ecx
  10000b:	e4 00                	in     $0x0,%al
  10000d:	00 10                	add    %dl,(%eax)
  10000f:	00 00                	add    %al,(%eax)
  100011:	00 10                	add    %dl,(%eax)
  100013:	00 a6 ba 10 00 64    	add    %ah,0x640010ba(%esi)
  100019:	2b 11                	sub    (%ecx),%edx
  10001b:	00 20                	add    %ah,(%eax)
  10001d:	00 10                	add    %dl,(%eax)
	...

00100020 <multiboot_entry>:
multiboot_entry():
/u/s/h/shirui/private/cs537/p3a/p3/xv6-sp20/kernel/multiboot.S:45
  100020:	0f 01 15 64 00 10 00 	lgdtl  0x100064
/u/s/h/shirui/private/cs537/p3a/p3/xv6-sp20/kernel/multiboot.S:46
  100027:	ea 2e 00 10 00 08 00 	ljmp   $0x8,$0x10002e

0010002e <mbstart32>:
mbstart32():
/u/s/h/shirui/private/cs537/p3a/p3/xv6-sp20/kernel/multiboot.S:50
  10002e:	66 b8 10 00          	mov    $0x10,%ax
/u/s/h/shirui/private/cs537/p3a/p3/xv6-sp20/kernel/multiboot.S:51
  100032:	8e d8                	mov    %eax,%ds
/u/s/h/shirui/private/cs537/p3a/p3/xv6-sp20/kernel/multiboot.S:52
  100034:	8e c0                	mov    %eax,%es
/u/s/h/shirui/private/cs537/p3a/p3/xv6-sp20/kernel/multiboot.S:53
  100036:	8e d0                	mov    %eax,%ss
/u/s/h/shirui/private/cs537/p3a/p3/xv6-sp20/kernel/multiboot.S:54
  100038:	66 b8 00 00          	mov    $0x0,%ax
/u/s/h/shirui/private/cs537/p3a/p3/xv6-sp20/kernel/multiboot.S:55
  10003c:	8e e0                	mov    %eax,%fs
/u/s/h/shirui/private/cs537/p3a/p3/xv6-sp20/kernel/multiboot.S:56
  10003e:	8e e8                	mov    %eax,%gs
/u/s/h/shirui/private/cs537/p3a/p3/xv6-sp20/kernel/multiboot.S:59
  100040:	bc 80 cb 10 00       	mov    $0x10cb80,%esp
/u/s/h/shirui/private/cs537/p3a/p3/xv6-sp20/kernel/multiboot.S:60
  100045:	e8 f3 30 00 00       	call   10313d <main>

0010004a <spin>:
spin():
/u/s/h/shirui/private/cs537/p3a/p3/xv6-sp20/kernel/multiboot.S:62
  10004a:	eb fe                	jmp    10004a <spin>

0010004c <gdt>:
	...
gdt():
/u/s/h/shirui/private/cs537/p3a/p3/xv6-sp20/kernel/multiboot.S:62
  100054:	ff                   	(bad)  
  100055:	ff 00                	incl   (%eax)
  100057:	00 00                	add    %al,(%eax)
  100059:	9a cf 00 ff ff 00 00 	lcall  $0x0,$0xffff00cf
  100060:	00                   	.byte 0x0
  100061:	92                   	xchg   %eax,%edx
  100062:	cf                   	iret   
	...

00100064 <gdtdesc>:
gdtdesc():
/u/s/h/shirui/private/cs537/p3a/p3/xv6-sp20/kernel/multiboot.S:62
  100064:	17                   	pop    %ss
  100065:	00 4c 00 10          	add    %cl,0x10(%eax,%eax,1)
	...

0010006a <binit>:
binit():
/u/s/h/shirui/private/cs537/p3a/p3/xv6-sp20/kernel/bio.c:41
  10006a:	55                   	push   %ebp
  10006b:	89 e5                	mov    %esp,%ebp
  10006d:	83 ec 18             	sub    $0x18,%esp
/u/s/h/shirui/private/cs537/p3a/p3/xv6-sp20/kernel/bio.c:44
  100070:	83 ec 08             	sub    $0x8,%esp
  100073:	68 18 7f 10 00       	push   $0x107f18
  100078:	68 80 cb 10 00       	push   $0x10cb80
  10007d:	e8 dc 47 00 00       	call   10485e <initlock>
  100082:	83 c4 10             	add    $0x10,%esp
/u/s/h/shirui/private/cs537/p3a/p3/xv6-sp20/kernel/bio.c:47
  100085:	c7 05 b0 e0 10 00 a4 	movl   $0x10e0a4,0x10e0b0
  10008c:	e0 10 00 
/u/s/h/shirui/private/cs537/p3a/p3/xv6-sp20/kernel/bio.c:48
  10008f:	c7 05 b4 e0 10 00 a4 	movl   $0x10e0a4,0x10e0b4
  100096:	e0 10 00 
/u/s/h/shirui/private/cs537/p3a/p3/xv6-sp20/kernel/bio.c:49
  100099:	c7 45 f4 b4 cb 10 00 	movl   $0x10cbb4,-0xc(%ebp)
  1000a0:	eb 3a                	jmp    1000dc <binit+0x72>
/u/s/h/shirui/private/cs537/p3a/p3/xv6-sp20/kernel/bio.c:50 (discriminator 3)
  1000a2:	8b 15 b4 e0 10 00    	mov    0x10e0b4,%edx
  1000a8:	8b 45 f4             	mov    -0xc(%ebp),%eax
  1000ab:	89 50 10             	mov    %edx,0x10(%eax)
/u/s/h/shirui/private/cs537/p3a/p3/xv6-sp20/kernel/bio.c:51 (discriminator 3)
  1000ae:	8b 45 f4             	mov    -0xc(%ebp),%eax
  1000b1:	c7 40 0c a4 e0 10 00 	movl   $0x10e0a4,0xc(%eax)
/u/s/h/shirui/private/cs537/p3a/p3/xv6-sp20/kernel/bio.c:52 (discriminator 3)
  1000b8:	8b 45 f4             	mov    -0xc(%ebp),%eax
  1000bb:	c7 40 04 ff ff ff ff 	movl   $0xffffffff,0x4(%eax)
/u/s/h/shirui/private/cs537/p3a/p3/xv6-sp20/kernel/bio.c:53 (discriminator 3)
  1000c2:	a1 b4 e0 10 00       	mov    0x10e0b4,%eax
  1000c7:	8b 55 f4             	mov    -0xc(%ebp),%edx
  1000ca:	89 50 0c             	mov    %edx,0xc(%eax)
/u/s/h/shirui/private/cs537/p3a/p3/xv6-sp20/kernel/bio.c:54 (discriminator 3)
  1000cd:	8b 45 f4             	mov    -0xc(%ebp),%eax
  1000d0:	a3 b4 e0 10 00       	mov    %eax,0x10e0b4
/u/s/h/shirui/private/cs537/p3a/p3/xv6-sp20/kernel/bio.c:49 (discriminator 3)
  1000d5:	81 45 f4 18 02 00 00 	addl   $0x218,-0xc(%ebp)
/u/s/h/shirui/private/cs537/p3a/p3/xv6-sp20/kernel/bio.c:49 (discriminator 1)
  1000dc:	b8 a4 e0 10 00       	mov    $0x10e0a4,%eax
  1000e1:	39 45 f4             	cmp    %eax,-0xc(%ebp)
  1000e4:	72 bc                	jb     1000a2 <binit+0x38>
/u/s/h/shirui/private/cs537/p3a/p3/xv6-sp20/kernel/bio.c:56
  1000e6:	90                   	nop
  1000e7:	c9                   	leave  
  1000e8:	c3                   	ret    

001000e9 <bget>:
bget():
/u/s/h/shirui/private/cs537/p3a/p3/xv6-sp20/kernel/bio.c:63
  1000e9:	55                   	push   %ebp
  1000ea:	89 e5                	mov    %esp,%ebp
  1000ec:	83 ec 18             	sub    $0x18,%esp
/u/s/h/shirui/private/cs537/p3a/p3/xv6-sp20/kernel/bio.c:66
  1000ef:	83 ec 0c             	sub    $0xc,%esp
  1000f2:	68 80 cb 10 00       	push   $0x10cb80
  1000f7:	e8 84 47 00 00       	call   104880 <acquire>
  1000fc:	83 c4 10             	add    $0x10,%esp
/u/s/h/shirui/private/cs537/p3a/p3/xv6-sp20/kernel/bio.c:70
  1000ff:	a1 b4 e0 10 00       	mov    0x10e0b4,%eax
  100104:	89 45 f4             	mov    %eax,-0xc(%ebp)
  100107:	eb 67                	jmp    100170 <bget+0x87>
/u/s/h/shirui/private/cs537/p3a/p3/xv6-sp20/kernel/bio.c:71
  100109:	8b 45 f4             	mov    -0xc(%ebp),%eax
  10010c:	8b 40 04             	mov    0x4(%eax),%eax
  10010f:	39 45 08             	cmp    %eax,0x8(%ebp)
  100112:	75 53                	jne    100167 <bget+0x7e>
/u/s/h/shirui/private/cs537/p3a/p3/xv6-sp20/kernel/bio.c:71 (discriminator 1)
  100114:	8b 45 f4             	mov    -0xc(%ebp),%eax
  100117:	8b 40 08             	mov    0x8(%eax),%eax
  10011a:	39 45 0c             	cmp    %eax,0xc(%ebp)
  10011d:	75 48                	jne    100167 <bget+0x7e>
/u/s/h/shirui/private/cs537/p3a/p3/xv6-sp20/kernel/bio.c:72
  10011f:	8b 45 f4             	mov    -0xc(%ebp),%eax
  100122:	8b 00                	mov    (%eax),%eax
  100124:	83 e0 01             	and    $0x1,%eax
  100127:	85 c0                	test   %eax,%eax
  100129:	75 27                	jne    100152 <bget+0x69>
/u/s/h/shirui/private/cs537/p3a/p3/xv6-sp20/kernel/bio.c:73
  10012b:	8b 45 f4             	mov    -0xc(%ebp),%eax
  10012e:	8b 00                	mov    (%eax),%eax
  100130:	83 c8 01             	or     $0x1,%eax
  100133:	89 c2                	mov    %eax,%edx
  100135:	8b 45 f4             	mov    -0xc(%ebp),%eax
  100138:	89 10                	mov    %edx,(%eax)
/u/s/h/shirui/private/cs537/p3a/p3/xv6-sp20/kernel/bio.c:74
  10013a:	83 ec 0c             	sub    $0xc,%esp
  10013d:	68 80 cb 10 00       	push   $0x10cb80
  100142:	e8 a0 47 00 00       	call   1048e7 <release>
  100147:	83 c4 10             	add    $0x10,%esp
/u/s/h/shirui/private/cs537/p3a/p3/xv6-sp20/kernel/bio.c:75
  10014a:	8b 45 f4             	mov    -0xc(%ebp),%eax
  10014d:	e9 8c 00 00 00       	jmp    1001de <bget+0xf5>
/u/s/h/shirui/private/cs537/p3a/p3/xv6-sp20/kernel/bio.c:77
  100152:	83 ec 08             	sub    $0x8,%esp
  100155:	68 80 cb 10 00       	push   $0x10cb80
  10015a:	ff 75 f4             	pushl  -0xc(%ebp)
  10015d:	e8 25 44 00 00       	call   104587 <sleep>
  100162:	83 c4 10             	add    $0x10,%esp
/u/s/h/shirui/private/cs537/p3a/p3/xv6-sp20/kernel/bio.c:78
  100165:	eb 98                	jmp    1000ff <bget+0x16>
/u/s/h/shirui/private/cs537/p3a/p3/xv6-sp20/kernel/bio.c:70 (discriminator 2)
  100167:	8b 45 f4             	mov    -0xc(%ebp),%eax
  10016a:	8b 40 10             	mov    0x10(%eax),%eax
  10016d:	89 45 f4             	mov    %eax,-0xc(%ebp)
/u/s/h/shirui/private/cs537/p3a/p3/xv6-sp20/kernel/bio.c:70 (discriminator 1)
  100170:	81 7d f4 a4 e0 10 00 	cmpl   $0x10e0a4,-0xc(%ebp)
  100177:	75 90                	jne    100109 <bget+0x20>
/u/s/h/shirui/private/cs537/p3a/p3/xv6-sp20/kernel/bio.c:83
  100179:	a1 b0 e0 10 00       	mov    0x10e0b0,%eax
  10017e:	89 45 f4             	mov    %eax,-0xc(%ebp)
  100181:	eb 45                	jmp    1001c8 <bget+0xdf>
/u/s/h/shirui/private/cs537/p3a/p3/xv6-sp20/kernel/bio.c:84
  100183:	8b 45 f4             	mov    -0xc(%ebp),%eax
  100186:	8b 00                	mov    (%eax),%eax
  100188:	83 e0 01             	and    $0x1,%eax
  10018b:	85 c0                	test   %eax,%eax
  10018d:	75 30                	jne    1001bf <bget+0xd6>
/u/s/h/shirui/private/cs537/p3a/p3/xv6-sp20/kernel/bio.c:85
  10018f:	8b 45 f4             	mov    -0xc(%ebp),%eax
  100192:	8b 55 08             	mov    0x8(%ebp),%edx
  100195:	89 50 04             	mov    %edx,0x4(%eax)
/u/s/h/shirui/private/cs537/p3a/p3/xv6-sp20/kernel/bio.c:86
  100198:	8b 45 f4             	mov    -0xc(%ebp),%eax
  10019b:	8b 55 0c             	mov    0xc(%ebp),%edx
  10019e:	89 50 08             	mov    %edx,0x8(%eax)
/u/s/h/shirui/private/cs537/p3a/p3/xv6-sp20/kernel/bio.c:87
  1001a1:	8b 45 f4             	mov    -0xc(%ebp),%eax
  1001a4:	c7 00 01 00 00 00    	movl   $0x1,(%eax)
/u/s/h/shirui/private/cs537/p3a/p3/xv6-sp20/kernel/bio.c:88
  1001aa:	83 ec 0c             	sub    $0xc,%esp
  1001ad:	68 80 cb 10 00       	push   $0x10cb80
  1001b2:	e8 30 47 00 00       	call   1048e7 <release>
  1001b7:	83 c4 10             	add    $0x10,%esp
/u/s/h/shirui/private/cs537/p3a/p3/xv6-sp20/kernel/bio.c:89
  1001ba:	8b 45 f4             	mov    -0xc(%ebp),%eax
  1001bd:	eb 1f                	jmp    1001de <bget+0xf5>
/u/s/h/shirui/private/cs537/p3a/p3/xv6-sp20/kernel/bio.c:83 (discriminator 2)
  1001bf:	8b 45 f4             	mov    -0xc(%ebp),%eax
  1001c2:	8b 40 0c             	mov    0xc(%eax),%eax
  1001c5:	89 45 f4             	mov    %eax,-0xc(%ebp)
/u/s/h/shirui/private/cs537/p3a/p3/xv6-sp20/kernel/bio.c:83 (discriminator 1)
  1001c8:	81 7d f4 a4 e0 10 00 	cmpl   $0x10e0a4,-0xc(%ebp)
  1001cf:	75 b2                	jne    100183 <bget+0x9a>
/u/s/h/shirui/private/cs537/p3a/p3/xv6-sp20/kernel/bio.c:92
  1001d1:	83 ec 0c             	sub    $0xc,%esp
  1001d4:	68 1f 7f 10 00       	push   $0x107f1f
  1001d9:	e8 9a 03 00 00       	call   100578 <panic>
/u/s/h/shirui/private/cs537/p3a/p3/xv6-sp20/kernel/bio.c:93
  1001de:	c9                   	leave  
  1001df:	c3                   	ret    

001001e0 <bread>:
bread():
/u/s/h/shirui/private/cs537/p3a/p3/xv6-sp20/kernel/bio.c:98
  1001e0:	55                   	push   %ebp
  1001e1:	89 e5                	mov    %esp,%ebp
  1001e3:	83 ec 18             	sub    $0x18,%esp
/u/s/h/shirui/private/cs537/p3a/p3/xv6-sp20/kernel/bio.c:101
  1001e6:	83 ec 08             	sub    $0x8,%esp
  1001e9:	ff 75 0c             	pushl  0xc(%ebp)
  1001ec:	ff 75 08             	pushl  0x8(%ebp)
  1001ef:	e8 f5 fe ff ff       	call   1000e9 <bget>
  1001f4:	83 c4 10             	add    $0x10,%esp
  1001f7:	89 45 f4             	mov    %eax,-0xc(%ebp)
/u/s/h/shirui/private/cs537/p3a/p3/xv6-sp20/kernel/bio.c:102
  1001fa:	8b 45 f4             	mov    -0xc(%ebp),%eax
  1001fd:	8b 00                	mov    (%eax),%eax
  1001ff:	83 e0 02             	and    $0x2,%eax
  100202:	85 c0                	test   %eax,%eax
  100204:	75 0e                	jne    100214 <bread+0x34>
/u/s/h/shirui/private/cs537/p3a/p3/xv6-sp20/kernel/bio.c:103
  100206:	83 ec 0c             	sub    $0xc,%esp
  100209:	ff 75 f4             	pushl  -0xc(%ebp)
  10020c:	e8 fd 25 00 00       	call   10280e <iderw>
  100211:	83 c4 10             	add    $0x10,%esp
/u/s/h/shirui/private/cs537/p3a/p3/xv6-sp20/kernel/bio.c:104
  100214:	8b 45 f4             	mov    -0xc(%ebp),%eax
/u/s/h/shirui/private/cs537/p3a/p3/xv6-sp20/kernel/bio.c:105
  100217:	c9                   	leave  
  100218:	c3                   	ret    

00100219 <bwrite>:
bwrite():
/u/s/h/shirui/private/cs537/p3a/p3/xv6-sp20/kernel/bio.c:110
  100219:	55                   	push   %ebp
  10021a:	89 e5                	mov    %esp,%ebp
  10021c:	83 ec 08             	sub    $0x8,%esp
/u/s/h/shirui/private/cs537/p3a/p3/xv6-sp20/kernel/bio.c:111
  10021f:	8b 45 08             	mov    0x8(%ebp),%eax
  100222:	8b 00                	mov    (%eax),%eax
  100224:	83 e0 01             	and    $0x1,%eax
  100227:	85 c0                	test   %eax,%eax
  100229:	75 0d                	jne    100238 <bwrite+0x1f>
/u/s/h/shirui/private/cs537/p3a/p3/xv6-sp20/kernel/bio.c:112
  10022b:	83 ec 0c             	sub    $0xc,%esp
  10022e:	68 30 7f 10 00       	push   $0x107f30
  100233:	e8 40 03 00 00       	call   100578 <panic>
/u/s/h/shirui/private/cs537/p3a/p3/xv6-sp20/kernel/bio.c:113
  100238:	8b 45 08             	mov    0x8(%ebp),%eax
  10023b:	8b 00                	mov    (%eax),%eax
  10023d:	83 c8 04             	or     $0x4,%eax
  100240:	89 c2                	mov    %eax,%edx
  100242:	8b 45 08             	mov    0x8(%ebp),%eax
  100245:	89 10                	mov    %edx,(%eax)
/u/s/h/shirui/private/cs537/p3a/p3/xv6-sp20/kernel/bio.c:114
  100247:	83 ec 0c             	sub    $0xc,%esp
  10024a:	ff 75 08             	pushl  0x8(%ebp)
  10024d:	e8 bc 25 00 00       	call   10280e <iderw>
  100252:	83 c4 10             	add    $0x10,%esp
/u/s/h/shirui/private/cs537/p3a/p3/xv6-sp20/kernel/bio.c:115
  100255:	90                   	nop
  100256:	c9                   	leave  
  100257:	c3                   	ret    

00100258 <brelse>:
brelse():
/u/s/h/shirui/private/cs537/p3a/p3/xv6-sp20/kernel/bio.c:120
  100258:	55                   	push   %ebp
  100259:	89 e5                	mov    %esp,%ebp
  10025b:	83 ec 08             	sub    $0x8,%esp
/u/s/h/shirui/private/cs537/p3a/p3/xv6-sp20/kernel/bio.c:121
  10025e:	8b 45 08             	mov    0x8(%ebp),%eax
  100261:	8b 00                	mov    (%eax),%eax
  100263:	83 e0 01             	and    $0x1,%eax
  100266:	85 c0                	test   %eax,%eax
  100268:	75 0d                	jne    100277 <brelse+0x1f>
/u/s/h/shirui/private/cs537/p3a/p3/xv6-sp20/kernel/bio.c:122
  10026a:	83 ec 0c             	sub    $0xc,%esp
  10026d:	68 37 7f 10 00       	push   $0x107f37
  100272:	e8 01 03 00 00       	call   100578 <panic>
/u/s/h/shirui/private/cs537/p3a/p3/xv6-sp20/kernel/bio.c:124
  100277:	83 ec 0c             	sub    $0xc,%esp
  10027a:	68 80 cb 10 00       	push   $0x10cb80
  10027f:	e8 fc 45 00 00       	call   104880 <acquire>
  100284:	83 c4 10             	add    $0x10,%esp
/u/s/h/shirui/private/cs537/p3a/p3/xv6-sp20/kernel/bio.c:126
  100287:	8b 45 08             	mov    0x8(%ebp),%eax
  10028a:	8b 40 10             	mov    0x10(%eax),%eax
  10028d:	8b 55 08             	mov    0x8(%ebp),%edx
  100290:	8b 52 0c             	mov    0xc(%edx),%edx
  100293:	89 50 0c             	mov    %edx,0xc(%eax)
/u/s/h/shirui/private/cs537/p3a/p3/xv6-sp20/kernel/bio.c:127
  100296:	8b 45 08             	mov    0x8(%ebp),%eax
  100299:	8b 40 0c             	mov    0xc(%eax),%eax
  10029c:	8b 55 08             	mov    0x8(%ebp),%edx
  10029f:	8b 52 10             	mov    0x10(%edx),%edx
  1002a2:	89 50 10             	mov    %edx,0x10(%eax)
/u/s/h/shirui/private/cs537/p3a/p3/xv6-sp20/kernel/bio.c:128
  1002a5:	8b 15 b4 e0 10 00    	mov    0x10e0b4,%edx
  1002ab:	8b 45 08             	mov    0x8(%ebp),%eax
  1002ae:	89 50 10             	mov    %edx,0x10(%eax)
/u/s/h/shirui/private/cs537/p3a/p3/xv6-sp20/kernel/bio.c:129
  1002b1:	8b 45 08             	mov    0x8(%ebp),%eax
  1002b4:	c7 40 0c a4 e0 10 00 	movl   $0x10e0a4,0xc(%eax)
/u/s/h/shirui/private/cs537/p3a/p3/xv6-sp20/kernel/bio.c:130
  1002bb:	a1 b4 e0 10 00       	mov    0x10e0b4,%eax
  1002c0:	8b 55 08             	mov    0x8(%ebp),%edx
  1002c3:	89 50 0c             	mov    %edx,0xc(%eax)
/u/s/h/shirui/private/cs537/p3a/p3/xv6-sp20/kernel/bio.c:131
  1002c6:	8b 45 08             	mov    0x8(%ebp),%eax
  1002c9:	a3 b4 e0 10 00       	mov    %eax,0x10e0b4
/u/s/h/shirui/private/cs537/p3a/p3/xv6-sp20/kernel/bio.c:133
  1002ce:	8b 45 08             	mov    0x8(%ebp),%eax
  1002d1:	8b 00                	mov    (%eax),%eax
  1002d3:	83 e0 fe             	and    $0xfffffffe,%eax
  1002d6:	89 c2                	mov    %eax,%edx
  1002d8:	8b 45 08             	mov    0x8(%ebp),%eax
  1002db:	89 10                	mov    %edx,(%eax)
/u/s/h/shirui/private/cs537/p3a/p3/xv6-sp20/kernel/bio.c:134
  1002dd:	83 ec 0c             	sub    $0xc,%esp
  1002e0:	ff 75 08             	pushl  0x8(%ebp)
  1002e3:	e8 8a 43 00 00       	call   104672 <wakeup>
  1002e8:	83 c4 10             	add    $0x10,%esp
/u/s/h/shirui/private/cs537/p3a/p3/xv6-sp20/kernel/bio.c:136
  1002eb:	83 ec 0c             	sub    $0xc,%esp
  1002ee:	68 80 cb 10 00       	push   $0x10cb80
  1002f3:	e8 ef 45 00 00       	call   1048e7 <release>
  1002f8:	83 c4 10             	add    $0x10,%esp
/u/s/h/shirui/private/cs537/p3a/p3/xv6-sp20/kernel/bio.c:137
  1002fb:	90                   	nop
  1002fc:	c9                   	leave  
  1002fd:	c3                   	ret    

001002fe <inb>:
inb():
/u/s/h/shirui/private/cs537/p3a/p3/xv6-sp20/include/x86.h:7
  1002fe:	55                   	push   %ebp
  1002ff:	89 e5                	mov    %esp,%ebp
  100301:	83 ec 14             	sub    $0x14,%esp
  100304:	8b 45 08             	mov    0x8(%ebp),%eax
  100307:	66 89 45 ec          	mov    %ax,-0x14(%ebp)
/u/s/h/shirui/private/cs537/p3a/p3/xv6-sp20/include/x86.h:10
  10030b:	0f b7 45 ec          	movzwl -0x14(%ebp),%eax
  10030f:	89 c2                	mov    %eax,%edx
  100311:	ec                   	in     (%dx),%al
  100312:	88 45 ff             	mov    %al,-0x1(%ebp)
/u/s/h/shirui/private/cs537/p3a/p3/xv6-sp20/include/x86.h:11
  100315:	0f b6 45 ff          	movzbl -0x1(%ebp),%eax
/u/s/h/shirui/private/cs537/p3a/p3/xv6-sp20/include/x86.h:12
  100319:	c9                   	leave  
  10031a:	c3                   	ret    

0010031b <outb>:
outb():
/u/s/h/shirui/private/cs537/p3a/p3/xv6-sp20/include/x86.h:25
  10031b:	55                   	push   %ebp
  10031c:	89 e5                	mov    %esp,%ebp
  10031e:	83 ec 08             	sub    $0x8,%esp
  100321:	8b 55 08             	mov    0x8(%ebp),%edx
  100324:	8b 45 0c             	mov    0xc(%ebp),%eax
  100327:	66 89 55 fc          	mov    %dx,-0x4(%ebp)
  10032b:	88 45 f8             	mov    %al,-0x8(%ebp)
/u/s/h/shirui/private/cs537/p3a/p3/xv6-sp20/include/x86.h:26
  10032e:	0f b6 45 f8          	movzbl -0x8(%ebp),%eax
  100332:	0f b7 55 fc          	movzwl -0x4(%ebp),%edx
  100336:	ee                   	out    %al,(%dx)
/u/s/h/shirui/private/cs537/p3a/p3/xv6-sp20/include/x86.h:27
  100337:	90                   	nop
  100338:	c9                   	leave  
  100339:	c3                   	ret    

0010033a <cli>:
cli():
/u/s/h/shirui/private/cs537/p3a/p3/xv6-sp20/include/x86.h:119
  10033a:	55                   	push   %ebp
  10033b:	89 e5                	mov    %esp,%ebp
/u/s/h/shirui/private/cs537/p3a/p3/xv6-sp20/include/x86.h:120
  10033d:	fa                   	cli    
/u/s/h/shirui/private/cs537/p3a/p3/xv6-sp20/include/x86.h:121
  10033e:	90                   	nop
  10033f:	5d                   	pop    %ebp
  100340:	c3                   	ret    

00100341 <printint>:
printint():
/u/s/h/shirui/private/cs537/p3a/p3/xv6-sp20/kernel/console.c:27
  100341:	55                   	push   %ebp
  100342:	89 e5                	mov    %esp,%ebp
  100344:	83 ec 28             	sub    $0x28,%esp
/u/s/h/shirui/private/cs537/p3a/p3/xv6-sp20/kernel/console.c:33
  100347:	83 7d 10 00          	cmpl   $0x0,0x10(%ebp)
  10034b:	74 1c                	je     100369 <printint+0x28>
/u/s/h/shirui/private/cs537/p3a/p3/xv6-sp20/kernel/console.c:33 (discriminator 1)
  10034d:	8b 45 08             	mov    0x8(%ebp),%eax
  100350:	c1 e8 1f             	shr    $0x1f,%eax
  100353:	0f b6 c0             	movzbl %al,%eax
  100356:	89 45 10             	mov    %eax,0x10(%ebp)
  100359:	83 7d 10 00          	cmpl   $0x0,0x10(%ebp)
  10035d:	74 0a                	je     100369 <printint+0x28>
/u/s/h/shirui/private/cs537/p3a/p3/xv6-sp20/kernel/console.c:34
  10035f:	8b 45 08             	mov    0x8(%ebp),%eax
  100362:	f7 d8                	neg    %eax
  100364:	89 45 f0             	mov    %eax,-0x10(%ebp)
  100367:	eb 06                	jmp    10036f <printint+0x2e>
/u/s/h/shirui/private/cs537/p3a/p3/xv6-sp20/kernel/console.c:36
  100369:	8b 45 08             	mov    0x8(%ebp),%eax
  10036c:	89 45 f0             	mov    %eax,-0x10(%ebp)
/u/s/h/shirui/private/cs537/p3a/p3/xv6-sp20/kernel/console.c:38
  10036f:	c7 45 f4 00 00 00 00 	movl   $0x0,-0xc(%ebp)
/u/s/h/shirui/private/cs537/p3a/p3/xv6-sp20/kernel/console.c:40 (discriminator 1)
  100376:	8b 4d 0c             	mov    0xc(%ebp),%ecx
  100379:	8b 45 f0             	mov    -0x10(%ebp),%eax
  10037c:	ba 00 00 00 00       	mov    $0x0,%edx
  100381:	f7 f1                	div    %ecx
  100383:	89 d1                	mov    %edx,%ecx
  100385:	8b 45 f4             	mov    -0xc(%ebp),%eax
  100388:	8d 50 01             	lea    0x1(%eax),%edx
  10038b:	89 55 f4             	mov    %edx,-0xc(%ebp)
  10038e:	0f b6 91 08 b0 10 00 	movzbl 0x10b008(%ecx),%edx
  100395:	88 54 05 e0          	mov    %dl,-0x20(%ebp,%eax,1)
/u/s/h/shirui/private/cs537/p3a/p3/xv6-sp20/kernel/console.c:41 (discriminator 1)
  100399:	8b 4d 0c             	mov    0xc(%ebp),%ecx
  10039c:	8b 45 f0             	mov    -0x10(%ebp),%eax
  10039f:	ba 00 00 00 00       	mov    $0x0,%edx
  1003a4:	f7 f1                	div    %ecx
  1003a6:	89 45 f0             	mov    %eax,-0x10(%ebp)
  1003a9:	83 7d f0 00          	cmpl   $0x0,-0x10(%ebp)
  1003ad:	75 c7                	jne    100376 <printint+0x35>
/u/s/h/shirui/private/cs537/p3a/p3/xv6-sp20/kernel/console.c:43
  1003af:	83 7d 10 00          	cmpl   $0x0,0x10(%ebp)
  1003b3:	74 2a                	je     1003df <printint+0x9e>
/u/s/h/shirui/private/cs537/p3a/p3/xv6-sp20/kernel/console.c:44
  1003b5:	8b 45 f4             	mov    -0xc(%ebp),%eax
  1003b8:	8d 50 01             	lea    0x1(%eax),%edx
  1003bb:	89 55 f4             	mov    %edx,-0xc(%ebp)
  1003be:	c6 44 05 e0 2d       	movb   $0x2d,-0x20(%ebp,%eax,1)
/u/s/h/shirui/private/cs537/p3a/p3/xv6-sp20/kernel/console.c:46
  1003c3:	eb 1a                	jmp    1003df <printint+0x9e>
/u/s/h/shirui/private/cs537/p3a/p3/xv6-sp20/kernel/console.c:47
  1003c5:	8d 55 e0             	lea    -0x20(%ebp),%edx
  1003c8:	8b 45 f4             	mov    -0xc(%ebp),%eax
  1003cb:	01 d0                	add    %edx,%eax
  1003cd:	0f b6 00             	movzbl (%eax),%eax
  1003d0:	0f be c0             	movsbl %al,%eax
  1003d3:	83 ec 0c             	sub    $0xc,%esp
  1003d6:	50                   	push   %eax
  1003d7:	e8 b4 03 00 00       	call   100790 <consputc>
  1003dc:	83 c4 10             	add    $0x10,%esp
/u/s/h/shirui/private/cs537/p3a/p3/xv6-sp20/kernel/console.c:46
  1003df:	83 6d f4 01          	subl   $0x1,-0xc(%ebp)
  1003e3:	83 7d f4 00          	cmpl   $0x0,-0xc(%ebp)
  1003e7:	79 dc                	jns    1003c5 <printint+0x84>
/u/s/h/shirui/private/cs537/p3a/p3/xv6-sp20/kernel/console.c:48
  1003e9:	90                   	nop
  1003ea:	c9                   	leave  
  1003eb:	c3                   	ret    

001003ec <cprintf>:
cprintf():
/u/s/h/shirui/private/cs537/p3a/p3/xv6-sp20/kernel/console.c:53
  1003ec:	55                   	push   %ebp
  1003ed:	89 e5                	mov    %esp,%ebp
  1003ef:	83 ec 28             	sub    $0x28,%esp
/u/s/h/shirui/private/cs537/p3a/p3/xv6-sp20/kernel/console.c:58
  1003f2:	a1 14 bb 10 00       	mov    0x10bb14,%eax
  1003f7:	89 45 e8             	mov    %eax,-0x18(%ebp)
/u/s/h/shirui/private/cs537/p3a/p3/xv6-sp20/kernel/console.c:59
  1003fa:	83 7d e8 00          	cmpl   $0x0,-0x18(%ebp)
  1003fe:	74 10                	je     100410 <cprintf+0x24>
/u/s/h/shirui/private/cs537/p3a/p3/xv6-sp20/kernel/console.c:60
  100400:	83 ec 0c             	sub    $0xc,%esp
  100403:	68 e0 ba 10 00       	push   $0x10bae0
  100408:	e8 73 44 00 00       	call   104880 <acquire>
  10040d:	83 c4 10             	add    $0x10,%esp
/u/s/h/shirui/private/cs537/p3a/p3/xv6-sp20/kernel/console.c:62
  100410:	8d 45 0c             	lea    0xc(%ebp),%eax
  100413:	89 45 f0             	mov    %eax,-0x10(%ebp)
/u/s/h/shirui/private/cs537/p3a/p3/xv6-sp20/kernel/console.c:63
  100416:	c7 45 f4 00 00 00 00 	movl   $0x0,-0xc(%ebp)
  10041d:	e9 1a 01 00 00       	jmp    10053c <cprintf+0x150>
/u/s/h/shirui/private/cs537/p3a/p3/xv6-sp20/kernel/console.c:64
  100422:	83 7d e4 25          	cmpl   $0x25,-0x1c(%ebp)
  100426:	74 13                	je     10043b <cprintf+0x4f>
/u/s/h/shirui/private/cs537/p3a/p3/xv6-sp20/kernel/console.c:65
  100428:	83 ec 0c             	sub    $0xc,%esp
  10042b:	ff 75 e4             	pushl  -0x1c(%ebp)
  10042e:	e8 5d 03 00 00       	call   100790 <consputc>
  100433:	83 c4 10             	add    $0x10,%esp
/u/s/h/shirui/private/cs537/p3a/p3/xv6-sp20/kernel/console.c:66
  100436:	e9 fd 00 00 00       	jmp    100538 <cprintf+0x14c>
/u/s/h/shirui/private/cs537/p3a/p3/xv6-sp20/kernel/console.c:68
  10043b:	8b 55 08             	mov    0x8(%ebp),%edx
  10043e:	83 45 f4 01          	addl   $0x1,-0xc(%ebp)
  100442:	8b 45 f4             	mov    -0xc(%ebp),%eax
  100445:	01 d0                	add    %edx,%eax
  100447:	0f b6 00             	movzbl (%eax),%eax
  10044a:	0f be c0             	movsbl %al,%eax
  10044d:	25 ff 00 00 00       	and    $0xff,%eax
  100452:	89 45 e4             	mov    %eax,-0x1c(%ebp)
/u/s/h/shirui/private/cs537/p3a/p3/xv6-sp20/kernel/console.c:69
  100455:	83 7d e4 00          	cmpl   $0x0,-0x1c(%ebp)
  100459:	0f 84 ff 00 00 00    	je     10055e <cprintf+0x172>
/u/s/h/shirui/private/cs537/p3a/p3/xv6-sp20/kernel/console.c:71
  10045f:	8b 45 e4             	mov    -0x1c(%ebp),%eax
  100462:	83 f8 70             	cmp    $0x70,%eax
  100465:	74 47                	je     1004ae <cprintf+0xc2>
  100467:	83 f8 70             	cmp    $0x70,%eax
  10046a:	7f 13                	jg     10047f <cprintf+0x93>
  10046c:	83 f8 25             	cmp    $0x25,%eax
  10046f:	0f 84 98 00 00 00    	je     10050d <cprintf+0x121>
  100475:	83 f8 64             	cmp    $0x64,%eax
  100478:	74 14                	je     10048e <cprintf+0xa2>
  10047a:	e9 9d 00 00 00       	jmp    10051c <cprintf+0x130>
  10047f:	83 f8 73             	cmp    $0x73,%eax
  100482:	74 47                	je     1004cb <cprintf+0xdf>
  100484:	83 f8 78             	cmp    $0x78,%eax
  100487:	74 25                	je     1004ae <cprintf+0xc2>
  100489:	e9 8e 00 00 00       	jmp    10051c <cprintf+0x130>
/u/s/h/shirui/private/cs537/p3a/p3/xv6-sp20/kernel/console.c:73
  10048e:	8b 45 f0             	mov    -0x10(%ebp),%eax
  100491:	8d 50 04             	lea    0x4(%eax),%edx
  100494:	89 55 f0             	mov    %edx,-0x10(%ebp)
  100497:	8b 00                	mov    (%eax),%eax
  100499:	83 ec 04             	sub    $0x4,%esp
  10049c:	6a 01                	push   $0x1
  10049e:	6a 0a                	push   $0xa
  1004a0:	50                   	push   %eax
  1004a1:	e8 9b fe ff ff       	call   100341 <printint>
  1004a6:	83 c4 10             	add    $0x10,%esp
/u/s/h/shirui/private/cs537/p3a/p3/xv6-sp20/kernel/console.c:74
  1004a9:	e9 8a 00 00 00       	jmp    100538 <cprintf+0x14c>
/u/s/h/shirui/private/cs537/p3a/p3/xv6-sp20/kernel/console.c:77
  1004ae:	8b 45 f0             	mov    -0x10(%ebp),%eax
  1004b1:	8d 50 04             	lea    0x4(%eax),%edx
  1004b4:	89 55 f0             	mov    %edx,-0x10(%ebp)
  1004b7:	8b 00                	mov    (%eax),%eax
  1004b9:	83 ec 04             	sub    $0x4,%esp
  1004bc:	6a 00                	push   $0x0
  1004be:	6a 10                	push   $0x10
  1004c0:	50                   	push   %eax
  1004c1:	e8 7b fe ff ff       	call   100341 <printint>
  1004c6:	83 c4 10             	add    $0x10,%esp
/u/s/h/shirui/private/cs537/p3a/p3/xv6-sp20/kernel/console.c:78
  1004c9:	eb 6d                	jmp    100538 <cprintf+0x14c>
/u/s/h/shirui/private/cs537/p3a/p3/xv6-sp20/kernel/console.c:80
  1004cb:	8b 45 f0             	mov    -0x10(%ebp),%eax
  1004ce:	8d 50 04             	lea    0x4(%eax),%edx
  1004d1:	89 55 f0             	mov    %edx,-0x10(%ebp)
  1004d4:	8b 00                	mov    (%eax),%eax
  1004d6:	89 45 ec             	mov    %eax,-0x14(%ebp)
  1004d9:	83 7d ec 00          	cmpl   $0x0,-0x14(%ebp)
  1004dd:	75 22                	jne    100501 <cprintf+0x115>
/u/s/h/shirui/private/cs537/p3a/p3/xv6-sp20/kernel/console.c:81
  1004df:	c7 45 ec 3e 7f 10 00 	movl   $0x107f3e,-0x14(%ebp)
/u/s/h/shirui/private/cs537/p3a/p3/xv6-sp20/kernel/console.c:82
  1004e6:	eb 19                	jmp    100501 <cprintf+0x115>
/u/s/h/shirui/private/cs537/p3a/p3/xv6-sp20/kernel/console.c:83 (discriminator 2)
  1004e8:	8b 45 ec             	mov    -0x14(%ebp),%eax
  1004eb:	0f b6 00             	movzbl (%eax),%eax
  1004ee:	0f be c0             	movsbl %al,%eax
  1004f1:	83 ec 0c             	sub    $0xc,%esp
  1004f4:	50                   	push   %eax
  1004f5:	e8 96 02 00 00       	call   100790 <consputc>
  1004fa:	83 c4 10             	add    $0x10,%esp
/u/s/h/shirui/private/cs537/p3a/p3/xv6-sp20/kernel/console.c:82 (discriminator 2)
  1004fd:	83 45 ec 01          	addl   $0x1,-0x14(%ebp)
/u/s/h/shirui/private/cs537/p3a/p3/xv6-sp20/kernel/console.c:82 (discriminator 1)
  100501:	8b 45 ec             	mov    -0x14(%ebp),%eax
  100504:	0f b6 00             	movzbl (%eax),%eax
  100507:	84 c0                	test   %al,%al
  100509:	75 dd                	jne    1004e8 <cprintf+0xfc>
/u/s/h/shirui/private/cs537/p3a/p3/xv6-sp20/kernel/console.c:84
  10050b:	eb 2b                	jmp    100538 <cprintf+0x14c>
/u/s/h/shirui/private/cs537/p3a/p3/xv6-sp20/kernel/console.c:86
  10050d:	83 ec 0c             	sub    $0xc,%esp
  100510:	6a 25                	push   $0x25
  100512:	e8 79 02 00 00       	call   100790 <consputc>
  100517:	83 c4 10             	add    $0x10,%esp
/u/s/h/shirui/private/cs537/p3a/p3/xv6-sp20/kernel/console.c:87
  10051a:	eb 1c                	jmp    100538 <cprintf+0x14c>
/u/s/h/shirui/private/cs537/p3a/p3/xv6-sp20/kernel/console.c:90
  10051c:	83 ec 0c             	sub    $0xc,%esp
  10051f:	6a 25                	push   $0x25
  100521:	e8 6a 02 00 00       	call   100790 <consputc>
  100526:	83 c4 10             	add    $0x10,%esp
/u/s/h/shirui/private/cs537/p3a/p3/xv6-sp20/kernel/console.c:91
  100529:	83 ec 0c             	sub    $0xc,%esp
  10052c:	ff 75 e4             	pushl  -0x1c(%ebp)
  10052f:	e8 5c 02 00 00       	call   100790 <consputc>
  100534:	83 c4 10             	add    $0x10,%esp
/u/s/h/shirui/private/cs537/p3a/p3/xv6-sp20/kernel/console.c:92
  100537:	90                   	nop
/u/s/h/shirui/private/cs537/p3a/p3/xv6-sp20/kernel/console.c:63 (discriminator 2)
  100538:	83 45 f4 01          	addl   $0x1,-0xc(%ebp)
/u/s/h/shirui/private/cs537/p3a/p3/xv6-sp20/kernel/console.c:63 (discriminator 1)
  10053c:	8b 55 08             	mov    0x8(%ebp),%edx
  10053f:	8b 45 f4             	mov    -0xc(%ebp),%eax
  100542:	01 d0                	add    %edx,%eax
  100544:	0f b6 00             	movzbl (%eax),%eax
  100547:	0f be c0             	movsbl %al,%eax
  10054a:	25 ff 00 00 00       	and    $0xff,%eax
  10054f:	89 45 e4             	mov    %eax,-0x1c(%ebp)
  100552:	83 7d e4 00          	cmpl   $0x0,-0x1c(%ebp)
  100556:	0f 85 c6 fe ff ff    	jne    100422 <cprintf+0x36>
  10055c:	eb 01                	jmp    10055f <cprintf+0x173>
/u/s/h/shirui/private/cs537/p3a/p3/xv6-sp20/kernel/console.c:70
  10055e:	90                   	nop
/u/s/h/shirui/private/cs537/p3a/p3/xv6-sp20/kernel/console.c:96
  10055f:	83 7d e8 00          	cmpl   $0x0,-0x18(%ebp)
  100563:	74 10                	je     100575 <cprintf+0x189>
/u/s/h/shirui/private/cs537/p3a/p3/xv6-sp20/kernel/console.c:97
  100565:	83 ec 0c             	sub    $0xc,%esp
  100568:	68 e0 ba 10 00       	push   $0x10bae0
  10056d:	e8 75 43 00 00       	call   1048e7 <release>
  100572:	83 c4 10             	add    $0x10,%esp
/u/s/h/shirui/private/cs537/p3a/p3/xv6-sp20/kernel/console.c:98
  100575:	90                   	nop
  100576:	c9                   	leave  
  100577:	c3                   	ret    

00100578 <panic>:
panic():
/u/s/h/shirui/private/cs537/p3a/p3/xv6-sp20/kernel/console.c:102
  100578:	55                   	push   %ebp
  100579:	89 e5                	mov    %esp,%ebp
  10057b:	83 ec 38             	sub    $0x38,%esp
/u/s/h/shirui/private/cs537/p3a/p3/xv6-sp20/kernel/console.c:106
  10057e:	e8 b7 fd ff ff       	call   10033a <cli>
/u/s/h/shirui/private/cs537/p3a/p3/xv6-sp20/kernel/console.c:107
  100583:	c7 05 14 bb 10 00 00 	movl   $0x0,0x10bb14
  10058a:	00 00 00 
/u/s/h/shirui/private/cs537/p3a/p3/xv6-sp20/kernel/console.c:108
  10058d:	65 a1 00 00 00 00    	mov    %gs:0x0,%eax
  100593:	0f b6 00             	movzbl (%eax),%eax
  100596:	0f b6 c0             	movzbl %al,%eax
  100599:	83 ec 08             	sub    $0x8,%esp
  10059c:	50                   	push   %eax
  10059d:	68 45 7f 10 00       	push   $0x107f45
  1005a2:	e8 45 fe ff ff       	call   1003ec <cprintf>
  1005a7:	83 c4 10             	add    $0x10,%esp
/u/s/h/shirui/private/cs537/p3a/p3/xv6-sp20/kernel/console.c:109
  1005aa:	8b 45 08             	mov    0x8(%ebp),%eax
  1005ad:	83 ec 0c             	sub    $0xc,%esp
  1005b0:	50                   	push   %eax
  1005b1:	e8 36 fe ff ff       	call   1003ec <cprintf>
  1005b6:	83 c4 10             	add    $0x10,%esp
/u/s/h/shirui/private/cs537/p3a/p3/xv6-sp20/kernel/console.c:110
  1005b9:	83 ec 0c             	sub    $0xc,%esp
  1005bc:	68 54 7f 10 00       	push   $0x107f54
  1005c1:	e8 26 fe ff ff       	call   1003ec <cprintf>
  1005c6:	83 c4 10             	add    $0x10,%esp
/u/s/h/shirui/private/cs537/p3a/p3/xv6-sp20/kernel/console.c:111
  1005c9:	83 ec 08             	sub    $0x8,%esp
  1005cc:	8d 45 cc             	lea    -0x34(%ebp),%eax
  1005cf:	50                   	push   %eax
  1005d0:	8d 45 08             	lea    0x8(%ebp),%eax
  1005d3:	50                   	push   %eax
  1005d4:	e8 60 43 00 00       	call   104939 <getcallerpcs>
  1005d9:	83 c4 10             	add    $0x10,%esp
/u/s/h/shirui/private/cs537/p3a/p3/xv6-sp20/kernel/console.c:112
  1005dc:	c7 45 f4 00 00 00 00 	movl   $0x0,-0xc(%ebp)
  1005e3:	eb 1c                	jmp    100601 <panic+0x89>
/u/s/h/shirui/private/cs537/p3a/p3/xv6-sp20/kernel/console.c:113 (discriminator 3)
  1005e5:	8b 45 f4             	mov    -0xc(%ebp),%eax
  1005e8:	8b 44 85 cc          	mov    -0x34(%ebp,%eax,4),%eax
  1005ec:	83 ec 08             	sub    $0x8,%esp
  1005ef:	50                   	push   %eax
  1005f0:	68 56 7f 10 00       	push   $0x107f56
  1005f5:	e8 f2 fd ff ff       	call   1003ec <cprintf>
  1005fa:	83 c4 10             	add    $0x10,%esp
/u/s/h/shirui/private/cs537/p3a/p3/xv6-sp20/kernel/console.c:112 (discriminator 3)
  1005fd:	83 45 f4 01          	addl   $0x1,-0xc(%ebp)
/u/s/h/shirui/private/cs537/p3a/p3/xv6-sp20/kernel/console.c:112 (discriminator 1)
  100601:	83 7d f4 09          	cmpl   $0x9,-0xc(%ebp)
  100605:	7e de                	jle    1005e5 <panic+0x6d>
/u/s/h/shirui/private/cs537/p3a/p3/xv6-sp20/kernel/console.c:114
  100607:	c7 05 c0 ba 10 00 01 	movl   $0x1,0x10bac0
  10060e:	00 00 00 
/u/s/h/shirui/private/cs537/p3a/p3/xv6-sp20/kernel/console.c:115 (discriminator 1)
  100611:	eb fe                	jmp    100611 <panic+0x99>

00100613 <cgaputc>:
cgaputc():
/u/s/h/shirui/private/cs537/p3a/p3/xv6-sp20/kernel/console.c:125
  100613:	55                   	push   %ebp
  100614:	89 e5                	mov    %esp,%ebp
  100616:	53                   	push   %ebx
  100617:	83 ec 14             	sub    $0x14,%esp
/u/s/h/shirui/private/cs537/p3a/p3/xv6-sp20/kernel/console.c:129
  10061a:	6a 0e                	push   $0xe
  10061c:	68 d4 03 00 00       	push   $0x3d4
  100621:	e8 f5 fc ff ff       	call   10031b <outb>
  100626:	83 c4 08             	add    $0x8,%esp
/u/s/h/shirui/private/cs537/p3a/p3/xv6-sp20/kernel/console.c:130
  100629:	68 d5 03 00 00       	push   $0x3d5
  10062e:	e8 cb fc ff ff       	call   1002fe <inb>
  100633:	83 c4 04             	add    $0x4,%esp
  100636:	0f b6 c0             	movzbl %al,%eax
  100639:	c1 e0 08             	shl    $0x8,%eax
  10063c:	89 45 f4             	mov    %eax,-0xc(%ebp)
/u/s/h/shirui/private/cs537/p3a/p3/xv6-sp20/kernel/console.c:131
  10063f:	6a 0f                	push   $0xf
  100641:	68 d4 03 00 00       	push   $0x3d4
  100646:	e8 d0 fc ff ff       	call   10031b <outb>
  10064b:	83 c4 08             	add    $0x8,%esp
/u/s/h/shirui/private/cs537/p3a/p3/xv6-sp20/kernel/console.c:132
  10064e:	68 d5 03 00 00       	push   $0x3d5
  100653:	e8 a6 fc ff ff       	call   1002fe <inb>
  100658:	83 c4 04             	add    $0x4,%esp
  10065b:	0f b6 c0             	movzbl %al,%eax
  10065e:	09 45 f4             	or     %eax,-0xc(%ebp)
/u/s/h/shirui/private/cs537/p3a/p3/xv6-sp20/kernel/console.c:134
  100661:	83 7d 08 0a          	cmpl   $0xa,0x8(%ebp)
  100665:	75 30                	jne    100697 <cgaputc+0x84>
/u/s/h/shirui/private/cs537/p3a/p3/xv6-sp20/kernel/console.c:135
  100667:	8b 4d f4             	mov    -0xc(%ebp),%ecx
  10066a:	ba 67 66 66 66       	mov    $0x66666667,%edx
  10066f:	89 c8                	mov    %ecx,%eax
  100671:	f7 ea                	imul   %edx
  100673:	c1 fa 05             	sar    $0x5,%edx
  100676:	89 c8                	mov    %ecx,%eax
  100678:	c1 f8 1f             	sar    $0x1f,%eax
  10067b:	29 c2                	sub    %eax,%edx
  10067d:	89 d0                	mov    %edx,%eax
  10067f:	c1 e0 02             	shl    $0x2,%eax
  100682:	01 d0                	add    %edx,%eax
  100684:	c1 e0 04             	shl    $0x4,%eax
  100687:	29 c1                	sub    %eax,%ecx
  100689:	89 ca                	mov    %ecx,%edx
  10068b:	b8 50 00 00 00       	mov    $0x50,%eax
  100690:	29 d0                	sub    %edx,%eax
  100692:	01 45 f4             	add    %eax,-0xc(%ebp)
  100695:	eb 38                	jmp    1006cf <cgaputc+0xbc>
/u/s/h/shirui/private/cs537/p3a/p3/xv6-sp20/kernel/console.c:136
  100697:	81 7d 08 00 01 00 00 	cmpl   $0x100,0x8(%ebp)
  10069e:	75 0c                	jne    1006ac <cgaputc+0x99>
/u/s/h/shirui/private/cs537/p3a/p3/xv6-sp20/kernel/console.c:137
  1006a0:	83 7d f4 00          	cmpl   $0x0,-0xc(%ebp)
  1006a4:	7e 29                	jle    1006cf <cgaputc+0xbc>
/u/s/h/shirui/private/cs537/p3a/p3/xv6-sp20/kernel/console.c:137 (discriminator 1)
  1006a6:	83 6d f4 01          	subl   $0x1,-0xc(%ebp)
  1006aa:	eb 23                	jmp    1006cf <cgaputc+0xbc>
/u/s/h/shirui/private/cs537/p3a/p3/xv6-sp20/kernel/console.c:139
  1006ac:	8b 45 08             	mov    0x8(%ebp),%eax
  1006af:	0f b6 c0             	movzbl %al,%eax
  1006b2:	80 cc 07             	or     $0x7,%ah
  1006b5:	89 c3                	mov    %eax,%ebx
  1006b7:	8b 0d 04 b0 10 00    	mov    0x10b004,%ecx
  1006bd:	8b 45 f4             	mov    -0xc(%ebp),%eax
  1006c0:	8d 50 01             	lea    0x1(%eax),%edx
  1006c3:	89 55 f4             	mov    %edx,-0xc(%ebp)
  1006c6:	01 c0                	add    %eax,%eax
  1006c8:	01 c8                	add    %ecx,%eax
  1006ca:	89 da                	mov    %ebx,%edx
  1006cc:	66 89 10             	mov    %dx,(%eax)
/u/s/h/shirui/private/cs537/p3a/p3/xv6-sp20/kernel/console.c:141
  1006cf:	81 7d f4 7f 07 00 00 	cmpl   $0x77f,-0xc(%ebp)
  1006d6:	7e 4c                	jle    100724 <cgaputc+0x111>
/u/s/h/shirui/private/cs537/p3a/p3/xv6-sp20/kernel/console.c:142
  1006d8:	a1 04 b0 10 00       	mov    0x10b004,%eax
  1006dd:	8d 90 a0 00 00 00    	lea    0xa0(%eax),%edx
  1006e3:	a1 04 b0 10 00       	mov    0x10b004,%eax
  1006e8:	83 ec 04             	sub    $0x4,%esp
  1006eb:	68 60 0e 00 00       	push   $0xe60
  1006f0:	52                   	push   %edx
  1006f1:	50                   	push   %eax
  1006f2:	e8 38 44 00 00       	call   104b2f <memmove>
  1006f7:	83 c4 10             	add    $0x10,%esp
/u/s/h/shirui/private/cs537/p3a/p3/xv6-sp20/kernel/console.c:143
  1006fa:	83 6d f4 50          	subl   $0x50,-0xc(%ebp)
/u/s/h/shirui/private/cs537/p3a/p3/xv6-sp20/kernel/console.c:144
  1006fe:	b8 80 07 00 00       	mov    $0x780,%eax
  100703:	2b 45 f4             	sub    -0xc(%ebp),%eax
  100706:	8d 14 00             	lea    (%eax,%eax,1),%edx
  100709:	a1 04 b0 10 00       	mov    0x10b004,%eax
  10070e:	8b 4d f4             	mov    -0xc(%ebp),%ecx
  100711:	01 c9                	add    %ecx,%ecx
  100713:	01 c8                	add    %ecx,%eax
  100715:	83 ec 04             	sub    $0x4,%esp
  100718:	52                   	push   %edx
  100719:	6a 00                	push   $0x0
  10071b:	50                   	push   %eax
  10071c:	e8 9c 43 00 00       	call   104abd <memset>
  100721:	83 c4 10             	add    $0x10,%esp
/u/s/h/shirui/private/cs537/p3a/p3/xv6-sp20/kernel/console.c:147
  100724:	83 ec 08             	sub    $0x8,%esp
  100727:	6a 0e                	push   $0xe
  100729:	68 d4 03 00 00       	push   $0x3d4
  10072e:	e8 e8 fb ff ff       	call   10031b <outb>
  100733:	83 c4 10             	add    $0x10,%esp
/u/s/h/shirui/private/cs537/p3a/p3/xv6-sp20/kernel/console.c:148
  100736:	8b 45 f4             	mov    -0xc(%ebp),%eax
  100739:	c1 f8 08             	sar    $0x8,%eax
  10073c:	0f b6 c0             	movzbl %al,%eax
  10073f:	83 ec 08             	sub    $0x8,%esp
  100742:	50                   	push   %eax
  100743:	68 d5 03 00 00       	push   $0x3d5
  100748:	e8 ce fb ff ff       	call   10031b <outb>
  10074d:	83 c4 10             	add    $0x10,%esp
/u/s/h/shirui/private/cs537/p3a/p3/xv6-sp20/kernel/console.c:149
  100750:	83 ec 08             	sub    $0x8,%esp
  100753:	6a 0f                	push   $0xf
  100755:	68 d4 03 00 00       	push   $0x3d4
  10075a:	e8 bc fb ff ff       	call   10031b <outb>
  10075f:	83 c4 10             	add    $0x10,%esp
/u/s/h/shirui/private/cs537/p3a/p3/xv6-sp20/kernel/console.c:150
  100762:	8b 45 f4             	mov    -0xc(%ebp),%eax
  100765:	0f b6 c0             	movzbl %al,%eax
  100768:	83 ec 08             	sub    $0x8,%esp
  10076b:	50                   	push   %eax
  10076c:	68 d5 03 00 00       	push   $0x3d5
  100771:	e8 a5 fb ff ff       	call   10031b <outb>
  100776:	83 c4 10             	add    $0x10,%esp
/u/s/h/shirui/private/cs537/p3a/p3/xv6-sp20/kernel/console.c:151
  100779:	a1 04 b0 10 00       	mov    0x10b004,%eax
  10077e:	8b 55 f4             	mov    -0xc(%ebp),%edx
  100781:	01 d2                	add    %edx,%edx
  100783:	01 d0                	add    %edx,%eax
  100785:	66 c7 00 20 07       	movw   $0x720,(%eax)
/u/s/h/shirui/private/cs537/p3a/p3/xv6-sp20/kernel/console.c:152
  10078a:	90                   	nop
  10078b:	8b 5d fc             	mov    -0x4(%ebp),%ebx
  10078e:	c9                   	leave  
  10078f:	c3                   	ret    

00100790 <consputc>:
consputc():
/u/s/h/shirui/private/cs537/p3a/p3/xv6-sp20/kernel/console.c:156
  100790:	55                   	push   %ebp
  100791:	89 e5                	mov    %esp,%ebp
  100793:	83 ec 08             	sub    $0x8,%esp
/u/s/h/shirui/private/cs537/p3a/p3/xv6-sp20/kernel/console.c:157
  100796:	a1 c0 ba 10 00       	mov    0x10bac0,%eax
  10079b:	85 c0                	test   %eax,%eax
  10079d:	74 07                	je     1007a6 <consputc+0x16>
/u/s/h/shirui/private/cs537/p3a/p3/xv6-sp20/kernel/console.c:158
  10079f:	e8 96 fb ff ff       	call   10033a <cli>
/u/s/h/shirui/private/cs537/p3a/p3/xv6-sp20/kernel/console.c:159 (discriminator 1)
  1007a4:	eb fe                	jmp    1007a4 <consputc+0x14>
/u/s/h/shirui/private/cs537/p3a/p3/xv6-sp20/kernel/console.c:163
  1007a6:	81 7d 08 00 01 00 00 	cmpl   $0x100,0x8(%ebp)
  1007ad:	75 29                	jne    1007d8 <consputc+0x48>
/u/s/h/shirui/private/cs537/p3a/p3/xv6-sp20/kernel/console.c:164
  1007af:	83 ec 0c             	sub    $0xc,%esp
  1007b2:	6a 08                	push   $0x8
  1007b4:	e8 a8 5c 00 00       	call   106461 <uartputc>
  1007b9:	83 c4 10             	add    $0x10,%esp
  1007bc:	83 ec 0c             	sub    $0xc,%esp
  1007bf:	6a 20                	push   $0x20
  1007c1:	e8 9b 5c 00 00       	call   106461 <uartputc>
  1007c6:	83 c4 10             	add    $0x10,%esp
  1007c9:	83 ec 0c             	sub    $0xc,%esp
  1007cc:	6a 08                	push   $0x8
  1007ce:	e8 8e 5c 00 00       	call   106461 <uartputc>
  1007d3:	83 c4 10             	add    $0x10,%esp
  1007d6:	eb 0e                	jmp    1007e6 <consputc+0x56>
/u/s/h/shirui/private/cs537/p3a/p3/xv6-sp20/kernel/console.c:166
  1007d8:	83 ec 0c             	sub    $0xc,%esp
  1007db:	ff 75 08             	pushl  0x8(%ebp)
  1007de:	e8 7e 5c 00 00       	call   106461 <uartputc>
  1007e3:	83 c4 10             	add    $0x10,%esp
/u/s/h/shirui/private/cs537/p3a/p3/xv6-sp20/kernel/console.c:167
  1007e6:	83 ec 0c             	sub    $0xc,%esp
  1007e9:	ff 75 08             	pushl  0x8(%ebp)
  1007ec:	e8 22 fe ff ff       	call   100613 <cgaputc>
  1007f1:	83 c4 10             	add    $0x10,%esp
/u/s/h/shirui/private/cs537/p3a/p3/xv6-sp20/kernel/console.c:168
  1007f4:	90                   	nop
  1007f5:	c9                   	leave  
  1007f6:	c3                   	ret    

001007f7 <consoleintr>:
consoleintr():
/u/s/h/shirui/private/cs537/p3a/p3/xv6-sp20/kernel/console.c:183
  1007f7:	55                   	push   %ebp
  1007f8:	89 e5                	mov    %esp,%ebp
  1007fa:	83 ec 18             	sub    $0x18,%esp
/u/s/h/shirui/private/cs537/p3a/p3/xv6-sp20/kernel/console.c:186
  1007fd:	83 ec 0c             	sub    $0xc,%esp
  100800:	68 c0 e2 10 00       	push   $0x10e2c0
  100805:	e8 76 40 00 00       	call   104880 <acquire>
  10080a:	83 c4 10             	add    $0x10,%esp
/u/s/h/shirui/private/cs537/p3a/p3/xv6-sp20/kernel/console.c:187
  10080d:	e9 42 01 00 00       	jmp    100954 <consoleintr+0x15d>
/u/s/h/shirui/private/cs537/p3a/p3/xv6-sp20/kernel/console.c:188
  100812:	8b 45 f4             	mov    -0xc(%ebp),%eax
  100815:	83 f8 10             	cmp    $0x10,%eax
  100818:	74 1e                	je     100838 <consoleintr+0x41>
  10081a:	83 f8 10             	cmp    $0x10,%eax
  10081d:	7f 0a                	jg     100829 <consoleintr+0x32>
  10081f:	83 f8 08             	cmp    $0x8,%eax
  100822:	74 69                	je     10088d <consoleintr+0x96>
  100824:	e9 99 00 00 00       	jmp    1008c2 <consoleintr+0xcb>
  100829:	83 f8 15             	cmp    $0x15,%eax
  10082c:	74 31                	je     10085f <consoleintr+0x68>
  10082e:	83 f8 7f             	cmp    $0x7f,%eax
  100831:	74 5a                	je     10088d <consoleintr+0x96>
  100833:	e9 8a 00 00 00       	jmp    1008c2 <consoleintr+0xcb>
/u/s/h/shirui/private/cs537/p3a/p3/xv6-sp20/kernel/console.c:190
  100838:	e8 f0 3e 00 00       	call   10472d <procdump>
/u/s/h/shirui/private/cs537/p3a/p3/xv6-sp20/kernel/console.c:191
  10083d:	e9 12 01 00 00       	jmp    100954 <consoleintr+0x15d>
/u/s/h/shirui/private/cs537/p3a/p3/xv6-sp20/kernel/console.c:195
  100842:	a1 7c e3 10 00       	mov    0x10e37c,%eax
  100847:	83 e8 01             	sub    $0x1,%eax
  10084a:	a3 7c e3 10 00       	mov    %eax,0x10e37c
/u/s/h/shirui/private/cs537/p3a/p3/xv6-sp20/kernel/console.c:196
  10084f:	83 ec 0c             	sub    $0xc,%esp
  100852:	68 00 01 00 00       	push   $0x100
  100857:	e8 34 ff ff ff       	call   100790 <consputc>
  10085c:	83 c4 10             	add    $0x10,%esp
/u/s/h/shirui/private/cs537/p3a/p3/xv6-sp20/kernel/console.c:193
  10085f:	8b 15 7c e3 10 00    	mov    0x10e37c,%edx
  100865:	a1 78 e3 10 00       	mov    0x10e378,%eax
  10086a:	39 c2                	cmp    %eax,%edx
  10086c:	0f 84 e2 00 00 00    	je     100954 <consoleintr+0x15d>
/u/s/h/shirui/private/cs537/p3a/p3/xv6-sp20/kernel/console.c:194 (discriminator 1)
  100872:	a1 7c e3 10 00       	mov    0x10e37c,%eax
  100877:	83 e8 01             	sub    $0x1,%eax
  10087a:	83 e0 7f             	and    $0x7f,%eax
  10087d:	0f b6 80 f4 e2 10 00 	movzbl 0x10e2f4(%eax),%eax
/u/s/h/shirui/private/cs537/p3a/p3/xv6-sp20/kernel/console.c:193 (discriminator 1)
  100884:	3c 0a                	cmp    $0xa,%al
  100886:	75 ba                	jne    100842 <consoleintr+0x4b>
/u/s/h/shirui/private/cs537/p3a/p3/xv6-sp20/kernel/console.c:198
  100888:	e9 c7 00 00 00       	jmp    100954 <consoleintr+0x15d>
/u/s/h/shirui/private/cs537/p3a/p3/xv6-sp20/kernel/console.c:200
  10088d:	8b 15 7c e3 10 00    	mov    0x10e37c,%edx
  100893:	a1 78 e3 10 00       	mov    0x10e378,%eax
  100898:	39 c2                	cmp    %eax,%edx
  10089a:	0f 84 b4 00 00 00    	je     100954 <consoleintr+0x15d>
/u/s/h/shirui/private/cs537/p3a/p3/xv6-sp20/kernel/console.c:201
  1008a0:	a1 7c e3 10 00       	mov    0x10e37c,%eax
  1008a5:	83 e8 01             	sub    $0x1,%eax
  1008a8:	a3 7c e3 10 00       	mov    %eax,0x10e37c
/u/s/h/shirui/private/cs537/p3a/p3/xv6-sp20/kernel/console.c:202
  1008ad:	83 ec 0c             	sub    $0xc,%esp
  1008b0:	68 00 01 00 00       	push   $0x100
  1008b5:	e8 d6 fe ff ff       	call   100790 <consputc>
  1008ba:	83 c4 10             	add    $0x10,%esp
/u/s/h/shirui/private/cs537/p3a/p3/xv6-sp20/kernel/console.c:204
  1008bd:	e9 92 00 00 00       	jmp    100954 <consoleintr+0x15d>
/u/s/h/shirui/private/cs537/p3a/p3/xv6-sp20/kernel/console.c:206
  1008c2:	83 7d f4 00          	cmpl   $0x0,-0xc(%ebp)
  1008c6:	0f 84 87 00 00 00    	je     100953 <consoleintr+0x15c>
/u/s/h/shirui/private/cs537/p3a/p3/xv6-sp20/kernel/console.c:206 (discriminator 1)
  1008cc:	8b 15 7c e3 10 00    	mov    0x10e37c,%edx
  1008d2:	a1 74 e3 10 00       	mov    0x10e374,%eax
  1008d7:	29 c2                	sub    %eax,%edx
  1008d9:	89 d0                	mov    %edx,%eax
  1008db:	83 f8 7f             	cmp    $0x7f,%eax
  1008de:	77 73                	ja     100953 <consoleintr+0x15c>
/u/s/h/shirui/private/cs537/p3a/p3/xv6-sp20/kernel/console.c:207
  1008e0:	83 7d f4 0d          	cmpl   $0xd,-0xc(%ebp)
  1008e4:	74 05                	je     1008eb <consoleintr+0xf4>
/u/s/h/shirui/private/cs537/p3a/p3/xv6-sp20/kernel/console.c:207 (discriminator 1)
  1008e6:	8b 45 f4             	mov    -0xc(%ebp),%eax
  1008e9:	eb 05                	jmp    1008f0 <consoleintr+0xf9>
/u/s/h/shirui/private/cs537/p3a/p3/xv6-sp20/kernel/console.c:207 (discriminator 2)
  1008eb:	b8 0a 00 00 00       	mov    $0xa,%eax
/u/s/h/shirui/private/cs537/p3a/p3/xv6-sp20/kernel/console.c:207 (discriminator 4)
  1008f0:	89 45 f4             	mov    %eax,-0xc(%ebp)
/u/s/h/shirui/private/cs537/p3a/p3/xv6-sp20/kernel/console.c:208 (discriminator 4)
  1008f3:	a1 7c e3 10 00       	mov    0x10e37c,%eax
  1008f8:	8d 50 01             	lea    0x1(%eax),%edx
  1008fb:	89 15 7c e3 10 00    	mov    %edx,0x10e37c
  100901:	83 e0 7f             	and    $0x7f,%eax
  100904:	8b 55 f4             	mov    -0xc(%ebp),%edx
  100907:	88 90 f4 e2 10 00    	mov    %dl,0x10e2f4(%eax)
/u/s/h/shirui/private/cs537/p3a/p3/xv6-sp20/kernel/console.c:209 (discriminator 4)
  10090d:	83 ec 0c             	sub    $0xc,%esp
  100910:	ff 75 f4             	pushl  -0xc(%ebp)
  100913:	e8 78 fe ff ff       	call   100790 <consputc>
  100918:	83 c4 10             	add    $0x10,%esp
/u/s/h/shirui/private/cs537/p3a/p3/xv6-sp20/kernel/console.c:210 (discriminator 4)
  10091b:	83 7d f4 0a          	cmpl   $0xa,-0xc(%ebp)
  10091f:	74 18                	je     100939 <consoleintr+0x142>
/u/s/h/shirui/private/cs537/p3a/p3/xv6-sp20/kernel/console.c:210 (discriminator 1)
  100921:	83 7d f4 04          	cmpl   $0x4,-0xc(%ebp)
  100925:	74 12                	je     100939 <consoleintr+0x142>
/u/s/h/shirui/private/cs537/p3a/p3/xv6-sp20/kernel/console.c:210 (discriminator 2)
  100927:	a1 7c e3 10 00       	mov    0x10e37c,%eax
  10092c:	8b 15 74 e3 10 00    	mov    0x10e374,%edx
  100932:	83 ea 80             	sub    $0xffffff80,%edx
  100935:	39 d0                	cmp    %edx,%eax
  100937:	75 1a                	jne    100953 <consoleintr+0x15c>
/u/s/h/shirui/private/cs537/p3a/p3/xv6-sp20/kernel/console.c:211
  100939:	a1 7c e3 10 00       	mov    0x10e37c,%eax
  10093e:	a3 78 e3 10 00       	mov    %eax,0x10e378
/u/s/h/shirui/private/cs537/p3a/p3/xv6-sp20/kernel/console.c:212
  100943:	83 ec 0c             	sub    $0xc,%esp
  100946:	68 74 e3 10 00       	push   $0x10e374
  10094b:	e8 22 3d 00 00       	call   104672 <wakeup>
  100950:	83 c4 10             	add    $0x10,%esp
/u/s/h/shirui/private/cs537/p3a/p3/xv6-sp20/kernel/console.c:215
  100953:	90                   	nop
/u/s/h/shirui/private/cs537/p3a/p3/xv6-sp20/kernel/console.c:187
  100954:	8b 45 08             	mov    0x8(%ebp),%eax
  100957:	ff d0                	call   *%eax
  100959:	89 45 f4             	mov    %eax,-0xc(%ebp)
  10095c:	83 7d f4 00          	cmpl   $0x0,-0xc(%ebp)
  100960:	0f 89 ac fe ff ff    	jns    100812 <consoleintr+0x1b>
/u/s/h/shirui/private/cs537/p3a/p3/xv6-sp20/kernel/console.c:218
  100966:	83 ec 0c             	sub    $0xc,%esp
  100969:	68 c0 e2 10 00       	push   $0x10e2c0
  10096e:	e8 74 3f 00 00       	call   1048e7 <release>
  100973:	83 c4 10             	add    $0x10,%esp
/u/s/h/shirui/private/cs537/p3a/p3/xv6-sp20/kernel/console.c:219
  100976:	90                   	nop
  100977:	c9                   	leave  
  100978:	c3                   	ret    

00100979 <consoleread>:
consoleread():
/u/s/h/shirui/private/cs537/p3a/p3/xv6-sp20/kernel/console.c:223
  100979:	55                   	push   %ebp
  10097a:	89 e5                	mov    %esp,%ebp
  10097c:	83 ec 18             	sub    $0x18,%esp
/u/s/h/shirui/private/cs537/p3a/p3/xv6-sp20/kernel/console.c:227
  10097f:	83 ec 0c             	sub    $0xc,%esp
  100982:	ff 75 08             	pushl  0x8(%ebp)
  100985:	e8 1d 10 00 00       	call   1019a7 <iunlock>
  10098a:	83 c4 10             	add    $0x10,%esp
/u/s/h/shirui/private/cs537/p3a/p3/xv6-sp20/kernel/console.c:228
  10098d:	8b 45 10             	mov    0x10(%ebp),%eax
  100990:	89 45 f4             	mov    %eax,-0xc(%ebp)
/u/s/h/shirui/private/cs537/p3a/p3/xv6-sp20/kernel/console.c:229
  100993:	83 ec 0c             	sub    $0xc,%esp
  100996:	68 c0 e2 10 00       	push   $0x10e2c0
  10099b:	e8 e0 3e 00 00       	call   104880 <acquire>
  1009a0:	83 c4 10             	add    $0x10,%esp
/u/s/h/shirui/private/cs537/p3a/p3/xv6-sp20/kernel/console.c:230
  1009a3:	e9 ac 00 00 00       	jmp    100a54 <consoleread+0xdb>
/u/s/h/shirui/private/cs537/p3a/p3/xv6-sp20/kernel/console.c:232
  1009a8:	65 a1 04 00 00 00    	mov    %gs:0x4,%eax
  1009ae:	8b 40 24             	mov    0x24(%eax),%eax
  1009b1:	85 c0                	test   %eax,%eax
  1009b3:	74 28                	je     1009dd <consoleread+0x64>
/u/s/h/shirui/private/cs537/p3a/p3/xv6-sp20/kernel/console.c:233
  1009b5:	83 ec 0c             	sub    $0xc,%esp
  1009b8:	68 c0 e2 10 00       	push   $0x10e2c0
  1009bd:	e8 25 3f 00 00       	call   1048e7 <release>
  1009c2:	83 c4 10             	add    $0x10,%esp
/u/s/h/shirui/private/cs537/p3a/p3/xv6-sp20/kernel/console.c:234
  1009c5:	83 ec 0c             	sub    $0xc,%esp
  1009c8:	ff 75 08             	pushl  0x8(%ebp)
  1009cb:	e8 7f 0e 00 00       	call   10184f <ilock>
  1009d0:	83 c4 10             	add    $0x10,%esp
/u/s/h/shirui/private/cs537/p3a/p3/xv6-sp20/kernel/console.c:235
  1009d3:	b8 ff ff ff ff       	mov    $0xffffffff,%eax
  1009d8:	e9 ab 00 00 00       	jmp    100a88 <consoleread+0x10f>
/u/s/h/shirui/private/cs537/p3a/p3/xv6-sp20/kernel/console.c:237
  1009dd:	83 ec 08             	sub    $0x8,%esp
  1009e0:	68 c0 e2 10 00       	push   $0x10e2c0
  1009e5:	68 74 e3 10 00       	push   $0x10e374
  1009ea:	e8 98 3b 00 00       	call   104587 <sleep>
  1009ef:	83 c4 10             	add    $0x10,%esp
/u/s/h/shirui/private/cs537/p3a/p3/xv6-sp20/kernel/console.c:231
  1009f2:	8b 15 74 e3 10 00    	mov    0x10e374,%edx
  1009f8:	a1 78 e3 10 00       	mov    0x10e378,%eax
  1009fd:	39 c2                	cmp    %eax,%edx
  1009ff:	74 a7                	je     1009a8 <consoleread+0x2f>
/u/s/h/shirui/private/cs537/p3a/p3/xv6-sp20/kernel/console.c:239
  100a01:	a1 74 e3 10 00       	mov    0x10e374,%eax
  100a06:	8d 50 01             	lea    0x1(%eax),%edx
  100a09:	89 15 74 e3 10 00    	mov    %edx,0x10e374
  100a0f:	83 e0 7f             	and    $0x7f,%eax
  100a12:	0f b6 80 f4 e2 10 00 	movzbl 0x10e2f4(%eax),%eax
  100a19:	0f be c0             	movsbl %al,%eax
  100a1c:	89 45 f0             	mov    %eax,-0x10(%ebp)
/u/s/h/shirui/private/cs537/p3a/p3/xv6-sp20/kernel/console.c:240
  100a1f:	83 7d f0 04          	cmpl   $0x4,-0x10(%ebp)
  100a23:	75 17                	jne    100a3c <consoleread+0xc3>
/u/s/h/shirui/private/cs537/p3a/p3/xv6-sp20/kernel/console.c:241
  100a25:	8b 45 10             	mov    0x10(%ebp),%eax
  100a28:	39 45 f4             	cmp    %eax,-0xc(%ebp)
  100a2b:	76 2f                	jbe    100a5c <consoleread+0xe3>
/u/s/h/shirui/private/cs537/p3a/p3/xv6-sp20/kernel/console.c:244
  100a2d:	a1 74 e3 10 00       	mov    0x10e374,%eax
  100a32:	83 e8 01             	sub    $0x1,%eax
  100a35:	a3 74 e3 10 00       	mov    %eax,0x10e374
/u/s/h/shirui/private/cs537/p3a/p3/xv6-sp20/kernel/console.c:246
  100a3a:	eb 20                	jmp    100a5c <consoleread+0xe3>
/u/s/h/shirui/private/cs537/p3a/p3/xv6-sp20/kernel/console.c:248
  100a3c:	8b 45 0c             	mov    0xc(%ebp),%eax
  100a3f:	8d 50 01             	lea    0x1(%eax),%edx
  100a42:	89 55 0c             	mov    %edx,0xc(%ebp)
  100a45:	8b 55 f0             	mov    -0x10(%ebp),%edx
  100a48:	88 10                	mov    %dl,(%eax)
/u/s/h/shirui/private/cs537/p3a/p3/xv6-sp20/kernel/console.c:249
  100a4a:	83 6d 10 01          	subl   $0x1,0x10(%ebp)
/u/s/h/shirui/private/cs537/p3a/p3/xv6-sp20/kernel/console.c:250
  100a4e:	83 7d f0 0a          	cmpl   $0xa,-0x10(%ebp)
  100a52:	74 0b                	je     100a5f <consoleread+0xe6>
/u/s/h/shirui/private/cs537/p3a/p3/xv6-sp20/kernel/console.c:230
  100a54:	83 7d 10 00          	cmpl   $0x0,0x10(%ebp)
  100a58:	7f 98                	jg     1009f2 <consoleread+0x79>
  100a5a:	eb 04                	jmp    100a60 <consoleread+0xe7>
/u/s/h/shirui/private/cs537/p3a/p3/xv6-sp20/kernel/console.c:246
  100a5c:	90                   	nop
  100a5d:	eb 01                	jmp    100a60 <consoleread+0xe7>
/u/s/h/shirui/private/cs537/p3a/p3/xv6-sp20/kernel/console.c:251
  100a5f:	90                   	nop
/u/s/h/shirui/private/cs537/p3a/p3/xv6-sp20/kernel/console.c:253
  100a60:	83 ec 0c             	sub    $0xc,%esp
  100a63:	68 c0 e2 10 00       	push   $0x10e2c0
  100a68:	e8 7a 3e 00 00       	call   1048e7 <release>
  100a6d:	83 c4 10             	add    $0x10,%esp
/u/s/h/shirui/private/cs537/p3a/p3/xv6-sp20/kernel/console.c:254
  100a70:	83 ec 0c             	sub    $0xc,%esp
  100a73:	ff 75 08             	pushl  0x8(%ebp)
  100a76:	e8 d4 0d 00 00       	call   10184f <ilock>
  100a7b:	83 c4 10             	add    $0x10,%esp
/u/s/h/shirui/private/cs537/p3a/p3/xv6-sp20/kernel/console.c:256
  100a7e:	8b 45 10             	mov    0x10(%ebp),%eax
  100a81:	8b 55 f4             	mov    -0xc(%ebp),%edx
  100a84:	29 c2                	sub    %eax,%edx
  100a86:	89 d0                	mov    %edx,%eax
/u/s/h/shirui/private/cs537/p3a/p3/xv6-sp20/kernel/console.c:257
  100a88:	c9                   	leave  
  100a89:	c3                   	ret    

00100a8a <consolewrite>:
consolewrite():
/u/s/h/shirui/private/cs537/p3a/p3/xv6-sp20/kernel/console.c:261
  100a8a:	55                   	push   %ebp
  100a8b:	89 e5                	mov    %esp,%ebp
  100a8d:	83 ec 18             	sub    $0x18,%esp
/u/s/h/shirui/private/cs537/p3a/p3/xv6-sp20/kernel/console.c:264
  100a90:	83 ec 0c             	sub    $0xc,%esp
  100a93:	ff 75 08             	pushl  0x8(%ebp)
  100a96:	e8 0c 0f 00 00       	call   1019a7 <iunlock>
  100a9b:	83 c4 10             	add    $0x10,%esp
/u/s/h/shirui/private/cs537/p3a/p3/xv6-sp20/kernel/console.c:265
  100a9e:	83 ec 0c             	sub    $0xc,%esp
  100aa1:	68 e0 ba 10 00       	push   $0x10bae0
  100aa6:	e8 d5 3d 00 00       	call   104880 <acquire>
  100aab:	83 c4 10             	add    $0x10,%esp
/u/s/h/shirui/private/cs537/p3a/p3/xv6-sp20/kernel/console.c:266
  100aae:	c7 45 f4 00 00 00 00 	movl   $0x0,-0xc(%ebp)
  100ab5:	eb 21                	jmp    100ad8 <consolewrite+0x4e>
/u/s/h/shirui/private/cs537/p3a/p3/xv6-sp20/kernel/console.c:267 (discriminator 3)
  100ab7:	8b 55 f4             	mov    -0xc(%ebp),%edx
  100aba:	8b 45 0c             	mov    0xc(%ebp),%eax
  100abd:	01 d0                	add    %edx,%eax
  100abf:	0f b6 00             	movzbl (%eax),%eax
  100ac2:	0f be c0             	movsbl %al,%eax
  100ac5:	0f b6 c0             	movzbl %al,%eax
  100ac8:	83 ec 0c             	sub    $0xc,%esp
  100acb:	50                   	push   %eax
  100acc:	e8 bf fc ff ff       	call   100790 <consputc>
  100ad1:	83 c4 10             	add    $0x10,%esp
/u/s/h/shirui/private/cs537/p3a/p3/xv6-sp20/kernel/console.c:266 (discriminator 3)
  100ad4:	83 45 f4 01          	addl   $0x1,-0xc(%ebp)
/u/s/h/shirui/private/cs537/p3a/p3/xv6-sp20/kernel/console.c:266 (discriminator 1)
  100ad8:	8b 45 f4             	mov    -0xc(%ebp),%eax
  100adb:	3b 45 10             	cmp    0x10(%ebp),%eax
  100ade:	7c d7                	jl     100ab7 <consolewrite+0x2d>
/u/s/h/shirui/private/cs537/p3a/p3/xv6-sp20/kernel/console.c:268
  100ae0:	83 ec 0c             	sub    $0xc,%esp
  100ae3:	68 e0 ba 10 00       	push   $0x10bae0
  100ae8:	e8 fa 3d 00 00       	call   1048e7 <release>
  100aed:	83 c4 10             	add    $0x10,%esp
/u/s/h/shirui/private/cs537/p3a/p3/xv6-sp20/kernel/console.c:269
  100af0:	83 ec 0c             	sub    $0xc,%esp
  100af3:	ff 75 08             	pushl  0x8(%ebp)
  100af6:	e8 54 0d 00 00       	call   10184f <ilock>
  100afb:	83 c4 10             	add    $0x10,%esp
/u/s/h/shirui/private/cs537/p3a/p3/xv6-sp20/kernel/console.c:271
  100afe:	8b 45 10             	mov    0x10(%ebp),%eax
/u/s/h/shirui/private/cs537/p3a/p3/xv6-sp20/kernel/console.c:272
  100b01:	c9                   	leave  
  100b02:	c3                   	ret    

00100b03 <consoleinit>:
consoleinit():
/u/s/h/shirui/private/cs537/p3a/p3/xv6-sp20/kernel/console.c:276
  100b03:	55                   	push   %ebp
  100b04:	89 e5                	mov    %esp,%ebp
  100b06:	83 ec 08             	sub    $0x8,%esp
/u/s/h/shirui/private/cs537/p3a/p3/xv6-sp20/kernel/console.c:277
  100b09:	83 ec 08             	sub    $0x8,%esp
  100b0c:	68 5a 7f 10 00       	push   $0x107f5a
  100b11:	68 e0 ba 10 00       	push   $0x10bae0
  100b16:	e8 43 3d 00 00       	call   10485e <initlock>
  100b1b:	83 c4 10             	add    $0x10,%esp
/u/s/h/shirui/private/cs537/p3a/p3/xv6-sp20/kernel/console.c:278
  100b1e:	83 ec 08             	sub    $0x8,%esp
  100b21:	68 62 7f 10 00       	push   $0x107f62
  100b26:	68 c0 e2 10 00       	push   $0x10e2c0
  100b2b:	e8 2e 3d 00 00       	call   10485e <initlock>
  100b30:	83 c4 10             	add    $0x10,%esp
/u/s/h/shirui/private/cs537/p3a/p3/xv6-sp20/kernel/console.c:280
  100b33:	c7 05 2c ed 10 00 8a 	movl   $0x100a8a,0x10ed2c
  100b3a:	0a 10 00 
/u/s/h/shirui/private/cs537/p3a/p3/xv6-sp20/kernel/console.c:281
  100b3d:	c7 05 28 ed 10 00 79 	movl   $0x100979,0x10ed28
  100b44:	09 10 00 
/u/s/h/shirui/private/cs537/p3a/p3/xv6-sp20/kernel/console.c:282
  100b47:	c7 05 14 bb 10 00 01 	movl   $0x1,0x10bb14
  100b4e:	00 00 00 
/u/s/h/shirui/private/cs537/p3a/p3/xv6-sp20/kernel/console.c:284
  100b51:	83 ec 0c             	sub    $0xc,%esp
  100b54:	6a 01                	push   $0x1
  100b56:	e8 83 2c 00 00       	call   1037de <picenable>
  100b5b:	83 c4 10             	add    $0x10,%esp
/u/s/h/shirui/private/cs537/p3a/p3/xv6-sp20/kernel/console.c:285
  100b5e:	83 ec 08             	sub    $0x8,%esp
  100b61:	6a 00                	push   $0x0
  100b63:	6a 01                	push   $0x1
  100b65:	e8 71 1e 00 00       	call   1029db <ioapicenable>
  100b6a:	83 c4 10             	add    $0x10,%esp
/u/s/h/shirui/private/cs537/p3a/p3/xv6-sp20/kernel/console.c:286
  100b6d:	90                   	nop
  100b6e:	c9                   	leave  
  100b6f:	c3                   	ret    

00100b70 <exec>:
exec():
/u/s/h/shirui/private/cs537/p3a/p3/xv6-sp20/kernel/exec.c:11
  100b70:	55                   	push   %ebp
  100b71:	89 e5                	mov    %esp,%ebp
  100b73:	81 ec 18 01 00 00    	sub    $0x118,%esp
/u/s/h/shirui/private/cs537/p3a/p3/xv6-sp20/kernel/exec.c:20
  100b79:	83 ec 0c             	sub    $0xc,%esp
  100b7c:	ff 75 08             	pushl  0x8(%ebp)
  100b7f:	e8 e1 18 00 00       	call   102465 <namei>
  100b84:	83 c4 10             	add    $0x10,%esp
  100b87:	89 45 d8             	mov    %eax,-0x28(%ebp)
  100b8a:	83 7d d8 00          	cmpl   $0x0,-0x28(%ebp)
  100b8e:	75 0a                	jne    100b9a <exec+0x2a>
/u/s/h/shirui/private/cs537/p3a/p3/xv6-sp20/kernel/exec.c:21
  100b90:	b8 ff ff ff ff       	mov    $0xffffffff,%eax
  100b95:	e9 a7 03 00 00       	jmp    100f41 <exec+0x3d1>
/u/s/h/shirui/private/cs537/p3a/p3/xv6-sp20/kernel/exec.c:22
  100b9a:	83 ec 0c             	sub    $0xc,%esp
  100b9d:	ff 75 d8             	pushl  -0x28(%ebp)
  100ba0:	e8 aa 0c 00 00       	call   10184f <ilock>
  100ba5:	83 c4 10             	add    $0x10,%esp
/u/s/h/shirui/private/cs537/p3a/p3/xv6-sp20/kernel/exec.c:23
  100ba8:	c7 45 d4 00 00 00 00 	movl   $0x0,-0x2c(%ebp)
/u/s/h/shirui/private/cs537/p3a/p3/xv6-sp20/kernel/exec.c:26
  100baf:	6a 34                	push   $0x34
  100bb1:	6a 00                	push   $0x0
  100bb3:	8d 85 0c ff ff ff    	lea    -0xf4(%ebp),%eax
  100bb9:	50                   	push   %eax
  100bba:	ff 75 d8             	pushl  -0x28(%ebp)
  100bbd:	e8 f0 11 00 00       	call   101db2 <readi>
  100bc2:	83 c4 10             	add    $0x10,%esp
  100bc5:	83 f8 33             	cmp    $0x33,%eax
  100bc8:	0f 86 27 03 00 00    	jbe    100ef5 <exec+0x385>
/u/s/h/shirui/private/cs537/p3a/p3/xv6-sp20/kernel/exec.c:28
  100bce:	8b 85 0c ff ff ff    	mov    -0xf4(%ebp),%eax
  100bd4:	3d 7f 45 4c 46       	cmp    $0x464c457f,%eax
  100bd9:	0f 85 19 03 00 00    	jne    100ef8 <exec+0x388>
/u/s/h/shirui/private/cs537/p3a/p3/xv6-sp20/kernel/exec.c:31
  100bdf:	e8 f4 6b 00 00       	call   1077d8 <setupkvm>
  100be4:	89 45 d4             	mov    %eax,-0x2c(%ebp)
  100be7:	83 7d d4 00          	cmpl   $0x0,-0x2c(%ebp)
  100beb:	0f 84 0a 03 00 00    	je     100efb <exec+0x38b>
/u/s/h/shirui/private/cs537/p3a/p3/xv6-sp20/kernel/exec.c:35
  100bf1:	c7 45 e0 00 00 00 00 	movl   $0x0,-0x20(%ebp)
/u/s/h/shirui/private/cs537/p3a/p3/xv6-sp20/kernel/exec.c:36
  100bf8:	c7 45 ec 00 00 00 00 	movl   $0x0,-0x14(%ebp)
  100bff:	8b 85 28 ff ff ff    	mov    -0xd8(%ebp),%eax
  100c05:	89 45 e8             	mov    %eax,-0x18(%ebp)
  100c08:	e9 ab 00 00 00       	jmp    100cb8 <exec+0x148>
/u/s/h/shirui/private/cs537/p3a/p3/xv6-sp20/kernel/exec.c:37
  100c0d:	8b 45 e8             	mov    -0x18(%ebp),%eax
  100c10:	6a 20                	push   $0x20
  100c12:	50                   	push   %eax
  100c13:	8d 85 ec fe ff ff    	lea    -0x114(%ebp),%eax
  100c19:	50                   	push   %eax
  100c1a:	ff 75 d8             	pushl  -0x28(%ebp)
  100c1d:	e8 90 11 00 00       	call   101db2 <readi>
  100c22:	83 c4 10             	add    $0x10,%esp
  100c25:	83 f8 20             	cmp    $0x20,%eax
  100c28:	0f 85 d0 02 00 00    	jne    100efe <exec+0x38e>
/u/s/h/shirui/private/cs537/p3a/p3/xv6-sp20/kernel/exec.c:39
  100c2e:	8b 85 ec fe ff ff    	mov    -0x114(%ebp),%eax
  100c34:	83 f8 01             	cmp    $0x1,%eax
  100c37:	75 71                	jne    100caa <exec+0x13a>
/u/s/h/shirui/private/cs537/p3a/p3/xv6-sp20/kernel/exec.c:41
  100c39:	8b 95 00 ff ff ff    	mov    -0x100(%ebp),%edx
  100c3f:	8b 85 fc fe ff ff    	mov    -0x104(%ebp),%eax
  100c45:	39 c2                	cmp    %eax,%edx
  100c47:	0f 82 b4 02 00 00    	jb     100f01 <exec+0x391>
/u/s/h/shirui/private/cs537/p3a/p3/xv6-sp20/kernel/exec.c:43
  100c4d:	8b 95 f4 fe ff ff    	mov    -0x10c(%ebp),%edx
  100c53:	8b 85 00 ff ff ff    	mov    -0x100(%ebp),%eax
  100c59:	01 d0                	add    %edx,%eax
  100c5b:	83 ec 04             	sub    $0x4,%esp
  100c5e:	50                   	push   %eax
  100c5f:	ff 75 e0             	pushl  -0x20(%ebp)
  100c62:	ff 75 d4             	pushl  -0x2c(%ebp)
  100c65:	e8 df 6e 00 00       	call   107b49 <allocuvm>
  100c6a:	83 c4 10             	add    $0x10,%esp
  100c6d:	89 45 e0             	mov    %eax,-0x20(%ebp)
  100c70:	83 7d e0 00          	cmpl   $0x0,-0x20(%ebp)
  100c74:	0f 84 8a 02 00 00    	je     100f04 <exec+0x394>
/u/s/h/shirui/private/cs537/p3a/p3/xv6-sp20/kernel/exec.c:45
  100c7a:	8b 95 fc fe ff ff    	mov    -0x104(%ebp),%edx
  100c80:	8b 85 f0 fe ff ff    	mov    -0x110(%ebp),%eax
  100c86:	8b 8d f4 fe ff ff    	mov    -0x10c(%ebp),%ecx
  100c8c:	83 ec 0c             	sub    $0xc,%esp
  100c8f:	52                   	push   %edx
  100c90:	50                   	push   %eax
  100c91:	ff 75 d8             	pushl  -0x28(%ebp)
  100c94:	51                   	push   %ecx
  100c95:	ff 75 d4             	pushl  -0x2c(%ebp)
  100c98:	e8 e5 6d 00 00       	call   107a82 <loaduvm>
  100c9d:	83 c4 20             	add    $0x20,%esp
  100ca0:	85 c0                	test   %eax,%eax
  100ca2:	0f 88 5f 02 00 00    	js     100f07 <exec+0x397>
  100ca8:	eb 01                	jmp    100cab <exec+0x13b>
/u/s/h/shirui/private/cs537/p3a/p3/xv6-sp20/kernel/exec.c:40
  100caa:	90                   	nop
/u/s/h/shirui/private/cs537/p3a/p3/xv6-sp20/kernel/exec.c:36 (discriminator 2)
  100cab:	83 45 ec 01          	addl   $0x1,-0x14(%ebp)
  100caf:	8b 45 e8             	mov    -0x18(%ebp),%eax
  100cb2:	83 c0 20             	add    $0x20,%eax
  100cb5:	89 45 e8             	mov    %eax,-0x18(%ebp)
/u/s/h/shirui/private/cs537/p3a/p3/xv6-sp20/kernel/exec.c:36 (discriminator 1)
  100cb8:	0f b7 85 38 ff ff ff 	movzwl -0xc8(%ebp),%eax
  100cbf:	0f b7 c0             	movzwl %ax,%eax
  100cc2:	39 45 ec             	cmp    %eax,-0x14(%ebp)
  100cc5:	0f 8c 42 ff ff ff    	jl     100c0d <exec+0x9d>
/u/s/h/shirui/private/cs537/p3a/p3/xv6-sp20/kernel/exec.c:48
  100ccb:	83 ec 0c             	sub    $0xc,%esp
  100cce:	ff 75 d8             	pushl  -0x28(%ebp)
  100cd1:	e8 33 0e 00 00       	call   101b09 <iunlockput>
  100cd6:	83 c4 10             	add    $0x10,%esp
/u/s/h/shirui/private/cs537/p3a/p3/xv6-sp20/kernel/exec.c:49
  100cd9:	c7 45 d8 00 00 00 00 	movl   $0x0,-0x28(%ebp)
/u/s/h/shirui/private/cs537/p3a/p3/xv6-sp20/kernel/exec.c:52
  100ce0:	8b 45 e0             	mov    -0x20(%ebp),%eax
  100ce3:	05 ff 0f 00 00       	add    $0xfff,%eax
  100ce8:	25 00 f0 ff ff       	and    $0xfffff000,%eax
  100ced:	89 45 e0             	mov    %eax,-0x20(%ebp)
/u/s/h/shirui/private/cs537/p3a/p3/xv6-sp20/kernel/exec.c:53
  100cf0:	8b 45 e0             	mov    -0x20(%ebp),%eax
  100cf3:	05 00 10 00 00       	add    $0x1000,%eax
  100cf8:	83 ec 04             	sub    $0x4,%esp
  100cfb:	50                   	push   %eax
  100cfc:	ff 75 e0             	pushl  -0x20(%ebp)
  100cff:	ff 75 d4             	pushl  -0x2c(%ebp)
  100d02:	e8 42 6e 00 00       	call   107b49 <allocuvm>
  100d07:	83 c4 10             	add    $0x10,%esp
  100d0a:	89 45 e0             	mov    %eax,-0x20(%ebp)
  100d0d:	83 7d e0 00          	cmpl   $0x0,-0x20(%ebp)
  100d11:	0f 84 f3 01 00 00    	je     100f0a <exec+0x39a>
/u/s/h/shirui/private/cs537/p3a/p3/xv6-sp20/kernel/exec.c:57
  100d17:	8b 45 e0             	mov    -0x20(%ebp),%eax
  100d1a:	89 45 dc             	mov    %eax,-0x24(%ebp)
/u/s/h/shirui/private/cs537/p3a/p3/xv6-sp20/kernel/exec.c:58
  100d1d:	c7 45 e4 00 00 00 00 	movl   $0x0,-0x1c(%ebp)
  100d24:	e9 90 00 00 00       	jmp    100db9 <exec+0x249>
/u/s/h/shirui/private/cs537/p3a/p3/xv6-sp20/kernel/exec.c:59
  100d29:	83 7d e4 1f          	cmpl   $0x1f,-0x1c(%ebp)
  100d2d:	0f 87 da 01 00 00    	ja     100f0d <exec+0x39d>
/u/s/h/shirui/private/cs537/p3a/p3/xv6-sp20/kernel/exec.c:61
  100d33:	8b 45 e4             	mov    -0x1c(%ebp),%eax
  100d36:	8d 14 85 00 00 00 00 	lea    0x0(,%eax,4),%edx
  100d3d:	8b 45 0c             	mov    0xc(%ebp),%eax
  100d40:	01 d0                	add    %edx,%eax
  100d42:	8b 00                	mov    (%eax),%eax
  100d44:	83 ec 0c             	sub    $0xc,%esp
  100d47:	50                   	push   %eax
  100d48:	e8 70 3f 00 00       	call   104cbd <strlen>
  100d4d:	83 c4 10             	add    $0x10,%esp
  100d50:	83 c0 01             	add    $0x1,%eax
  100d53:	29 45 dc             	sub    %eax,-0x24(%ebp)
/u/s/h/shirui/private/cs537/p3a/p3/xv6-sp20/kernel/exec.c:62
  100d56:	83 65 dc fc          	andl   $0xfffffffc,-0x24(%ebp)
/u/s/h/shirui/private/cs537/p3a/p3/xv6-sp20/kernel/exec.c:63
  100d5a:	8b 45 e4             	mov    -0x1c(%ebp),%eax
  100d5d:	8d 14 85 00 00 00 00 	lea    0x0(,%eax,4),%edx
  100d64:	8b 45 0c             	mov    0xc(%ebp),%eax
  100d67:	01 d0                	add    %edx,%eax
  100d69:	8b 00                	mov    (%eax),%eax
  100d6b:	83 ec 0c             	sub    $0xc,%esp
  100d6e:	50                   	push   %eax
  100d6f:	e8 49 3f 00 00       	call   104cbd <strlen>
  100d74:	83 c4 10             	add    $0x10,%esp
  100d77:	83 c0 01             	add    $0x1,%eax
  100d7a:	89 c1                	mov    %eax,%ecx
  100d7c:	8b 45 e4             	mov    -0x1c(%ebp),%eax
  100d7f:	8d 14 85 00 00 00 00 	lea    0x0(,%eax,4),%edx
  100d86:	8b 45 0c             	mov    0xc(%ebp),%eax
  100d89:	01 d0                	add    %edx,%eax
  100d8b:	8b 00                	mov    (%eax),%eax
  100d8d:	51                   	push   %ecx
  100d8e:	50                   	push   %eax
  100d8f:	ff 75 dc             	pushl  -0x24(%ebp)
  100d92:	ff 75 d4             	pushl  -0x2c(%ebp)
  100d95:	e8 e0 70 00 00       	call   107e7a <copyout>
  100d9a:	83 c4 10             	add    $0x10,%esp
  100d9d:	85 c0                	test   %eax,%eax
  100d9f:	0f 88 6b 01 00 00    	js     100f10 <exec+0x3a0>
/u/s/h/shirui/private/cs537/p3a/p3/xv6-sp20/kernel/exec.c:65 (discriminator 2)
  100da5:	8b 45 e4             	mov    -0x1c(%ebp),%eax
  100da8:	8d 50 03             	lea    0x3(%eax),%edx
  100dab:	8b 45 dc             	mov    -0x24(%ebp),%eax
  100dae:	89 84 95 40 ff ff ff 	mov    %eax,-0xc0(%ebp,%edx,4)
/u/s/h/shirui/private/cs537/p3a/p3/xv6-sp20/kernel/exec.c:58 (discriminator 2)
  100db5:	83 45 e4 01          	addl   $0x1,-0x1c(%ebp)
/u/s/h/shirui/private/cs537/p3a/p3/xv6-sp20/kernel/exec.c:58 (discriminator 1)
  100db9:	8b 45 e4             	mov    -0x1c(%ebp),%eax
  100dbc:	8d 14 85 00 00 00 00 	lea    0x0(,%eax,4),%edx
  100dc3:	8b 45 0c             	mov    0xc(%ebp),%eax
  100dc6:	01 d0                	add    %edx,%eax
  100dc8:	8b 00                	mov    (%eax),%eax
  100dca:	85 c0                	test   %eax,%eax
  100dcc:	0f 85 57 ff ff ff    	jne    100d29 <exec+0x1b9>
/u/s/h/shirui/private/cs537/p3a/p3/xv6-sp20/kernel/exec.c:67
  100dd2:	8b 45 e4             	mov    -0x1c(%ebp),%eax
  100dd5:	83 c0 03             	add    $0x3,%eax
  100dd8:	c7 84 85 40 ff ff ff 	movl   $0x0,-0xc0(%ebp,%eax,4)
  100ddf:	00 00 00 00 
/u/s/h/shirui/private/cs537/p3a/p3/xv6-sp20/kernel/exec.c:69
  100de3:	c7 85 40 ff ff ff ff 	movl   $0xffffffff,-0xc0(%ebp)
  100dea:	ff ff ff 
/u/s/h/shirui/private/cs537/p3a/p3/xv6-sp20/kernel/exec.c:70
  100ded:	8b 45 e4             	mov    -0x1c(%ebp),%eax
  100df0:	89 85 44 ff ff ff    	mov    %eax,-0xbc(%ebp)
/u/s/h/shirui/private/cs537/p3a/p3/xv6-sp20/kernel/exec.c:71
  100df6:	8b 45 e4             	mov    -0x1c(%ebp),%eax
  100df9:	83 c0 01             	add    $0x1,%eax
  100dfc:	8d 14 85 00 00 00 00 	lea    0x0(,%eax,4),%edx
  100e03:	8b 45 dc             	mov    -0x24(%ebp),%eax
  100e06:	29 d0                	sub    %edx,%eax
  100e08:	89 85 48 ff ff ff    	mov    %eax,-0xb8(%ebp)
/u/s/h/shirui/private/cs537/p3a/p3/xv6-sp20/kernel/exec.c:73
  100e0e:	8b 45 e4             	mov    -0x1c(%ebp),%eax
  100e11:	83 c0 04             	add    $0x4,%eax
  100e14:	c1 e0 02             	shl    $0x2,%eax
  100e17:	29 45 dc             	sub    %eax,-0x24(%ebp)
/u/s/h/shirui/private/cs537/p3a/p3/xv6-sp20/kernel/exec.c:74
  100e1a:	8b 45 e4             	mov    -0x1c(%ebp),%eax
  100e1d:	83 c0 04             	add    $0x4,%eax
  100e20:	c1 e0 02             	shl    $0x2,%eax
  100e23:	50                   	push   %eax
  100e24:	8d 85 40 ff ff ff    	lea    -0xc0(%ebp),%eax
  100e2a:	50                   	push   %eax
  100e2b:	ff 75 dc             	pushl  -0x24(%ebp)
  100e2e:	ff 75 d4             	pushl  -0x2c(%ebp)
  100e31:	e8 44 70 00 00       	call   107e7a <copyout>
  100e36:	83 c4 10             	add    $0x10,%esp
  100e39:	85 c0                	test   %eax,%eax
  100e3b:	0f 88 d2 00 00 00    	js     100f13 <exec+0x3a3>
/u/s/h/shirui/private/cs537/p3a/p3/xv6-sp20/kernel/exec.c:78
  100e41:	8b 45 08             	mov    0x8(%ebp),%eax
  100e44:	89 45 f4             	mov    %eax,-0xc(%ebp)
  100e47:	8b 45 f4             	mov    -0xc(%ebp),%eax
  100e4a:	89 45 f0             	mov    %eax,-0x10(%ebp)
  100e4d:	eb 17                	jmp    100e66 <exec+0x2f6>
/u/s/h/shirui/private/cs537/p3a/p3/xv6-sp20/kernel/exec.c:79
  100e4f:	8b 45 f4             	mov    -0xc(%ebp),%eax
  100e52:	0f b6 00             	movzbl (%eax),%eax
  100e55:	3c 2f                	cmp    $0x2f,%al
  100e57:	75 09                	jne    100e62 <exec+0x2f2>
/u/s/h/shirui/private/cs537/p3a/p3/xv6-sp20/kernel/exec.c:80
  100e59:	8b 45 f4             	mov    -0xc(%ebp),%eax
  100e5c:	83 c0 01             	add    $0x1,%eax
  100e5f:	89 45 f0             	mov    %eax,-0x10(%ebp)
/u/s/h/shirui/private/cs537/p3a/p3/xv6-sp20/kernel/exec.c:78 (discriminator 2)
  100e62:	83 45 f4 01          	addl   $0x1,-0xc(%ebp)
/u/s/h/shirui/private/cs537/p3a/p3/xv6-sp20/kernel/exec.c:78 (discriminator 1)
  100e66:	8b 45 f4             	mov    -0xc(%ebp),%eax
  100e69:	0f b6 00             	movzbl (%eax),%eax
  100e6c:	84 c0                	test   %al,%al
  100e6e:	75 df                	jne    100e4f <exec+0x2df>
/u/s/h/shirui/private/cs537/p3a/p3/xv6-sp20/kernel/exec.c:81
  100e70:	65 a1 04 00 00 00    	mov    %gs:0x4,%eax
  100e76:	83 c0 6c             	add    $0x6c,%eax
  100e79:	83 ec 04             	sub    $0x4,%esp
  100e7c:	6a 10                	push   $0x10
  100e7e:	ff 75 f0             	pushl  -0x10(%ebp)
  100e81:	50                   	push   %eax
  100e82:	e8 ec 3d 00 00       	call   104c73 <safestrcpy>
  100e87:	83 c4 10             	add    $0x10,%esp
/u/s/h/shirui/private/cs537/p3a/p3/xv6-sp20/kernel/exec.c:84
  100e8a:	65 a1 04 00 00 00    	mov    %gs:0x4,%eax
  100e90:	8b 40 04             	mov    0x4(%eax),%eax
  100e93:	89 45 d0             	mov    %eax,-0x30(%ebp)
/u/s/h/shirui/private/cs537/p3a/p3/xv6-sp20/kernel/exec.c:85
  100e96:	65 a1 04 00 00 00    	mov    %gs:0x4,%eax
  100e9c:	8b 55 d4             	mov    -0x2c(%ebp),%edx
  100e9f:	89 50 04             	mov    %edx,0x4(%eax)
/u/s/h/shirui/private/cs537/p3a/p3/xv6-sp20/kernel/exec.c:86
  100ea2:	65 a1 04 00 00 00    	mov    %gs:0x4,%eax
  100ea8:	8b 55 e0             	mov    -0x20(%ebp),%edx
  100eab:	89 10                	mov    %edx,(%eax)
/u/s/h/shirui/private/cs537/p3a/p3/xv6-sp20/kernel/exec.c:87
  100ead:	65 a1 04 00 00 00    	mov    %gs:0x4,%eax
  100eb3:	8b 40 18             	mov    0x18(%eax),%eax
  100eb6:	8b 95 24 ff ff ff    	mov    -0xdc(%ebp),%edx
  100ebc:	89 50 38             	mov    %edx,0x38(%eax)
/u/s/h/shirui/private/cs537/p3a/p3/xv6-sp20/kernel/exec.c:88
  100ebf:	65 a1 04 00 00 00    	mov    %gs:0x4,%eax
  100ec5:	8b 40 18             	mov    0x18(%eax),%eax
  100ec8:	8b 55 dc             	mov    -0x24(%ebp),%edx
  100ecb:	89 50 44             	mov    %edx,0x44(%eax)
/u/s/h/shirui/private/cs537/p3a/p3/xv6-sp20/kernel/exec.c:89
  100ece:	65 a1 04 00 00 00    	mov    %gs:0x4,%eax
  100ed4:	83 ec 0c             	sub    $0xc,%esp
  100ed7:	50                   	push   %eax
  100ed8:	e8 d2 69 00 00       	call   1078af <switchuvm>
  100edd:	83 c4 10             	add    $0x10,%esp
/u/s/h/shirui/private/cs537/p3a/p3/xv6-sp20/kernel/exec.c:90
  100ee0:	83 ec 0c             	sub    $0xc,%esp
  100ee3:	ff 75 d0             	pushl  -0x30(%ebp)
  100ee6:	e8 b5 6d 00 00       	call   107ca0 <freevm>
  100eeb:	83 c4 10             	add    $0x10,%esp
/u/s/h/shirui/private/cs537/p3a/p3/xv6-sp20/kernel/exec.c:92
  100eee:	b8 00 00 00 00       	mov    $0x0,%eax
  100ef3:	eb 4c                	jmp    100f41 <exec+0x3d1>
/u/s/h/shirui/private/cs537/p3a/p3/xv6-sp20/kernel/exec.c:27
  100ef5:	90                   	nop
  100ef6:	eb 1c                	jmp    100f14 <exec+0x3a4>
/u/s/h/shirui/private/cs537/p3a/p3/xv6-sp20/kernel/exec.c:29
  100ef8:	90                   	nop
  100ef9:	eb 19                	jmp    100f14 <exec+0x3a4>
/u/s/h/shirui/private/cs537/p3a/p3/xv6-sp20/kernel/exec.c:32
  100efb:	90                   	nop
  100efc:	eb 16                	jmp    100f14 <exec+0x3a4>
/u/s/h/shirui/private/cs537/p3a/p3/xv6-sp20/kernel/exec.c:38
  100efe:	90                   	nop
  100eff:	eb 13                	jmp    100f14 <exec+0x3a4>
/u/s/h/shirui/private/cs537/p3a/p3/xv6-sp20/kernel/exec.c:42
  100f01:	90                   	nop
  100f02:	eb 10                	jmp    100f14 <exec+0x3a4>
/u/s/h/shirui/private/cs537/p3a/p3/xv6-sp20/kernel/exec.c:44
  100f04:	90                   	nop
  100f05:	eb 0d                	jmp    100f14 <exec+0x3a4>
/u/s/h/shirui/private/cs537/p3a/p3/xv6-sp20/kernel/exec.c:46
  100f07:	90                   	nop
  100f08:	eb 0a                	jmp    100f14 <exec+0x3a4>
/u/s/h/shirui/private/cs537/p3a/p3/xv6-sp20/kernel/exec.c:54
  100f0a:	90                   	nop
  100f0b:	eb 07                	jmp    100f14 <exec+0x3a4>
/u/s/h/shirui/private/cs537/p3a/p3/xv6-sp20/kernel/exec.c:60
  100f0d:	90                   	nop
  100f0e:	eb 04                	jmp    100f14 <exec+0x3a4>
/u/s/h/shirui/private/cs537/p3a/p3/xv6-sp20/kernel/exec.c:64
  100f10:	90                   	nop
  100f11:	eb 01                	jmp    100f14 <exec+0x3a4>
/u/s/h/shirui/private/cs537/p3a/p3/xv6-sp20/kernel/exec.c:75
  100f13:	90                   	nop
/u/s/h/shirui/private/cs537/p3a/p3/xv6-sp20/kernel/exec.c:95
  100f14:	83 7d d4 00          	cmpl   $0x0,-0x2c(%ebp)
  100f18:	74 0e                	je     100f28 <exec+0x3b8>
/u/s/h/shirui/private/cs537/p3a/p3/xv6-sp20/kernel/exec.c:96
  100f1a:	83 ec 0c             	sub    $0xc,%esp
  100f1d:	ff 75 d4             	pushl  -0x2c(%ebp)
  100f20:	e8 7b 6d 00 00       	call   107ca0 <freevm>
  100f25:	83 c4 10             	add    $0x10,%esp
/u/s/h/shirui/private/cs537/p3a/p3/xv6-sp20/kernel/exec.c:97
  100f28:	83 7d d8 00          	cmpl   $0x0,-0x28(%ebp)
  100f2c:	74 0e                	je     100f3c <exec+0x3cc>
/u/s/h/shirui/private/cs537/p3a/p3/xv6-sp20/kernel/exec.c:98
  100f2e:	83 ec 0c             	sub    $0xc,%esp
  100f31:	ff 75 d8             	pushl  -0x28(%ebp)
  100f34:	e8 d0 0b 00 00       	call   101b09 <iunlockput>
  100f39:	83 c4 10             	add    $0x10,%esp
/u/s/h/shirui/private/cs537/p3a/p3/xv6-sp20/kernel/exec.c:99
  100f3c:	b8 ff ff ff ff       	mov    $0xffffffff,%eax
/u/s/h/shirui/private/cs537/p3a/p3/xv6-sp20/kernel/exec.c:100 (discriminator 1)
  100f41:	c9                   	leave  
  100f42:	c3                   	ret    

00100f43 <fileinit>:
fileinit():
/u/s/h/shirui/private/cs537/p3a/p3/xv6-sp20/kernel/file.c:16
  100f43:	55                   	push   %ebp
  100f44:	89 e5                	mov    %esp,%ebp
  100f46:	83 ec 08             	sub    $0x8,%esp
/u/s/h/shirui/private/cs537/p3a/p3/xv6-sp20/kernel/file.c:17
  100f49:	83 ec 08             	sub    $0x8,%esp
  100f4c:	68 68 7f 10 00       	push   $0x107f68
  100f51:	68 80 e3 10 00       	push   $0x10e380
  100f56:	e8 03 39 00 00       	call   10485e <initlock>
  100f5b:	83 c4 10             	add    $0x10,%esp
/u/s/h/shirui/private/cs537/p3a/p3/xv6-sp20/kernel/file.c:18
  100f5e:	90                   	nop
  100f5f:	c9                   	leave  
  100f60:	c3                   	ret    

00100f61 <filealloc>:
filealloc():
/u/s/h/shirui/private/cs537/p3a/p3/xv6-sp20/kernel/file.c:23
  100f61:	55                   	push   %ebp
  100f62:	89 e5                	mov    %esp,%ebp
  100f64:	83 ec 18             	sub    $0x18,%esp
/u/s/h/shirui/private/cs537/p3a/p3/xv6-sp20/kernel/file.c:26
  100f67:	83 ec 0c             	sub    $0xc,%esp
  100f6a:	68 80 e3 10 00       	push   $0x10e380
  100f6f:	e8 0c 39 00 00       	call   104880 <acquire>
  100f74:	83 c4 10             	add    $0x10,%esp
/u/s/h/shirui/private/cs537/p3a/p3/xv6-sp20/kernel/file.c:27
  100f77:	c7 45 f4 b4 e3 10 00 	movl   $0x10e3b4,-0xc(%ebp)
  100f7e:	eb 2d                	jmp    100fad <filealloc+0x4c>
/u/s/h/shirui/private/cs537/p3a/p3/xv6-sp20/kernel/file.c:28
  100f80:	8b 45 f4             	mov    -0xc(%ebp),%eax
  100f83:	8b 40 04             	mov    0x4(%eax),%eax
  100f86:	85 c0                	test   %eax,%eax
  100f88:	75 1f                	jne    100fa9 <filealloc+0x48>
/u/s/h/shirui/private/cs537/p3a/p3/xv6-sp20/kernel/file.c:29
  100f8a:	8b 45 f4             	mov    -0xc(%ebp),%eax
  100f8d:	c7 40 04 01 00 00 00 	movl   $0x1,0x4(%eax)
/u/s/h/shirui/private/cs537/p3a/p3/xv6-sp20/kernel/file.c:30
  100f94:	83 ec 0c             	sub    $0xc,%esp
  100f97:	68 80 e3 10 00       	push   $0x10e380
  100f9c:	e8 46 39 00 00       	call   1048e7 <release>
  100fa1:	83 c4 10             	add    $0x10,%esp
/u/s/h/shirui/private/cs537/p3a/p3/xv6-sp20/kernel/file.c:31
  100fa4:	8b 45 f4             	mov    -0xc(%ebp),%eax
  100fa7:	eb 23                	jmp    100fcc <filealloc+0x6b>
/u/s/h/shirui/private/cs537/p3a/p3/xv6-sp20/kernel/file.c:27 (discriminator 2)
  100fa9:	83 45 f4 18          	addl   $0x18,-0xc(%ebp)
/u/s/h/shirui/private/cs537/p3a/p3/xv6-sp20/kernel/file.c:27 (discriminator 1)
  100fad:	b8 14 ed 10 00       	mov    $0x10ed14,%eax
  100fb2:	39 45 f4             	cmp    %eax,-0xc(%ebp)
  100fb5:	72 c9                	jb     100f80 <filealloc+0x1f>
/u/s/h/shirui/private/cs537/p3a/p3/xv6-sp20/kernel/file.c:34
  100fb7:	83 ec 0c             	sub    $0xc,%esp
  100fba:	68 80 e3 10 00       	push   $0x10e380
  100fbf:	e8 23 39 00 00       	call   1048e7 <release>
  100fc4:	83 c4 10             	add    $0x10,%esp
/u/s/h/shirui/private/cs537/p3a/p3/xv6-sp20/kernel/file.c:35
  100fc7:	b8 00 00 00 00       	mov    $0x0,%eax
/u/s/h/shirui/private/cs537/p3a/p3/xv6-sp20/kernel/file.c:36
  100fcc:	c9                   	leave  
  100fcd:	c3                   	ret    

00100fce <filedup>:
filedup():
/u/s/h/shirui/private/cs537/p3a/p3/xv6-sp20/kernel/file.c:41
  100fce:	55                   	push   %ebp
  100fcf:	89 e5                	mov    %esp,%ebp
  100fd1:	83 ec 08             	sub    $0x8,%esp
/u/s/h/shirui/private/cs537/p3a/p3/xv6-sp20/kernel/file.c:42
  100fd4:	83 ec 0c             	sub    $0xc,%esp
  100fd7:	68 80 e3 10 00       	push   $0x10e380
  100fdc:	e8 9f 38 00 00       	call   104880 <acquire>
  100fe1:	83 c4 10             	add    $0x10,%esp
/u/s/h/shirui/private/cs537/p3a/p3/xv6-sp20/kernel/file.c:43
  100fe4:	8b 45 08             	mov    0x8(%ebp),%eax
  100fe7:	8b 40 04             	mov    0x4(%eax),%eax
  100fea:	85 c0                	test   %eax,%eax
  100fec:	7f 0d                	jg     100ffb <filedup+0x2d>
/u/s/h/shirui/private/cs537/p3a/p3/xv6-sp20/kernel/file.c:44
  100fee:	83 ec 0c             	sub    $0xc,%esp
  100ff1:	68 6f 7f 10 00       	push   $0x107f6f
  100ff6:	e8 7d f5 ff ff       	call   100578 <panic>
/u/s/h/shirui/private/cs537/p3a/p3/xv6-sp20/kernel/file.c:45
  100ffb:	8b 45 08             	mov    0x8(%ebp),%eax
  100ffe:	8b 40 04             	mov    0x4(%eax),%eax
  101001:	8d 50 01             	lea    0x1(%eax),%edx
  101004:	8b 45 08             	mov    0x8(%ebp),%eax
  101007:	89 50 04             	mov    %edx,0x4(%eax)
/u/s/h/shirui/private/cs537/p3a/p3/xv6-sp20/kernel/file.c:46
  10100a:	83 ec 0c             	sub    $0xc,%esp
  10100d:	68 80 e3 10 00       	push   $0x10e380
  101012:	e8 d0 38 00 00       	call   1048e7 <release>
  101017:	83 c4 10             	add    $0x10,%esp
/u/s/h/shirui/private/cs537/p3a/p3/xv6-sp20/kernel/file.c:47
  10101a:	8b 45 08             	mov    0x8(%ebp),%eax
/u/s/h/shirui/private/cs537/p3a/p3/xv6-sp20/kernel/file.c:48
  10101d:	c9                   	leave  
  10101e:	c3                   	ret    

0010101f <fileclose>:
fileclose():
/u/s/h/shirui/private/cs537/p3a/p3/xv6-sp20/kernel/file.c:53
  10101f:	55                   	push   %ebp
  101020:	89 e5                	mov    %esp,%ebp
  101022:	83 ec 28             	sub    $0x28,%esp
/u/s/h/shirui/private/cs537/p3a/p3/xv6-sp20/kernel/file.c:56
  101025:	83 ec 0c             	sub    $0xc,%esp
  101028:	68 80 e3 10 00       	push   $0x10e380
  10102d:	e8 4e 38 00 00       	call   104880 <acquire>
  101032:	83 c4 10             	add    $0x10,%esp
/u/s/h/shirui/private/cs537/p3a/p3/xv6-sp20/kernel/file.c:57
  101035:	8b 45 08             	mov    0x8(%ebp),%eax
  101038:	8b 40 04             	mov    0x4(%eax),%eax
  10103b:	85 c0                	test   %eax,%eax
  10103d:	7f 0d                	jg     10104c <fileclose+0x2d>
/u/s/h/shirui/private/cs537/p3a/p3/xv6-sp20/kernel/file.c:58
  10103f:	83 ec 0c             	sub    $0xc,%esp
  101042:	68 77 7f 10 00       	push   $0x107f77
  101047:	e8 2c f5 ff ff       	call   100578 <panic>
/u/s/h/shirui/private/cs537/p3a/p3/xv6-sp20/kernel/file.c:59
  10104c:	8b 45 08             	mov    0x8(%ebp),%eax
  10104f:	8b 40 04             	mov    0x4(%eax),%eax
  101052:	8d 50 ff             	lea    -0x1(%eax),%edx
  101055:	8b 45 08             	mov    0x8(%ebp),%eax
  101058:	89 50 04             	mov    %edx,0x4(%eax)
  10105b:	8b 45 08             	mov    0x8(%ebp),%eax
  10105e:	8b 40 04             	mov    0x4(%eax),%eax
  101061:	85 c0                	test   %eax,%eax
  101063:	7e 15                	jle    10107a <fileclose+0x5b>
/u/s/h/shirui/private/cs537/p3a/p3/xv6-sp20/kernel/file.c:60
  101065:	83 ec 0c             	sub    $0xc,%esp
  101068:	68 80 e3 10 00       	push   $0x10e380
  10106d:	e8 75 38 00 00       	call   1048e7 <release>
  101072:	83 c4 10             	add    $0x10,%esp
  101075:	e9 81 00 00 00       	jmp    1010fb <fileclose+0xdc>
/u/s/h/shirui/private/cs537/p3a/p3/xv6-sp20/kernel/file.c:63
  10107a:	8b 45 08             	mov    0x8(%ebp),%eax
  10107d:	8b 10                	mov    (%eax),%edx
  10107f:	89 55 e0             	mov    %edx,-0x20(%ebp)
  101082:	8b 50 04             	mov    0x4(%eax),%edx
  101085:	89 55 e4             	mov    %edx,-0x1c(%ebp)
  101088:	8b 50 08             	mov    0x8(%eax),%edx
  10108b:	89 55 e8             	mov    %edx,-0x18(%ebp)
  10108e:	8b 50 0c             	mov    0xc(%eax),%edx
  101091:	89 55 ec             	mov    %edx,-0x14(%ebp)
  101094:	8b 50 10             	mov    0x10(%eax),%edx
  101097:	89 55 f0             	mov    %edx,-0x10(%ebp)
  10109a:	8b 40 14             	mov    0x14(%eax),%eax
  10109d:	89 45 f4             	mov    %eax,-0xc(%ebp)
/u/s/h/shirui/private/cs537/p3a/p3/xv6-sp20/kernel/file.c:64
  1010a0:	8b 45 08             	mov    0x8(%ebp),%eax
  1010a3:	c7 40 04 00 00 00 00 	movl   $0x0,0x4(%eax)
/u/s/h/shirui/private/cs537/p3a/p3/xv6-sp20/kernel/file.c:65
  1010aa:	8b 45 08             	mov    0x8(%ebp),%eax
  1010ad:	c7 00 00 00 00 00    	movl   $0x0,(%eax)
/u/s/h/shirui/private/cs537/p3a/p3/xv6-sp20/kernel/file.c:66
  1010b3:	83 ec 0c             	sub    $0xc,%esp
  1010b6:	68 80 e3 10 00       	push   $0x10e380
  1010bb:	e8 27 38 00 00       	call   1048e7 <release>
  1010c0:	83 c4 10             	add    $0x10,%esp
/u/s/h/shirui/private/cs537/p3a/p3/xv6-sp20/kernel/file.c:68
  1010c3:	8b 45 e0             	mov    -0x20(%ebp),%eax
  1010c6:	83 f8 01             	cmp    $0x1,%eax
  1010c9:	75 19                	jne    1010e4 <fileclose+0xc5>
/u/s/h/shirui/private/cs537/p3a/p3/xv6-sp20/kernel/file.c:69
  1010cb:	0f b6 45 e9          	movzbl -0x17(%ebp),%eax
  1010cf:	0f be d0             	movsbl %al,%edx
  1010d2:	8b 45 ec             	mov    -0x14(%ebp),%eax
  1010d5:	83 ec 08             	sub    $0x8,%esp
  1010d8:	52                   	push   %edx
  1010d9:	50                   	push   %eax
  1010da:	e8 6b 29 00 00       	call   103a4a <pipeclose>
  1010df:	83 c4 10             	add    $0x10,%esp
  1010e2:	eb 17                	jmp    1010fb <fileclose+0xdc>
/u/s/h/shirui/private/cs537/p3a/p3/xv6-sp20/kernel/file.c:70
  1010e4:	8b 45 e0             	mov    -0x20(%ebp),%eax
  1010e7:	83 f8 02             	cmp    $0x2,%eax
  1010ea:	75 0f                	jne    1010fb <fileclose+0xdc>
/u/s/h/shirui/private/cs537/p3a/p3/xv6-sp20/kernel/file.c:71
  1010ec:	8b 45 f0             	mov    -0x10(%ebp),%eax
  1010ef:	83 ec 0c             	sub    $0xc,%esp
  1010f2:	50                   	push   %eax
  1010f3:	e8 21 09 00 00       	call   101a19 <iput>
  1010f8:	83 c4 10             	add    $0x10,%esp
/u/s/h/shirui/private/cs537/p3a/p3/xv6-sp20/kernel/file.c:72
  1010fb:	c9                   	leave  
  1010fc:	c3                   	ret    

001010fd <filestat>:
filestat():
/u/s/h/shirui/private/cs537/p3a/p3/xv6-sp20/kernel/file.c:77
  1010fd:	55                   	push   %ebp
  1010fe:	89 e5                	mov    %esp,%ebp
  101100:	83 ec 08             	sub    $0x8,%esp
/u/s/h/shirui/private/cs537/p3a/p3/xv6-sp20/kernel/file.c:78
  101103:	8b 45 08             	mov    0x8(%ebp),%eax
  101106:	8b 00                	mov    (%eax),%eax
  101108:	83 f8 02             	cmp    $0x2,%eax
  10110b:	75 40                	jne    10114d <filestat+0x50>
/u/s/h/shirui/private/cs537/p3a/p3/xv6-sp20/kernel/file.c:79
  10110d:	8b 45 08             	mov    0x8(%ebp),%eax
  101110:	8b 40 10             	mov    0x10(%eax),%eax
  101113:	83 ec 0c             	sub    $0xc,%esp
  101116:	50                   	push   %eax
  101117:	e8 33 07 00 00       	call   10184f <ilock>
  10111c:	83 c4 10             	add    $0x10,%esp
/u/s/h/shirui/private/cs537/p3a/p3/xv6-sp20/kernel/file.c:80
  10111f:	8b 45 08             	mov    0x8(%ebp),%eax
  101122:	8b 40 10             	mov    0x10(%eax),%eax
  101125:	83 ec 08             	sub    $0x8,%esp
  101128:	ff 75 0c             	pushl  0xc(%ebp)
  10112b:	50                   	push   %eax
  10112c:	e8 3b 0c 00 00       	call   101d6c <stati>
  101131:	83 c4 10             	add    $0x10,%esp
/u/s/h/shirui/private/cs537/p3a/p3/xv6-sp20/kernel/file.c:81
  101134:	8b 45 08             	mov    0x8(%ebp),%eax
  101137:	8b 40 10             	mov    0x10(%eax),%eax
  10113a:	83 ec 0c             	sub    $0xc,%esp
  10113d:	50                   	push   %eax
  10113e:	e8 64 08 00 00       	call   1019a7 <iunlock>
  101143:	83 c4 10             	add    $0x10,%esp
/u/s/h/shirui/private/cs537/p3a/p3/xv6-sp20/kernel/file.c:82
  101146:	b8 00 00 00 00       	mov    $0x0,%eax
  10114b:	eb 05                	jmp    101152 <filestat+0x55>
/u/s/h/shirui/private/cs537/p3a/p3/xv6-sp20/kernel/file.c:84
  10114d:	b8 ff ff ff ff       	mov    $0xffffffff,%eax
/u/s/h/shirui/private/cs537/p3a/p3/xv6-sp20/kernel/file.c:85
  101152:	c9                   	leave  
  101153:	c3                   	ret    

00101154 <fileread>:
fileread():
/u/s/h/shirui/private/cs537/p3a/p3/xv6-sp20/kernel/file.c:90
  101154:	55                   	push   %ebp
  101155:	89 e5                	mov    %esp,%ebp
  101157:	83 ec 18             	sub    $0x18,%esp
/u/s/h/shirui/private/cs537/p3a/p3/xv6-sp20/kernel/file.c:93
  10115a:	8b 45 08             	mov    0x8(%ebp),%eax
  10115d:	0f b6 40 08          	movzbl 0x8(%eax),%eax
  101161:	84 c0                	test   %al,%al
  101163:	75 0a                	jne    10116f <fileread+0x1b>
/u/s/h/shirui/private/cs537/p3a/p3/xv6-sp20/kernel/file.c:94
  101165:	b8 ff ff ff ff       	mov    $0xffffffff,%eax
  10116a:	e9 9b 00 00 00       	jmp    10120a <fileread+0xb6>
/u/s/h/shirui/private/cs537/p3a/p3/xv6-sp20/kernel/file.c:95
  10116f:	8b 45 08             	mov    0x8(%ebp),%eax
  101172:	8b 00                	mov    (%eax),%eax
  101174:	83 f8 01             	cmp    $0x1,%eax
  101177:	75 1a                	jne    101193 <fileread+0x3f>
/u/s/h/shirui/private/cs537/p3a/p3/xv6-sp20/kernel/file.c:96
  101179:	8b 45 08             	mov    0x8(%ebp),%eax
  10117c:	8b 40 0c             	mov    0xc(%eax),%eax
  10117f:	83 ec 04             	sub    $0x4,%esp
  101182:	ff 75 10             	pushl  0x10(%ebp)
  101185:	ff 75 0c             	pushl  0xc(%ebp)
  101188:	50                   	push   %eax
  101189:	e8 69 2a 00 00       	call   103bf7 <piperead>
  10118e:	83 c4 10             	add    $0x10,%esp
  101191:	eb 77                	jmp    10120a <fileread+0xb6>
/u/s/h/shirui/private/cs537/p3a/p3/xv6-sp20/kernel/file.c:97
  101193:	8b 45 08             	mov    0x8(%ebp),%eax
  101196:	8b 00                	mov    (%eax),%eax
  101198:	83 f8 02             	cmp    $0x2,%eax
  10119b:	75 60                	jne    1011fd <fileread+0xa9>
/u/s/h/shirui/private/cs537/p3a/p3/xv6-sp20/kernel/file.c:98
  10119d:	8b 45 08             	mov    0x8(%ebp),%eax
  1011a0:	8b 40 10             	mov    0x10(%eax),%eax
  1011a3:	83 ec 0c             	sub    $0xc,%esp
  1011a6:	50                   	push   %eax
  1011a7:	e8 a3 06 00 00       	call   10184f <ilock>
  1011ac:	83 c4 10             	add    $0x10,%esp
/u/s/h/shirui/private/cs537/p3a/p3/xv6-sp20/kernel/file.c:99
  1011af:	8b 4d 10             	mov    0x10(%ebp),%ecx
  1011b2:	8b 45 08             	mov    0x8(%ebp),%eax
  1011b5:	8b 50 14             	mov    0x14(%eax),%edx
  1011b8:	8b 45 08             	mov    0x8(%ebp),%eax
  1011bb:	8b 40 10             	mov    0x10(%eax),%eax
  1011be:	51                   	push   %ecx
  1011bf:	52                   	push   %edx
  1011c0:	ff 75 0c             	pushl  0xc(%ebp)
  1011c3:	50                   	push   %eax
  1011c4:	e8 e9 0b 00 00       	call   101db2 <readi>
  1011c9:	83 c4 10             	add    $0x10,%esp
  1011cc:	89 45 f4             	mov    %eax,-0xc(%ebp)
  1011cf:	83 7d f4 00          	cmpl   $0x0,-0xc(%ebp)
  1011d3:	7e 11                	jle    1011e6 <fileread+0x92>
/u/s/h/shirui/private/cs537/p3a/p3/xv6-sp20/kernel/file.c:100
  1011d5:	8b 45 08             	mov    0x8(%ebp),%eax
  1011d8:	8b 50 14             	mov    0x14(%eax),%edx
  1011db:	8b 45 f4             	mov    -0xc(%ebp),%eax
  1011de:	01 c2                	add    %eax,%edx
  1011e0:	8b 45 08             	mov    0x8(%ebp),%eax
  1011e3:	89 50 14             	mov    %edx,0x14(%eax)
/u/s/h/shirui/private/cs537/p3a/p3/xv6-sp20/kernel/file.c:101
  1011e6:	8b 45 08             	mov    0x8(%ebp),%eax
  1011e9:	8b 40 10             	mov    0x10(%eax),%eax
  1011ec:	83 ec 0c             	sub    $0xc,%esp
  1011ef:	50                   	push   %eax
  1011f0:	e8 b2 07 00 00       	call   1019a7 <iunlock>
  1011f5:	83 c4 10             	add    $0x10,%esp
/u/s/h/shirui/private/cs537/p3a/p3/xv6-sp20/kernel/file.c:102
  1011f8:	8b 45 f4             	mov    -0xc(%ebp),%eax
  1011fb:	eb 0d                	jmp    10120a <fileread+0xb6>
/u/s/h/shirui/private/cs537/p3a/p3/xv6-sp20/kernel/file.c:104
  1011fd:	83 ec 0c             	sub    $0xc,%esp
  101200:	68 81 7f 10 00       	push   $0x107f81
  101205:	e8 6e f3 ff ff       	call   100578 <panic>
/u/s/h/shirui/private/cs537/p3a/p3/xv6-sp20/kernel/file.c:105
  10120a:	c9                   	leave  
  10120b:	c3                   	ret    

0010120c <filewrite>:
filewrite():
/u/s/h/shirui/private/cs537/p3a/p3/xv6-sp20/kernel/file.c:110
  10120c:	55                   	push   %ebp
  10120d:	89 e5                	mov    %esp,%ebp
  10120f:	83 ec 18             	sub    $0x18,%esp
/u/s/h/shirui/private/cs537/p3a/p3/xv6-sp20/kernel/file.c:113
  101212:	8b 45 08             	mov    0x8(%ebp),%eax
  101215:	0f b6 40 09          	movzbl 0x9(%eax),%eax
  101219:	84 c0                	test   %al,%al
  10121b:	75 0a                	jne    101227 <filewrite+0x1b>
/u/s/h/shirui/private/cs537/p3a/p3/xv6-sp20/kernel/file.c:114
  10121d:	b8 ff ff ff ff       	mov    $0xffffffff,%eax
  101222:	e9 9b 00 00 00       	jmp    1012c2 <filewrite+0xb6>
/u/s/h/shirui/private/cs537/p3a/p3/xv6-sp20/kernel/file.c:115
  101227:	8b 45 08             	mov    0x8(%ebp),%eax
  10122a:	8b 00                	mov    (%eax),%eax
  10122c:	83 f8 01             	cmp    $0x1,%eax
  10122f:	75 1a                	jne    10124b <filewrite+0x3f>
/u/s/h/shirui/private/cs537/p3a/p3/xv6-sp20/kernel/file.c:116
  101231:	8b 45 08             	mov    0x8(%ebp),%eax
  101234:	8b 40 0c             	mov    0xc(%eax),%eax
  101237:	83 ec 04             	sub    $0x4,%esp
  10123a:	ff 75 10             	pushl  0x10(%ebp)
  10123d:	ff 75 0c             	pushl  0xc(%ebp)
  101240:	50                   	push   %eax
  101241:	e8 ae 28 00 00       	call   103af4 <pipewrite>
  101246:	83 c4 10             	add    $0x10,%esp
  101249:	eb 77                	jmp    1012c2 <filewrite+0xb6>
/u/s/h/shirui/private/cs537/p3a/p3/xv6-sp20/kernel/file.c:117
  10124b:	8b 45 08             	mov    0x8(%ebp),%eax
  10124e:	8b 00                	mov    (%eax),%eax
  101250:	83 f8 02             	cmp    $0x2,%eax
  101253:	75 60                	jne    1012b5 <filewrite+0xa9>
/u/s/h/shirui/private/cs537/p3a/p3/xv6-sp20/kernel/file.c:118
  101255:	8b 45 08             	mov    0x8(%ebp),%eax
  101258:	8b 40 10             	mov    0x10(%eax),%eax
  10125b:	83 ec 0c             	sub    $0xc,%esp
  10125e:	50                   	push   %eax
  10125f:	e8 eb 05 00 00       	call   10184f <ilock>
  101264:	83 c4 10             	add    $0x10,%esp
/u/s/h/shirui/private/cs537/p3a/p3/xv6-sp20/kernel/file.c:119
  101267:	8b 4d 10             	mov    0x10(%ebp),%ecx
  10126a:	8b 45 08             	mov    0x8(%ebp),%eax
  10126d:	8b 50 14             	mov    0x14(%eax),%edx
  101270:	8b 45 08             	mov    0x8(%ebp),%eax
  101273:	8b 40 10             	mov    0x10(%eax),%eax
  101276:	51                   	push   %ecx
  101277:	52                   	push   %edx
  101278:	ff 75 0c             	pushl  0xc(%ebp)
  10127b:	50                   	push   %eax
  10127c:	e8 88 0c 00 00       	call   101f09 <writei>
  101281:	83 c4 10             	add    $0x10,%esp
  101284:	89 45 f4             	mov    %eax,-0xc(%ebp)
  101287:	83 7d f4 00          	cmpl   $0x0,-0xc(%ebp)
  10128b:	7e 11                	jle    10129e <filewrite+0x92>
/u/s/h/shirui/private/cs537/p3a/p3/xv6-sp20/kernel/file.c:120
  10128d:	8b 45 08             	mov    0x8(%ebp),%eax
  101290:	8b 50 14             	mov    0x14(%eax),%edx
  101293:	8b 45 f4             	mov    -0xc(%ebp),%eax
  101296:	01 c2                	add    %eax,%edx
  101298:	8b 45 08             	mov    0x8(%ebp),%eax
  10129b:	89 50 14             	mov    %edx,0x14(%eax)
/u/s/h/shirui/private/cs537/p3a/p3/xv6-sp20/kernel/file.c:121
  10129e:	8b 45 08             	mov    0x8(%ebp),%eax
  1012a1:	8b 40 10             	mov    0x10(%eax),%eax
  1012a4:	83 ec 0c             	sub    $0xc,%esp
  1012a7:	50                   	push   %eax
  1012a8:	e8 fa 06 00 00       	call   1019a7 <iunlock>
  1012ad:	83 c4 10             	add    $0x10,%esp
/u/s/h/shirui/private/cs537/p3a/p3/xv6-sp20/kernel/file.c:122
  1012b0:	8b 45 f4             	mov    -0xc(%ebp),%eax
  1012b3:	eb 0d                	jmp    1012c2 <filewrite+0xb6>
/u/s/h/shirui/private/cs537/p3a/p3/xv6-sp20/kernel/file.c:124
  1012b5:	83 ec 0c             	sub    $0xc,%esp
  1012b8:	68 8a 7f 10 00       	push   $0x107f8a
  1012bd:	e8 b6 f2 ff ff       	call   100578 <panic>
/u/s/h/shirui/private/cs537/p3a/p3/xv6-sp20/kernel/file.c:125
  1012c2:	c9                   	leave  
  1012c3:	c3                   	ret    

001012c4 <readsb>:
readsb():
/u/s/h/shirui/private/cs537/p3a/p3/xv6-sp20/kernel/fs.c:30
  1012c4:	55                   	push   %ebp
  1012c5:	89 e5                	mov    %esp,%ebp
  1012c7:	83 ec 18             	sub    $0x18,%esp
/u/s/h/shirui/private/cs537/p3a/p3/xv6-sp20/kernel/fs.c:33
  1012ca:	8b 45 08             	mov    0x8(%ebp),%eax
  1012cd:	83 ec 08             	sub    $0x8,%esp
  1012d0:	6a 01                	push   $0x1
  1012d2:	50                   	push   %eax
  1012d3:	e8 08 ef ff ff       	call   1001e0 <bread>
  1012d8:	83 c4 10             	add    $0x10,%esp
  1012db:	89 45 f4             	mov    %eax,-0xc(%ebp)
/u/s/h/shirui/private/cs537/p3a/p3/xv6-sp20/kernel/fs.c:34
  1012de:	8b 45 f4             	mov    -0xc(%ebp),%eax
  1012e1:	83 c0 18             	add    $0x18,%eax
  1012e4:	83 ec 04             	sub    $0x4,%esp
  1012e7:	6a 0c                	push   $0xc
  1012e9:	50                   	push   %eax
  1012ea:	ff 75 0c             	pushl  0xc(%ebp)
  1012ed:	e8 3d 38 00 00       	call   104b2f <memmove>
  1012f2:	83 c4 10             	add    $0x10,%esp
/u/s/h/shirui/private/cs537/p3a/p3/xv6-sp20/kernel/fs.c:35
  1012f5:	83 ec 0c             	sub    $0xc,%esp
  1012f8:	ff 75 f4             	pushl  -0xc(%ebp)
  1012fb:	e8 58 ef ff ff       	call   100258 <brelse>
  101300:	83 c4 10             	add    $0x10,%esp
/u/s/h/shirui/private/cs537/p3a/p3/xv6-sp20/kernel/fs.c:36
  101303:	90                   	nop
  101304:	c9                   	leave  
  101305:	c3                   	ret    

00101306 <bzero>:
bzero():
/u/s/h/shirui/private/cs537/p3a/p3/xv6-sp20/kernel/fs.c:41
  101306:	55                   	push   %ebp
  101307:	89 e5                	mov    %esp,%ebp
  101309:	83 ec 18             	sub    $0x18,%esp
/u/s/h/shirui/private/cs537/p3a/p3/xv6-sp20/kernel/fs.c:44
  10130c:	8b 55 0c             	mov    0xc(%ebp),%edx
  10130f:	8b 45 08             	mov    0x8(%ebp),%eax
  101312:	83 ec 08             	sub    $0x8,%esp
  101315:	52                   	push   %edx
  101316:	50                   	push   %eax
  101317:	e8 c4 ee ff ff       	call   1001e0 <bread>
  10131c:	83 c4 10             	add    $0x10,%esp
  10131f:	89 45 f4             	mov    %eax,-0xc(%ebp)
/u/s/h/shirui/private/cs537/p3a/p3/xv6-sp20/kernel/fs.c:45
  101322:	8b 45 f4             	mov    -0xc(%ebp),%eax
  101325:	83 c0 18             	add    $0x18,%eax
  101328:	83 ec 04             	sub    $0x4,%esp
  10132b:	68 00 02 00 00       	push   $0x200
  101330:	6a 00                	push   $0x0
  101332:	50                   	push   %eax
  101333:	e8 85 37 00 00       	call   104abd <memset>
  101338:	83 c4 10             	add    $0x10,%esp
/u/s/h/shirui/private/cs537/p3a/p3/xv6-sp20/kernel/fs.c:46
  10133b:	83 ec 0c             	sub    $0xc,%esp
  10133e:	ff 75 f4             	pushl  -0xc(%ebp)
  101341:	e8 d3 ee ff ff       	call   100219 <bwrite>
  101346:	83 c4 10             	add    $0x10,%esp
/u/s/h/shirui/private/cs537/p3a/p3/xv6-sp20/kernel/fs.c:47
  101349:	83 ec 0c             	sub    $0xc,%esp
  10134c:	ff 75 f4             	pushl  -0xc(%ebp)
  10134f:	e8 04 ef ff ff       	call   100258 <brelse>
  101354:	83 c4 10             	add    $0x10,%esp
/u/s/h/shirui/private/cs537/p3a/p3/xv6-sp20/kernel/fs.c:48
  101357:	90                   	nop
  101358:	c9                   	leave  
  101359:	c3                   	ret    

0010135a <balloc>:
balloc():
/u/s/h/shirui/private/cs537/p3a/p3/xv6-sp20/kernel/fs.c:55
  10135a:	55                   	push   %ebp
  10135b:	89 e5                	mov    %esp,%ebp
  10135d:	83 ec 28             	sub    $0x28,%esp
/u/s/h/shirui/private/cs537/p3a/p3/xv6-sp20/kernel/fs.c:60
  101360:	c7 45 ec 00 00 00 00 	movl   $0x0,-0x14(%ebp)
/u/s/h/shirui/private/cs537/p3a/p3/xv6-sp20/kernel/fs.c:61
  101367:	8b 45 08             	mov    0x8(%ebp),%eax
  10136a:	83 ec 08             	sub    $0x8,%esp
  10136d:	8d 55 dc             	lea    -0x24(%ebp),%edx
  101370:	52                   	push   %edx
  101371:	50                   	push   %eax
  101372:	e8 4d ff ff ff       	call   1012c4 <readsb>
  101377:	83 c4 10             	add    $0x10,%esp
/u/s/h/shirui/private/cs537/p3a/p3/xv6-sp20/kernel/fs.c:62
  10137a:	c7 45 f4 00 00 00 00 	movl   $0x0,-0xc(%ebp)
  101381:	e9 ec 00 00 00       	jmp    101472 <balloc+0x118>
/u/s/h/shirui/private/cs537/p3a/p3/xv6-sp20/kernel/fs.c:63
  101386:	8b 45 f4             	mov    -0xc(%ebp),%eax
  101389:	8d 90 ff 0f 00 00    	lea    0xfff(%eax),%edx
  10138f:	85 c0                	test   %eax,%eax
  101391:	0f 48 c2             	cmovs  %edx,%eax
  101394:	c1 f8 0c             	sar    $0xc,%eax
  101397:	89 c2                	mov    %eax,%edx
  101399:	8b 45 e4             	mov    -0x1c(%ebp),%eax
  10139c:	c1 e8 03             	shr    $0x3,%eax
  10139f:	01 d0                	add    %edx,%eax
  1013a1:	83 c0 03             	add    $0x3,%eax
  1013a4:	83 ec 08             	sub    $0x8,%esp
  1013a7:	50                   	push   %eax
  1013a8:	ff 75 08             	pushl  0x8(%ebp)
  1013ab:	e8 30 ee ff ff       	call   1001e0 <bread>
  1013b0:	83 c4 10             	add    $0x10,%esp
  1013b3:	89 45 ec             	mov    %eax,-0x14(%ebp)
/u/s/h/shirui/private/cs537/p3a/p3/xv6-sp20/kernel/fs.c:64
  1013b6:	c7 45 f0 00 00 00 00 	movl   $0x0,-0x10(%ebp)
  1013bd:	e9 8e 00 00 00       	jmp    101450 <balloc+0xf6>
/u/s/h/shirui/private/cs537/p3a/p3/xv6-sp20/kernel/fs.c:65
  1013c2:	8b 45 f0             	mov    -0x10(%ebp),%eax
  1013c5:	99                   	cltd   
  1013c6:	c1 ea 1d             	shr    $0x1d,%edx
  1013c9:	01 d0                	add    %edx,%eax
  1013cb:	83 e0 07             	and    $0x7,%eax
  1013ce:	29 d0                	sub    %edx,%eax
  1013d0:	ba 01 00 00 00       	mov    $0x1,%edx
  1013d5:	89 c1                	mov    %eax,%ecx
  1013d7:	d3 e2                	shl    %cl,%edx
  1013d9:	89 d0                	mov    %edx,%eax
  1013db:	89 45 e8             	mov    %eax,-0x18(%ebp)
/u/s/h/shirui/private/cs537/p3a/p3/xv6-sp20/kernel/fs.c:66
  1013de:	8b 45 f0             	mov    -0x10(%ebp),%eax
  1013e1:	8d 50 07             	lea    0x7(%eax),%edx
  1013e4:	85 c0                	test   %eax,%eax
  1013e6:	0f 48 c2             	cmovs  %edx,%eax
  1013e9:	c1 f8 03             	sar    $0x3,%eax
  1013ec:	89 c2                	mov    %eax,%edx
  1013ee:	8b 45 ec             	mov    -0x14(%ebp),%eax
  1013f1:	0f b6 44 10 18       	movzbl 0x18(%eax,%edx,1),%eax
  1013f6:	0f b6 c0             	movzbl %al,%eax
  1013f9:	23 45 e8             	and    -0x18(%ebp),%eax
  1013fc:	85 c0                	test   %eax,%eax
  1013fe:	75 4c                	jne    10144c <balloc+0xf2>
/u/s/h/shirui/private/cs537/p3a/p3/xv6-sp20/kernel/fs.c:67
  101400:	8b 45 f0             	mov    -0x10(%ebp),%eax
  101403:	8d 50 07             	lea    0x7(%eax),%edx
  101406:	85 c0                	test   %eax,%eax
  101408:	0f 48 c2             	cmovs  %edx,%eax
  10140b:	c1 f8 03             	sar    $0x3,%eax
  10140e:	8b 55 ec             	mov    -0x14(%ebp),%edx
  101411:	0f b6 54 02 18       	movzbl 0x18(%edx,%eax,1),%edx
  101416:	89 d1                	mov    %edx,%ecx
  101418:	8b 55 e8             	mov    -0x18(%ebp),%edx
  10141b:	09 ca                	or     %ecx,%edx
  10141d:	89 d1                	mov    %edx,%ecx
  10141f:	8b 55 ec             	mov    -0x14(%ebp),%edx
  101422:	88 4c 02 18          	mov    %cl,0x18(%edx,%eax,1)
/u/s/h/shirui/private/cs537/p3a/p3/xv6-sp20/kernel/fs.c:68
  101426:	83 ec 0c             	sub    $0xc,%esp
  101429:	ff 75 ec             	pushl  -0x14(%ebp)
  10142c:	e8 e8 ed ff ff       	call   100219 <bwrite>
  101431:	83 c4 10             	add    $0x10,%esp
/u/s/h/shirui/private/cs537/p3a/p3/xv6-sp20/kernel/fs.c:69
  101434:	83 ec 0c             	sub    $0xc,%esp
  101437:	ff 75 ec             	pushl  -0x14(%ebp)
  10143a:	e8 19 ee ff ff       	call   100258 <brelse>
  10143f:	83 c4 10             	add    $0x10,%esp
/u/s/h/shirui/private/cs537/p3a/p3/xv6-sp20/kernel/fs.c:70
  101442:	8b 55 f4             	mov    -0xc(%ebp),%edx
  101445:	8b 45 f0             	mov    -0x10(%ebp),%eax
  101448:	01 d0                	add    %edx,%eax
  10144a:	eb 41                	jmp    10148d <balloc+0x133>
/u/s/h/shirui/private/cs537/p3a/p3/xv6-sp20/kernel/fs.c:64 (discriminator 2)
  10144c:	83 45 f0 01          	addl   $0x1,-0x10(%ebp)
/u/s/h/shirui/private/cs537/p3a/p3/xv6-sp20/kernel/fs.c:64 (discriminator 1)
  101450:	81 7d f0 ff 0f 00 00 	cmpl   $0xfff,-0x10(%ebp)
  101457:	0f 8e 65 ff ff ff    	jle    1013c2 <balloc+0x68>
/u/s/h/shirui/private/cs537/p3a/p3/xv6-sp20/kernel/fs.c:73 (discriminator 2)
  10145d:	83 ec 0c             	sub    $0xc,%esp
  101460:	ff 75 ec             	pushl  -0x14(%ebp)
  101463:	e8 f0 ed ff ff       	call   100258 <brelse>
  101468:	83 c4 10             	add    $0x10,%esp
/u/s/h/shirui/private/cs537/p3a/p3/xv6-sp20/kernel/fs.c:62 (discriminator 2)
  10146b:	81 45 f4 00 10 00 00 	addl   $0x1000,-0xc(%ebp)
/u/s/h/shirui/private/cs537/p3a/p3/xv6-sp20/kernel/fs.c:62 (discriminator 1)
  101472:	8b 55 dc             	mov    -0x24(%ebp),%edx
  101475:	8b 45 f4             	mov    -0xc(%ebp),%eax
  101478:	39 c2                	cmp    %eax,%edx
  10147a:	0f 87 06 ff ff ff    	ja     101386 <balloc+0x2c>
/u/s/h/shirui/private/cs537/p3a/p3/xv6-sp20/kernel/fs.c:75
  101480:	83 ec 0c             	sub    $0xc,%esp
  101483:	68 94 7f 10 00       	push   $0x107f94
  101488:	e8 eb f0 ff ff       	call   100578 <panic>
/u/s/h/shirui/private/cs537/p3a/p3/xv6-sp20/kernel/fs.c:76
  10148d:	c9                   	leave  
  10148e:	c3                   	ret    

0010148f <bfree>:
bfree():
/u/s/h/shirui/private/cs537/p3a/p3/xv6-sp20/kernel/fs.c:81
  10148f:	55                   	push   %ebp
  101490:	89 e5                	mov    %esp,%ebp
  101492:	83 ec 28             	sub    $0x28,%esp
/u/s/h/shirui/private/cs537/p3a/p3/xv6-sp20/kernel/fs.c:86
  101495:	8b 45 0c             	mov    0xc(%ebp),%eax
  101498:	83 ec 08             	sub    $0x8,%esp
  10149b:	50                   	push   %eax
  10149c:	ff 75 08             	pushl  0x8(%ebp)
  10149f:	e8 62 fe ff ff       	call   101306 <bzero>
  1014a4:	83 c4 10             	add    $0x10,%esp
/u/s/h/shirui/private/cs537/p3a/p3/xv6-sp20/kernel/fs.c:88
  1014a7:	83 ec 08             	sub    $0x8,%esp
  1014aa:	8d 45 e0             	lea    -0x20(%ebp),%eax
  1014ad:	50                   	push   %eax
  1014ae:	ff 75 08             	pushl  0x8(%ebp)
  1014b1:	e8 0e fe ff ff       	call   1012c4 <readsb>
  1014b6:	83 c4 10             	add    $0x10,%esp
/u/s/h/shirui/private/cs537/p3a/p3/xv6-sp20/kernel/fs.c:89
  1014b9:	8b 45 0c             	mov    0xc(%ebp),%eax
  1014bc:	c1 e8 0c             	shr    $0xc,%eax
  1014bf:	89 c2                	mov    %eax,%edx
  1014c1:	8b 45 e8             	mov    -0x18(%ebp),%eax
  1014c4:	c1 e8 03             	shr    $0x3,%eax
  1014c7:	01 d0                	add    %edx,%eax
  1014c9:	8d 50 03             	lea    0x3(%eax),%edx
  1014cc:	8b 45 08             	mov    0x8(%ebp),%eax
  1014cf:	83 ec 08             	sub    $0x8,%esp
  1014d2:	52                   	push   %edx
  1014d3:	50                   	push   %eax
  1014d4:	e8 07 ed ff ff       	call   1001e0 <bread>
  1014d9:	83 c4 10             	add    $0x10,%esp
  1014dc:	89 45 f4             	mov    %eax,-0xc(%ebp)
/u/s/h/shirui/private/cs537/p3a/p3/xv6-sp20/kernel/fs.c:90
  1014df:	8b 45 0c             	mov    0xc(%ebp),%eax
  1014e2:	25 ff 0f 00 00       	and    $0xfff,%eax
  1014e7:	89 45 f0             	mov    %eax,-0x10(%ebp)
/u/s/h/shirui/private/cs537/p3a/p3/xv6-sp20/kernel/fs.c:91
  1014ea:	8b 45 f0             	mov    -0x10(%ebp),%eax
  1014ed:	99                   	cltd   
  1014ee:	c1 ea 1d             	shr    $0x1d,%edx
  1014f1:	01 d0                	add    %edx,%eax
  1014f3:	83 e0 07             	and    $0x7,%eax
  1014f6:	29 d0                	sub    %edx,%eax
  1014f8:	ba 01 00 00 00       	mov    $0x1,%edx
  1014fd:	89 c1                	mov    %eax,%ecx
  1014ff:	d3 e2                	shl    %cl,%edx
  101501:	89 d0                	mov    %edx,%eax
  101503:	89 45 ec             	mov    %eax,-0x14(%ebp)
/u/s/h/shirui/private/cs537/p3a/p3/xv6-sp20/kernel/fs.c:92
  101506:	8b 45 f0             	mov    -0x10(%ebp),%eax
  101509:	8d 50 07             	lea    0x7(%eax),%edx
  10150c:	85 c0                	test   %eax,%eax
  10150e:	0f 48 c2             	cmovs  %edx,%eax
  101511:	c1 f8 03             	sar    $0x3,%eax
  101514:	89 c2                	mov    %eax,%edx
  101516:	8b 45 f4             	mov    -0xc(%ebp),%eax
  101519:	0f b6 44 10 18       	movzbl 0x18(%eax,%edx,1),%eax
  10151e:	0f b6 c0             	movzbl %al,%eax
  101521:	23 45 ec             	and    -0x14(%ebp),%eax
  101524:	85 c0                	test   %eax,%eax
  101526:	75 0d                	jne    101535 <bfree+0xa6>
/u/s/h/shirui/private/cs537/p3a/p3/xv6-sp20/kernel/fs.c:93
  101528:	83 ec 0c             	sub    $0xc,%esp
  10152b:	68 aa 7f 10 00       	push   $0x107faa
  101530:	e8 43 f0 ff ff       	call   100578 <panic>
/u/s/h/shirui/private/cs537/p3a/p3/xv6-sp20/kernel/fs.c:94
  101535:	8b 45 f0             	mov    -0x10(%ebp),%eax
  101538:	8d 50 07             	lea    0x7(%eax),%edx
  10153b:	85 c0                	test   %eax,%eax
  10153d:	0f 48 c2             	cmovs  %edx,%eax
  101540:	c1 f8 03             	sar    $0x3,%eax
  101543:	8b 55 f4             	mov    -0xc(%ebp),%edx
  101546:	0f b6 54 02 18       	movzbl 0x18(%edx,%eax,1),%edx
  10154b:	89 d1                	mov    %edx,%ecx
  10154d:	8b 55 ec             	mov    -0x14(%ebp),%edx
  101550:	f7 d2                	not    %edx
  101552:	21 ca                	and    %ecx,%edx
  101554:	89 d1                	mov    %edx,%ecx
  101556:	8b 55 f4             	mov    -0xc(%ebp),%edx
  101559:	88 4c 02 18          	mov    %cl,0x18(%edx,%eax,1)
/u/s/h/shirui/private/cs537/p3a/p3/xv6-sp20/kernel/fs.c:95
  10155d:	83 ec 0c             	sub    $0xc,%esp
  101560:	ff 75 f4             	pushl  -0xc(%ebp)
  101563:	e8 b1 ec ff ff       	call   100219 <bwrite>
  101568:	83 c4 10             	add    $0x10,%esp
/u/s/h/shirui/private/cs537/p3a/p3/xv6-sp20/kernel/fs.c:96
  10156b:	83 ec 0c             	sub    $0xc,%esp
  10156e:	ff 75 f4             	pushl  -0xc(%ebp)
  101571:	e8 e2 ec ff ff       	call   100258 <brelse>
  101576:	83 c4 10             	add    $0x10,%esp
/u/s/h/shirui/private/cs537/p3a/p3/xv6-sp20/kernel/fs.c:97
  101579:	90                   	nop
  10157a:	c9                   	leave  
  10157b:	c3                   	ret    

0010157c <iinit>:
iinit():
/u/s/h/shirui/private/cs537/p3a/p3/xv6-sp20/kernel/fs.c:139
  10157c:	55                   	push   %ebp
  10157d:	89 e5                	mov    %esp,%ebp
  10157f:	83 ec 08             	sub    $0x8,%esp
/u/s/h/shirui/private/cs537/p3a/p3/xv6-sp20/kernel/fs.c:140
  101582:	83 ec 08             	sub    $0x8,%esp
  101585:	68 bd 7f 10 00       	push   $0x107fbd
  10158a:	68 80 ed 10 00       	push   $0x10ed80
  10158f:	e8 ca 32 00 00       	call   10485e <initlock>
  101594:	83 c4 10             	add    $0x10,%esp
/u/s/h/shirui/private/cs537/p3a/p3/xv6-sp20/kernel/fs.c:141
  101597:	90                   	nop
  101598:	c9                   	leave  
  101599:	c3                   	ret    

0010159a <ialloc>:
ialloc():
/u/s/h/shirui/private/cs537/p3a/p3/xv6-sp20/kernel/fs.c:148
  10159a:	55                   	push   %ebp
  10159b:	89 e5                	mov    %esp,%ebp
  10159d:	83 ec 38             	sub    $0x38,%esp
  1015a0:	8b 45 0c             	mov    0xc(%ebp),%eax
  1015a3:	66 89 45 d4          	mov    %ax,-0x2c(%ebp)
/u/s/h/shirui/private/cs537/p3a/p3/xv6-sp20/kernel/fs.c:154
  1015a7:	8b 45 08             	mov    0x8(%ebp),%eax
  1015aa:	83 ec 08             	sub    $0x8,%esp
  1015ad:	8d 55 e0             	lea    -0x20(%ebp),%edx
  1015b0:	52                   	push   %edx
  1015b1:	50                   	push   %eax
  1015b2:	e8 0d fd ff ff       	call   1012c4 <readsb>
  1015b7:	83 c4 10             	add    $0x10,%esp
/u/s/h/shirui/private/cs537/p3a/p3/xv6-sp20/kernel/fs.c:155
  1015ba:	c7 45 f4 01 00 00 00 	movl   $0x1,-0xc(%ebp)
  1015c1:	e9 98 00 00 00       	jmp    10165e <ialloc+0xc4>
/u/s/h/shirui/private/cs537/p3a/p3/xv6-sp20/kernel/fs.c:156
  1015c6:	8b 45 f4             	mov    -0xc(%ebp),%eax
  1015c9:	c1 e8 03             	shr    $0x3,%eax
  1015cc:	83 c0 02             	add    $0x2,%eax
  1015cf:	83 ec 08             	sub    $0x8,%esp
  1015d2:	50                   	push   %eax
  1015d3:	ff 75 08             	pushl  0x8(%ebp)
  1015d6:	e8 05 ec ff ff       	call   1001e0 <bread>
  1015db:	83 c4 10             	add    $0x10,%esp
  1015de:	89 45 f0             	mov    %eax,-0x10(%ebp)
/u/s/h/shirui/private/cs537/p3a/p3/xv6-sp20/kernel/fs.c:157
  1015e1:	8b 45 f0             	mov    -0x10(%ebp),%eax
  1015e4:	8d 50 18             	lea    0x18(%eax),%edx
  1015e7:	8b 45 f4             	mov    -0xc(%ebp),%eax
  1015ea:	83 e0 07             	and    $0x7,%eax
  1015ed:	c1 e0 06             	shl    $0x6,%eax
  1015f0:	01 d0                	add    %edx,%eax
  1015f2:	89 45 ec             	mov    %eax,-0x14(%ebp)
/u/s/h/shirui/private/cs537/p3a/p3/xv6-sp20/kernel/fs.c:158
  1015f5:	8b 45 ec             	mov    -0x14(%ebp),%eax
  1015f8:	0f b7 00             	movzwl (%eax),%eax
  1015fb:	66 85 c0             	test   %ax,%ax
  1015fe:	75 4c                	jne    10164c <ialloc+0xb2>
/u/s/h/shirui/private/cs537/p3a/p3/xv6-sp20/kernel/fs.c:159
  101600:	83 ec 04             	sub    $0x4,%esp
  101603:	6a 40                	push   $0x40
  101605:	6a 00                	push   $0x0
  101607:	ff 75 ec             	pushl  -0x14(%ebp)
  10160a:	e8 ae 34 00 00       	call   104abd <memset>
  10160f:	83 c4 10             	add    $0x10,%esp
/u/s/h/shirui/private/cs537/p3a/p3/xv6-sp20/kernel/fs.c:160
  101612:	8b 45 ec             	mov    -0x14(%ebp),%eax
  101615:	0f b7 55 d4          	movzwl -0x2c(%ebp),%edx
  101619:	66 89 10             	mov    %dx,(%eax)
/u/s/h/shirui/private/cs537/p3a/p3/xv6-sp20/kernel/fs.c:161
  10161c:	83 ec 0c             	sub    $0xc,%esp
  10161f:	ff 75 f0             	pushl  -0x10(%ebp)
  101622:	e8 f2 eb ff ff       	call   100219 <bwrite>
  101627:	83 c4 10             	add    $0x10,%esp
/u/s/h/shirui/private/cs537/p3a/p3/xv6-sp20/kernel/fs.c:162
  10162a:	83 ec 0c             	sub    $0xc,%esp
  10162d:	ff 75 f0             	pushl  -0x10(%ebp)
  101630:	e8 23 ec ff ff       	call   100258 <brelse>
  101635:	83 c4 10             	add    $0x10,%esp
/u/s/h/shirui/private/cs537/p3a/p3/xv6-sp20/kernel/fs.c:163
  101638:	8b 45 f4             	mov    -0xc(%ebp),%eax
  10163b:	83 ec 08             	sub    $0x8,%esp
  10163e:	50                   	push   %eax
  10163f:	ff 75 08             	pushl  0x8(%ebp)
  101642:	e8 ef 00 00 00       	call   101736 <iget>
  101647:	83 c4 10             	add    $0x10,%esp
  10164a:	eb 2d                	jmp    101679 <ialloc+0xdf>
/u/s/h/shirui/private/cs537/p3a/p3/xv6-sp20/kernel/fs.c:165 (discriminator 2)
  10164c:	83 ec 0c             	sub    $0xc,%esp
  10164f:	ff 75 f0             	pushl  -0x10(%ebp)
  101652:	e8 01 ec ff ff       	call   100258 <brelse>
  101657:	83 c4 10             	add    $0x10,%esp
/u/s/h/shirui/private/cs537/p3a/p3/xv6-sp20/kernel/fs.c:155 (discriminator 2)
  10165a:	83 45 f4 01          	addl   $0x1,-0xc(%ebp)
/u/s/h/shirui/private/cs537/p3a/p3/xv6-sp20/kernel/fs.c:155 (discriminator 1)
  10165e:	8b 55 e8             	mov    -0x18(%ebp),%edx
  101661:	8b 45 f4             	mov    -0xc(%ebp),%eax
  101664:	39 c2                	cmp    %eax,%edx
  101666:	0f 87 5a ff ff ff    	ja     1015c6 <ialloc+0x2c>
/u/s/h/shirui/private/cs537/p3a/p3/xv6-sp20/kernel/fs.c:167
  10166c:	83 ec 0c             	sub    $0xc,%esp
  10166f:	68 c4 7f 10 00       	push   $0x107fc4
  101674:	e8 ff ee ff ff       	call   100578 <panic>
/u/s/h/shirui/private/cs537/p3a/p3/xv6-sp20/kernel/fs.c:168
  101679:	c9                   	leave  
  10167a:	c3                   	ret    

0010167b <iupdate>:
iupdate():
/u/s/h/shirui/private/cs537/p3a/p3/xv6-sp20/kernel/fs.c:173
  10167b:	55                   	push   %ebp
  10167c:	89 e5                	mov    %esp,%ebp
  10167e:	83 ec 18             	sub    $0x18,%esp
/u/s/h/shirui/private/cs537/p3a/p3/xv6-sp20/kernel/fs.c:177
  101681:	8b 45 08             	mov    0x8(%ebp),%eax
  101684:	8b 40 04             	mov    0x4(%eax),%eax
  101687:	c1 e8 03             	shr    $0x3,%eax
  10168a:	8d 50 02             	lea    0x2(%eax),%edx
  10168d:	8b 45 08             	mov    0x8(%ebp),%eax
  101690:	8b 00                	mov    (%eax),%eax
  101692:	83 ec 08             	sub    $0x8,%esp
  101695:	52                   	push   %edx
  101696:	50                   	push   %eax
  101697:	e8 44 eb ff ff       	call   1001e0 <bread>
  10169c:	83 c4 10             	add    $0x10,%esp
  10169f:	89 45 f4             	mov    %eax,-0xc(%ebp)
/u/s/h/shirui/private/cs537/p3a/p3/xv6-sp20/kernel/fs.c:178
  1016a2:	8b 45 f4             	mov    -0xc(%ebp),%eax
  1016a5:	8d 50 18             	lea    0x18(%eax),%edx
  1016a8:	8b 45 08             	mov    0x8(%ebp),%eax
  1016ab:	8b 40 04             	mov    0x4(%eax),%eax
  1016ae:	83 e0 07             	and    $0x7,%eax
  1016b1:	c1 e0 06             	shl    $0x6,%eax
  1016b4:	01 d0                	add    %edx,%eax
  1016b6:	89 45 f0             	mov    %eax,-0x10(%ebp)
/u/s/h/shirui/private/cs537/p3a/p3/xv6-sp20/kernel/fs.c:179
  1016b9:	8b 45 08             	mov    0x8(%ebp),%eax
  1016bc:	0f b7 50 10          	movzwl 0x10(%eax),%edx
  1016c0:	8b 45 f0             	mov    -0x10(%ebp),%eax
  1016c3:	66 89 10             	mov    %dx,(%eax)
/u/s/h/shirui/private/cs537/p3a/p3/xv6-sp20/kernel/fs.c:180
  1016c6:	8b 45 08             	mov    0x8(%ebp),%eax
  1016c9:	0f b7 50 12          	movzwl 0x12(%eax),%edx
  1016cd:	8b 45 f0             	mov    -0x10(%ebp),%eax
  1016d0:	66 89 50 02          	mov    %dx,0x2(%eax)
/u/s/h/shirui/private/cs537/p3a/p3/xv6-sp20/kernel/fs.c:181
  1016d4:	8b 45 08             	mov    0x8(%ebp),%eax
  1016d7:	0f b7 50 14          	movzwl 0x14(%eax),%edx
  1016db:	8b 45 f0             	mov    -0x10(%ebp),%eax
  1016de:	66 89 50 04          	mov    %dx,0x4(%eax)
/u/s/h/shirui/private/cs537/p3a/p3/xv6-sp20/kernel/fs.c:182
  1016e2:	8b 45 08             	mov    0x8(%ebp),%eax
  1016e5:	0f b7 50 16          	movzwl 0x16(%eax),%edx
  1016e9:	8b 45 f0             	mov    -0x10(%ebp),%eax
  1016ec:	66 89 50 06          	mov    %dx,0x6(%eax)
/u/s/h/shirui/private/cs537/p3a/p3/xv6-sp20/kernel/fs.c:183
  1016f0:	8b 45 08             	mov    0x8(%ebp),%eax
  1016f3:	8b 50 18             	mov    0x18(%eax),%edx
  1016f6:	8b 45 f0             	mov    -0x10(%ebp),%eax
  1016f9:	89 50 08             	mov    %edx,0x8(%eax)
/u/s/h/shirui/private/cs537/p3a/p3/xv6-sp20/kernel/fs.c:184
  1016fc:	8b 45 08             	mov    0x8(%ebp),%eax
  1016ff:	8d 50 1c             	lea    0x1c(%eax),%edx
  101702:	8b 45 f0             	mov    -0x10(%ebp),%eax
  101705:	83 c0 0c             	add    $0xc,%eax
  101708:	83 ec 04             	sub    $0x4,%esp
  10170b:	6a 34                	push   $0x34
  10170d:	52                   	push   %edx
  10170e:	50                   	push   %eax
  10170f:	e8 1b 34 00 00       	call   104b2f <memmove>
  101714:	83 c4 10             	add    $0x10,%esp
/u/s/h/shirui/private/cs537/p3a/p3/xv6-sp20/kernel/fs.c:185
  101717:	83 ec 0c             	sub    $0xc,%esp
  10171a:	ff 75 f4             	pushl  -0xc(%ebp)
  10171d:	e8 f7 ea ff ff       	call   100219 <bwrite>
  101722:	83 c4 10             	add    $0x10,%esp
/u/s/h/shirui/private/cs537/p3a/p3/xv6-sp20/kernel/fs.c:186
  101725:	83 ec 0c             	sub    $0xc,%esp
  101728:	ff 75 f4             	pushl  -0xc(%ebp)
  10172b:	e8 28 eb ff ff       	call   100258 <brelse>
  101730:	83 c4 10             	add    $0x10,%esp
/u/s/h/shirui/private/cs537/p3a/p3/xv6-sp20/kernel/fs.c:187
  101733:	90                   	nop
  101734:	c9                   	leave  
  101735:	c3                   	ret    

00101736 <iget>:
iget():
/u/s/h/shirui/private/cs537/p3a/p3/xv6-sp20/kernel/fs.c:193
  101736:	55                   	push   %ebp
  101737:	89 e5                	mov    %esp,%ebp
  101739:	83 ec 18             	sub    $0x18,%esp
/u/s/h/shirui/private/cs537/p3a/p3/xv6-sp20/kernel/fs.c:196
  10173c:	83 ec 0c             	sub    $0xc,%esp
  10173f:	68 80 ed 10 00       	push   $0x10ed80
  101744:	e8 37 31 00 00       	call   104880 <acquire>
  101749:	83 c4 10             	add    $0x10,%esp
/u/s/h/shirui/private/cs537/p3a/p3/xv6-sp20/kernel/fs.c:199
  10174c:	c7 45 f0 00 00 00 00 	movl   $0x0,-0x10(%ebp)
/u/s/h/shirui/private/cs537/p3a/p3/xv6-sp20/kernel/fs.c:200
  101753:	c7 45 f4 b4 ed 10 00 	movl   $0x10edb4,-0xc(%ebp)
  10175a:	eb 5d                	jmp    1017b9 <iget+0x83>
/u/s/h/shirui/private/cs537/p3a/p3/xv6-sp20/kernel/fs.c:201
  10175c:	8b 45 f4             	mov    -0xc(%ebp),%eax
  10175f:	8b 40 08             	mov    0x8(%eax),%eax
  101762:	85 c0                	test   %eax,%eax
  101764:	7e 39                	jle    10179f <iget+0x69>
/u/s/h/shirui/private/cs537/p3a/p3/xv6-sp20/kernel/fs.c:201 (discriminator 1)
  101766:	8b 45 f4             	mov    -0xc(%ebp),%eax
  101769:	8b 00                	mov    (%eax),%eax
  10176b:	39 45 08             	cmp    %eax,0x8(%ebp)
  10176e:	75 2f                	jne    10179f <iget+0x69>
/u/s/h/shirui/private/cs537/p3a/p3/xv6-sp20/kernel/fs.c:201 (discriminator 2)
  101770:	8b 45 f4             	mov    -0xc(%ebp),%eax
  101773:	8b 40 04             	mov    0x4(%eax),%eax
  101776:	39 45 0c             	cmp    %eax,0xc(%ebp)
  101779:	75 24                	jne    10179f <iget+0x69>
/u/s/h/shirui/private/cs537/p3a/p3/xv6-sp20/kernel/fs.c:202
  10177b:	8b 45 f4             	mov    -0xc(%ebp),%eax
  10177e:	8b 40 08             	mov    0x8(%eax),%eax
  101781:	8d 50 01             	lea    0x1(%eax),%edx
  101784:	8b 45 f4             	mov    -0xc(%ebp),%eax
  101787:	89 50 08             	mov    %edx,0x8(%eax)
/u/s/h/shirui/private/cs537/p3a/p3/xv6-sp20/kernel/fs.c:203
  10178a:	83 ec 0c             	sub    $0xc,%esp
  10178d:	68 80 ed 10 00       	push   $0x10ed80
  101792:	e8 50 31 00 00       	call   1048e7 <release>
  101797:	83 c4 10             	add    $0x10,%esp
/u/s/h/shirui/private/cs537/p3a/p3/xv6-sp20/kernel/fs.c:204
  10179a:	8b 45 f4             	mov    -0xc(%ebp),%eax
  10179d:	eb 74                	jmp    101813 <iget+0xdd>
/u/s/h/shirui/private/cs537/p3a/p3/xv6-sp20/kernel/fs.c:206
  10179f:	83 7d f0 00          	cmpl   $0x0,-0x10(%ebp)
  1017a3:	75 10                	jne    1017b5 <iget+0x7f>
/u/s/h/shirui/private/cs537/p3a/p3/xv6-sp20/kernel/fs.c:206 (discriminator 1)
  1017a5:	8b 45 f4             	mov    -0xc(%ebp),%eax
  1017a8:	8b 40 08             	mov    0x8(%eax),%eax
  1017ab:	85 c0                	test   %eax,%eax
  1017ad:	75 06                	jne    1017b5 <iget+0x7f>
/u/s/h/shirui/private/cs537/p3a/p3/xv6-sp20/kernel/fs.c:207
  1017af:	8b 45 f4             	mov    -0xc(%ebp),%eax
  1017b2:	89 45 f0             	mov    %eax,-0x10(%ebp)
/u/s/h/shirui/private/cs537/p3a/p3/xv6-sp20/kernel/fs.c:200 (discriminator 2)
  1017b5:	83 45 f4 50          	addl   $0x50,-0xc(%ebp)
/u/s/h/shirui/private/cs537/p3a/p3/xv6-sp20/kernel/fs.c:200 (discriminator 1)
  1017b9:	81 7d f4 54 fd 10 00 	cmpl   $0x10fd54,-0xc(%ebp)
  1017c0:	72 9a                	jb     10175c <iget+0x26>
/u/s/h/shirui/private/cs537/p3a/p3/xv6-sp20/kernel/fs.c:211
  1017c2:	83 7d f0 00          	cmpl   $0x0,-0x10(%ebp)
  1017c6:	75 0d                	jne    1017d5 <iget+0x9f>
/u/s/h/shirui/private/cs537/p3a/p3/xv6-sp20/kernel/fs.c:212
  1017c8:	83 ec 0c             	sub    $0xc,%esp
  1017cb:	68 d6 7f 10 00       	push   $0x107fd6
  1017d0:	e8 a3 ed ff ff       	call   100578 <panic>
/u/s/h/shirui/private/cs537/p3a/p3/xv6-sp20/kernel/fs.c:214
  1017d5:	8b 45 f0             	mov    -0x10(%ebp),%eax
  1017d8:	89 45 f4             	mov    %eax,-0xc(%ebp)
/u/s/h/shirui/private/cs537/p3a/p3/xv6-sp20/kernel/fs.c:215
  1017db:	8b 45 f4             	mov    -0xc(%ebp),%eax
  1017de:	8b 55 08             	mov    0x8(%ebp),%edx
  1017e1:	89 10                	mov    %edx,(%eax)
/u/s/h/shirui/private/cs537/p3a/p3/xv6-sp20/kernel/fs.c:216
  1017e3:	8b 45 f4             	mov    -0xc(%ebp),%eax
  1017e6:	8b 55 0c             	mov    0xc(%ebp),%edx
  1017e9:	89 50 04             	mov    %edx,0x4(%eax)
/u/s/h/shirui/private/cs537/p3a/p3/xv6-sp20/kernel/fs.c:217
  1017ec:	8b 45 f4             	mov    -0xc(%ebp),%eax
  1017ef:	c7 40 08 01 00 00 00 	movl   $0x1,0x8(%eax)
/u/s/h/shirui/private/cs537/p3a/p3/xv6-sp20/kernel/fs.c:218
  1017f6:	8b 45 f4             	mov    -0xc(%ebp),%eax
  1017f9:	c7 40 0c 00 00 00 00 	movl   $0x0,0xc(%eax)
/u/s/h/shirui/private/cs537/p3a/p3/xv6-sp20/kernel/fs.c:219
  101800:	83 ec 0c             	sub    $0xc,%esp
  101803:	68 80 ed 10 00       	push   $0x10ed80
  101808:	e8 da 30 00 00       	call   1048e7 <release>
  10180d:	83 c4 10             	add    $0x10,%esp
/u/s/h/shirui/private/cs537/p3a/p3/xv6-sp20/kernel/fs.c:221
  101810:	8b 45 f4             	mov    -0xc(%ebp),%eax
/u/s/h/shirui/private/cs537/p3a/p3/xv6-sp20/kernel/fs.c:222
  101813:	c9                   	leave  
  101814:	c3                   	ret    

00101815 <idup>:
idup():
/u/s/h/shirui/private/cs537/p3a/p3/xv6-sp20/kernel/fs.c:228
  101815:	55                   	push   %ebp
  101816:	89 e5                	mov    %esp,%ebp
  101818:	83 ec 08             	sub    $0x8,%esp
/u/s/h/shirui/private/cs537/p3a/p3/xv6-sp20/kernel/fs.c:229
  10181b:	83 ec 0c             	sub    $0xc,%esp
  10181e:	68 80 ed 10 00       	push   $0x10ed80
  101823:	e8 58 30 00 00       	call   104880 <acquire>
  101828:	83 c4 10             	add    $0x10,%esp
/u/s/h/shirui/private/cs537/p3a/p3/xv6-sp20/kernel/fs.c:230
  10182b:	8b 45 08             	mov    0x8(%ebp),%eax
  10182e:	8b 40 08             	mov    0x8(%eax),%eax
  101831:	8d 50 01             	lea    0x1(%eax),%edx
  101834:	8b 45 08             	mov    0x8(%ebp),%eax
  101837:	89 50 08             	mov    %edx,0x8(%eax)
/u/s/h/shirui/private/cs537/p3a/p3/xv6-sp20/kernel/fs.c:231
  10183a:	83 ec 0c             	sub    $0xc,%esp
  10183d:	68 80 ed 10 00       	push   $0x10ed80
  101842:	e8 a0 30 00 00       	call   1048e7 <release>
  101847:	83 c4 10             	add    $0x10,%esp
/u/s/h/shirui/private/cs537/p3a/p3/xv6-sp20/kernel/fs.c:232
  10184a:	8b 45 08             	mov    0x8(%ebp),%eax
/u/s/h/shirui/private/cs537/p3a/p3/xv6-sp20/kernel/fs.c:233
  10184d:	c9                   	leave  
  10184e:	c3                   	ret    

0010184f <ilock>:
ilock():
/u/s/h/shirui/private/cs537/p3a/p3/xv6-sp20/kernel/fs.c:238
  10184f:	55                   	push   %ebp
  101850:	89 e5                	mov    %esp,%ebp
  101852:	83 ec 18             	sub    $0x18,%esp
/u/s/h/shirui/private/cs537/p3a/p3/xv6-sp20/kernel/fs.c:242
  101855:	83 7d 08 00          	cmpl   $0x0,0x8(%ebp)
  101859:	74 0a                	je     101865 <ilock+0x16>
/u/s/h/shirui/private/cs537/p3a/p3/xv6-sp20/kernel/fs.c:242 (discriminator 1)
  10185b:	8b 45 08             	mov    0x8(%ebp),%eax
  10185e:	8b 40 08             	mov    0x8(%eax),%eax
  101861:	85 c0                	test   %eax,%eax
  101863:	7f 0d                	jg     101872 <ilock+0x23>
/u/s/h/shirui/private/cs537/p3a/p3/xv6-sp20/kernel/fs.c:243
  101865:	83 ec 0c             	sub    $0xc,%esp
  101868:	68 e6 7f 10 00       	push   $0x107fe6
  10186d:	e8 06 ed ff ff       	call   100578 <panic>
/u/s/h/shirui/private/cs537/p3a/p3/xv6-sp20/kernel/fs.c:245
  101872:	83 ec 0c             	sub    $0xc,%esp
  101875:	68 80 ed 10 00       	push   $0x10ed80
  10187a:	e8 01 30 00 00       	call   104880 <acquire>
  10187f:	83 c4 10             	add    $0x10,%esp
/u/s/h/shirui/private/cs537/p3a/p3/xv6-sp20/kernel/fs.c:246
  101882:	eb 13                	jmp    101897 <ilock+0x48>
/u/s/h/shirui/private/cs537/p3a/p3/xv6-sp20/kernel/fs.c:247
  101884:	83 ec 08             	sub    $0x8,%esp
  101887:	68 80 ed 10 00       	push   $0x10ed80
  10188c:	ff 75 08             	pushl  0x8(%ebp)
  10188f:	e8 f3 2c 00 00       	call   104587 <sleep>
  101894:	83 c4 10             	add    $0x10,%esp
/u/s/h/shirui/private/cs537/p3a/p3/xv6-sp20/kernel/fs.c:246
  101897:	8b 45 08             	mov    0x8(%ebp),%eax
  10189a:	8b 40 0c             	mov    0xc(%eax),%eax
  10189d:	83 e0 01             	and    $0x1,%eax
  1018a0:	85 c0                	test   %eax,%eax
  1018a2:	75 e0                	jne    101884 <ilock+0x35>
/u/s/h/shirui/private/cs537/p3a/p3/xv6-sp20/kernel/fs.c:248
  1018a4:	8b 45 08             	mov    0x8(%ebp),%eax
  1018a7:	8b 40 0c             	mov    0xc(%eax),%eax
  1018aa:	83 c8 01             	or     $0x1,%eax
  1018ad:	89 c2                	mov    %eax,%edx
  1018af:	8b 45 08             	mov    0x8(%ebp),%eax
  1018b2:	89 50 0c             	mov    %edx,0xc(%eax)
/u/s/h/shirui/private/cs537/p3a/p3/xv6-sp20/kernel/fs.c:249
  1018b5:	83 ec 0c             	sub    $0xc,%esp
  1018b8:	68 80 ed 10 00       	push   $0x10ed80
  1018bd:	e8 25 30 00 00       	call   1048e7 <release>
  1018c2:	83 c4 10             	add    $0x10,%esp
/u/s/h/shirui/private/cs537/p3a/p3/xv6-sp20/kernel/fs.c:251
  1018c5:	8b 45 08             	mov    0x8(%ebp),%eax
  1018c8:	8b 40 0c             	mov    0xc(%eax),%eax
  1018cb:	83 e0 02             	and    $0x2,%eax
  1018ce:	85 c0                	test   %eax,%eax
  1018d0:	0f 85 ce 00 00 00    	jne    1019a4 <ilock+0x155>
/u/s/h/shirui/private/cs537/p3a/p3/xv6-sp20/kernel/fs.c:252
  1018d6:	8b 45 08             	mov    0x8(%ebp),%eax
  1018d9:	8b 40 04             	mov    0x4(%eax),%eax
  1018dc:	c1 e8 03             	shr    $0x3,%eax
  1018df:	8d 50 02             	lea    0x2(%eax),%edx
  1018e2:	8b 45 08             	mov    0x8(%ebp),%eax
  1018e5:	8b 00                	mov    (%eax),%eax
  1018e7:	83 ec 08             	sub    $0x8,%esp
  1018ea:	52                   	push   %edx
  1018eb:	50                   	push   %eax
  1018ec:	e8 ef e8 ff ff       	call   1001e0 <bread>
  1018f1:	83 c4 10             	add    $0x10,%esp
  1018f4:	89 45 f4             	mov    %eax,-0xc(%ebp)
/u/s/h/shirui/private/cs537/p3a/p3/xv6-sp20/kernel/fs.c:253
  1018f7:	8b 45 f4             	mov    -0xc(%ebp),%eax
  1018fa:	8d 50 18             	lea    0x18(%eax),%edx
  1018fd:	8b 45 08             	mov    0x8(%ebp),%eax
  101900:	8b 40 04             	mov    0x4(%eax),%eax
  101903:	83 e0 07             	and    $0x7,%eax
  101906:	c1 e0 06             	shl    $0x6,%eax
  101909:	01 d0                	add    %edx,%eax
  10190b:	89 45 f0             	mov    %eax,-0x10(%ebp)
/u/s/h/shirui/private/cs537/p3a/p3/xv6-sp20/kernel/fs.c:254
  10190e:	8b 45 f0             	mov    -0x10(%ebp),%eax
  101911:	0f b7 10             	movzwl (%eax),%edx
  101914:	8b 45 08             	mov    0x8(%ebp),%eax
  101917:	66 89 50 10          	mov    %dx,0x10(%eax)
/u/s/h/shirui/private/cs537/p3a/p3/xv6-sp20/kernel/fs.c:255
  10191b:	8b 45 f0             	mov    -0x10(%ebp),%eax
  10191e:	0f b7 50 02          	movzwl 0x2(%eax),%edx
  101922:	8b 45 08             	mov    0x8(%ebp),%eax
  101925:	66 89 50 12          	mov    %dx,0x12(%eax)
/u/s/h/shirui/private/cs537/p3a/p3/xv6-sp20/kernel/fs.c:256
  101929:	8b 45 f0             	mov    -0x10(%ebp),%eax
  10192c:	0f b7 50 04          	movzwl 0x4(%eax),%edx
  101930:	8b 45 08             	mov    0x8(%ebp),%eax
  101933:	66 89 50 14          	mov    %dx,0x14(%eax)
/u/s/h/shirui/private/cs537/p3a/p3/xv6-sp20/kernel/fs.c:257
  101937:	8b 45 f0             	mov    -0x10(%ebp),%eax
  10193a:	0f b7 50 06          	movzwl 0x6(%eax),%edx
  10193e:	8b 45 08             	mov    0x8(%ebp),%eax
  101941:	66 89 50 16          	mov    %dx,0x16(%eax)
/u/s/h/shirui/private/cs537/p3a/p3/xv6-sp20/kernel/fs.c:258
  101945:	8b 45 f0             	mov    -0x10(%ebp),%eax
  101948:	8b 50 08             	mov    0x8(%eax),%edx
  10194b:	8b 45 08             	mov    0x8(%ebp),%eax
  10194e:	89 50 18             	mov    %edx,0x18(%eax)
/u/s/h/shirui/private/cs537/p3a/p3/xv6-sp20/kernel/fs.c:259
  101951:	8b 45 f0             	mov    -0x10(%ebp),%eax
  101954:	8d 50 0c             	lea    0xc(%eax),%edx
  101957:	8b 45 08             	mov    0x8(%ebp),%eax
  10195a:	83 c0 1c             	add    $0x1c,%eax
  10195d:	83 ec 04             	sub    $0x4,%esp
  101960:	6a 34                	push   $0x34
  101962:	52                   	push   %edx
  101963:	50                   	push   %eax
  101964:	e8 c6 31 00 00       	call   104b2f <memmove>
  101969:	83 c4 10             	add    $0x10,%esp
/u/s/h/shirui/private/cs537/p3a/p3/xv6-sp20/kernel/fs.c:260
  10196c:	83 ec 0c             	sub    $0xc,%esp
  10196f:	ff 75 f4             	pushl  -0xc(%ebp)
  101972:	e8 e1 e8 ff ff       	call   100258 <brelse>
  101977:	83 c4 10             	add    $0x10,%esp
/u/s/h/shirui/private/cs537/p3a/p3/xv6-sp20/kernel/fs.c:261
  10197a:	8b 45 08             	mov    0x8(%ebp),%eax
  10197d:	8b 40 0c             	mov    0xc(%eax),%eax
  101980:	83 c8 02             	or     $0x2,%eax
  101983:	89 c2                	mov    %eax,%edx
  101985:	8b 45 08             	mov    0x8(%ebp),%eax
  101988:	89 50 0c             	mov    %edx,0xc(%eax)
/u/s/h/shirui/private/cs537/p3a/p3/xv6-sp20/kernel/fs.c:262
  10198b:	8b 45 08             	mov    0x8(%ebp),%eax
  10198e:	0f b7 40 10          	movzwl 0x10(%eax),%eax
  101992:	66 85 c0             	test   %ax,%ax
  101995:	75 0d                	jne    1019a4 <ilock+0x155>
/u/s/h/shirui/private/cs537/p3a/p3/xv6-sp20/kernel/fs.c:263
  101997:	83 ec 0c             	sub    $0xc,%esp
  10199a:	68 ec 7f 10 00       	push   $0x107fec
  10199f:	e8 d4 eb ff ff       	call   100578 <panic>
/u/s/h/shirui/private/cs537/p3a/p3/xv6-sp20/kernel/fs.c:265
  1019a4:	90                   	nop
  1019a5:	c9                   	leave  
  1019a6:	c3                   	ret    

001019a7 <iunlock>:
iunlock():
/u/s/h/shirui/private/cs537/p3a/p3/xv6-sp20/kernel/fs.c:270
  1019a7:	55                   	push   %ebp
  1019a8:	89 e5                	mov    %esp,%ebp
  1019aa:	83 ec 08             	sub    $0x8,%esp
/u/s/h/shirui/private/cs537/p3a/p3/xv6-sp20/kernel/fs.c:271
  1019ad:	83 7d 08 00          	cmpl   $0x0,0x8(%ebp)
  1019b1:	74 17                	je     1019ca <iunlock+0x23>
/u/s/h/shirui/private/cs537/p3a/p3/xv6-sp20/kernel/fs.c:271 (discriminator 1)
  1019b3:	8b 45 08             	mov    0x8(%ebp),%eax
  1019b6:	8b 40 0c             	mov    0xc(%eax),%eax
  1019b9:	83 e0 01             	and    $0x1,%eax
  1019bc:	85 c0                	test   %eax,%eax
  1019be:	74 0a                	je     1019ca <iunlock+0x23>
/u/s/h/shirui/private/cs537/p3a/p3/xv6-sp20/kernel/fs.c:271 (discriminator 2)
  1019c0:	8b 45 08             	mov    0x8(%ebp),%eax
  1019c3:	8b 40 08             	mov    0x8(%eax),%eax
  1019c6:	85 c0                	test   %eax,%eax
  1019c8:	7f 0d                	jg     1019d7 <iunlock+0x30>
/u/s/h/shirui/private/cs537/p3a/p3/xv6-sp20/kernel/fs.c:272
  1019ca:	83 ec 0c             	sub    $0xc,%esp
  1019cd:	68 fb 7f 10 00       	push   $0x107ffb
  1019d2:	e8 a1 eb ff ff       	call   100578 <panic>
/u/s/h/shirui/private/cs537/p3a/p3/xv6-sp20/kernel/fs.c:274
  1019d7:	83 ec 0c             	sub    $0xc,%esp
  1019da:	68 80 ed 10 00       	push   $0x10ed80
  1019df:	e8 9c 2e 00 00       	call   104880 <acquire>
  1019e4:	83 c4 10             	add    $0x10,%esp
/u/s/h/shirui/private/cs537/p3a/p3/xv6-sp20/kernel/fs.c:275
  1019e7:	8b 45 08             	mov    0x8(%ebp),%eax
  1019ea:	8b 40 0c             	mov    0xc(%eax),%eax
  1019ed:	83 e0 fe             	and    $0xfffffffe,%eax
  1019f0:	89 c2                	mov    %eax,%edx
  1019f2:	8b 45 08             	mov    0x8(%ebp),%eax
  1019f5:	89 50 0c             	mov    %edx,0xc(%eax)
/u/s/h/shirui/private/cs537/p3a/p3/xv6-sp20/kernel/fs.c:276
  1019f8:	83 ec 0c             	sub    $0xc,%esp
  1019fb:	ff 75 08             	pushl  0x8(%ebp)
  1019fe:	e8 6f 2c 00 00       	call   104672 <wakeup>
  101a03:	83 c4 10             	add    $0x10,%esp
/u/s/h/shirui/private/cs537/p3a/p3/xv6-sp20/kernel/fs.c:277
  101a06:	83 ec 0c             	sub    $0xc,%esp
  101a09:	68 80 ed 10 00       	push   $0x10ed80
  101a0e:	e8 d4 2e 00 00       	call   1048e7 <release>
  101a13:	83 c4 10             	add    $0x10,%esp
/u/s/h/shirui/private/cs537/p3a/p3/xv6-sp20/kernel/fs.c:278
  101a16:	90                   	nop
  101a17:	c9                   	leave  
  101a18:	c3                   	ret    

00101a19 <iput>:
iput():
/u/s/h/shirui/private/cs537/p3a/p3/xv6-sp20/kernel/fs.c:283
  101a19:	55                   	push   %ebp
  101a1a:	89 e5                	mov    %esp,%ebp
  101a1c:	83 ec 08             	sub    $0x8,%esp
/u/s/h/shirui/private/cs537/p3a/p3/xv6-sp20/kernel/fs.c:284
  101a1f:	83 ec 0c             	sub    $0xc,%esp
  101a22:	68 80 ed 10 00       	push   $0x10ed80
  101a27:	e8 54 2e 00 00       	call   104880 <acquire>
  101a2c:	83 c4 10             	add    $0x10,%esp
/u/s/h/shirui/private/cs537/p3a/p3/xv6-sp20/kernel/fs.c:285
  101a2f:	8b 45 08             	mov    0x8(%ebp),%eax
  101a32:	8b 40 08             	mov    0x8(%eax),%eax
  101a35:	83 f8 01             	cmp    $0x1,%eax
  101a38:	0f 85 a9 00 00 00    	jne    101ae7 <iput+0xce>
/u/s/h/shirui/private/cs537/p3a/p3/xv6-sp20/kernel/fs.c:285 (discriminator 1)
  101a3e:	8b 45 08             	mov    0x8(%ebp),%eax
  101a41:	8b 40 0c             	mov    0xc(%eax),%eax
  101a44:	83 e0 02             	and    $0x2,%eax
  101a47:	85 c0                	test   %eax,%eax
  101a49:	0f 84 98 00 00 00    	je     101ae7 <iput+0xce>
/u/s/h/shirui/private/cs537/p3a/p3/xv6-sp20/kernel/fs.c:285 (discriminator 2)
  101a4f:	8b 45 08             	mov    0x8(%ebp),%eax
  101a52:	0f b7 40 16          	movzwl 0x16(%eax),%eax
  101a56:	66 85 c0             	test   %ax,%ax
  101a59:	0f 85 88 00 00 00    	jne    101ae7 <iput+0xce>
/u/s/h/shirui/private/cs537/p3a/p3/xv6-sp20/kernel/fs.c:287
  101a5f:	8b 45 08             	mov    0x8(%ebp),%eax
  101a62:	8b 40 0c             	mov    0xc(%eax),%eax
  101a65:	83 e0 01             	and    $0x1,%eax
  101a68:	85 c0                	test   %eax,%eax
  101a6a:	74 0d                	je     101a79 <iput+0x60>
/u/s/h/shirui/private/cs537/p3a/p3/xv6-sp20/kernel/fs.c:288
  101a6c:	83 ec 0c             	sub    $0xc,%esp
  101a6f:	68 03 80 10 00       	push   $0x108003
  101a74:	e8 ff ea ff ff       	call   100578 <panic>
/u/s/h/shirui/private/cs537/p3a/p3/xv6-sp20/kernel/fs.c:289
  101a79:	8b 45 08             	mov    0x8(%ebp),%eax
  101a7c:	8b 40 0c             	mov    0xc(%eax),%eax
  101a7f:	83 c8 01             	or     $0x1,%eax
  101a82:	89 c2                	mov    %eax,%edx
  101a84:	8b 45 08             	mov    0x8(%ebp),%eax
  101a87:	89 50 0c             	mov    %edx,0xc(%eax)
/u/s/h/shirui/private/cs537/p3a/p3/xv6-sp20/kernel/fs.c:290
  101a8a:	83 ec 0c             	sub    $0xc,%esp
  101a8d:	68 80 ed 10 00       	push   $0x10ed80
  101a92:	e8 50 2e 00 00       	call   1048e7 <release>
  101a97:	83 c4 10             	add    $0x10,%esp
/u/s/h/shirui/private/cs537/p3a/p3/xv6-sp20/kernel/fs.c:291
  101a9a:	83 ec 0c             	sub    $0xc,%esp
  101a9d:	ff 75 08             	pushl  0x8(%ebp)
  101aa0:	e8 a3 01 00 00       	call   101c48 <itrunc>
  101aa5:	83 c4 10             	add    $0x10,%esp
/u/s/h/shirui/private/cs537/p3a/p3/xv6-sp20/kernel/fs.c:292
  101aa8:	8b 45 08             	mov    0x8(%ebp),%eax
  101aab:	66 c7 40 10 00 00    	movw   $0x0,0x10(%eax)
/u/s/h/shirui/private/cs537/p3a/p3/xv6-sp20/kernel/fs.c:293
  101ab1:	83 ec 0c             	sub    $0xc,%esp
  101ab4:	ff 75 08             	pushl  0x8(%ebp)
  101ab7:	e8 bf fb ff ff       	call   10167b <iupdate>
  101abc:	83 c4 10             	add    $0x10,%esp
/u/s/h/shirui/private/cs537/p3a/p3/xv6-sp20/kernel/fs.c:294
  101abf:	83 ec 0c             	sub    $0xc,%esp
  101ac2:	68 80 ed 10 00       	push   $0x10ed80
  101ac7:	e8 b4 2d 00 00       	call   104880 <acquire>
  101acc:	83 c4 10             	add    $0x10,%esp
/u/s/h/shirui/private/cs537/p3a/p3/xv6-sp20/kernel/fs.c:295
  101acf:	8b 45 08             	mov    0x8(%ebp),%eax
  101ad2:	c7 40 0c 00 00 00 00 	movl   $0x0,0xc(%eax)
/u/s/h/shirui/private/cs537/p3a/p3/xv6-sp20/kernel/fs.c:296
  101ad9:	83 ec 0c             	sub    $0xc,%esp
  101adc:	ff 75 08             	pushl  0x8(%ebp)
  101adf:	e8 8e 2b 00 00       	call   104672 <wakeup>
  101ae4:	83 c4 10             	add    $0x10,%esp
/u/s/h/shirui/private/cs537/p3a/p3/xv6-sp20/kernel/fs.c:298
  101ae7:	8b 45 08             	mov    0x8(%ebp),%eax
  101aea:	8b 40 08             	mov    0x8(%eax),%eax
  101aed:	8d 50 ff             	lea    -0x1(%eax),%edx
  101af0:	8b 45 08             	mov    0x8(%ebp),%eax
  101af3:	89 50 08             	mov    %edx,0x8(%eax)
/u/s/h/shirui/private/cs537/p3a/p3/xv6-sp20/kernel/fs.c:299
  101af6:	83 ec 0c             	sub    $0xc,%esp
  101af9:	68 80 ed 10 00       	push   $0x10ed80
  101afe:	e8 e4 2d 00 00       	call   1048e7 <release>
  101b03:	83 c4 10             	add    $0x10,%esp
/u/s/h/shirui/private/cs537/p3a/p3/xv6-sp20/kernel/fs.c:300
  101b06:	90                   	nop
  101b07:	c9                   	leave  
  101b08:	c3                   	ret    

00101b09 <iunlockput>:
iunlockput():
/u/s/h/shirui/private/cs537/p3a/p3/xv6-sp20/kernel/fs.c:305
  101b09:	55                   	push   %ebp
  101b0a:	89 e5                	mov    %esp,%ebp
  101b0c:	83 ec 08             	sub    $0x8,%esp
/u/s/h/shirui/private/cs537/p3a/p3/xv6-sp20/kernel/fs.c:306
  101b0f:	83 ec 0c             	sub    $0xc,%esp
  101b12:	ff 75 08             	pushl  0x8(%ebp)
  101b15:	e8 8d fe ff ff       	call   1019a7 <iunlock>
  101b1a:	83 c4 10             	add    $0x10,%esp
/u/s/h/shirui/private/cs537/p3a/p3/xv6-sp20/kernel/fs.c:307
  101b1d:	83 ec 0c             	sub    $0xc,%esp
  101b20:	ff 75 08             	pushl  0x8(%ebp)
  101b23:	e8 f1 fe ff ff       	call   101a19 <iput>
  101b28:	83 c4 10             	add    $0x10,%esp
/u/s/h/shirui/private/cs537/p3a/p3/xv6-sp20/kernel/fs.c:308
  101b2b:	90                   	nop
  101b2c:	c9                   	leave  
  101b2d:	c3                   	ret    

00101b2e <bmap>:
bmap():
/u/s/h/shirui/private/cs537/p3a/p3/xv6-sp20/kernel/fs.c:321
  101b2e:	55                   	push   %ebp
  101b2f:	89 e5                	mov    %esp,%ebp
  101b31:	83 ec 18             	sub    $0x18,%esp
/u/s/h/shirui/private/cs537/p3a/p3/xv6-sp20/kernel/fs.c:325
  101b34:	83 7d 0c 0b          	cmpl   $0xb,0xc(%ebp)
  101b38:	77 42                	ja     101b7c <bmap+0x4e>
/u/s/h/shirui/private/cs537/p3a/p3/xv6-sp20/kernel/fs.c:326
  101b3a:	8b 45 08             	mov    0x8(%ebp),%eax
  101b3d:	8b 55 0c             	mov    0xc(%ebp),%edx
  101b40:	83 c2 04             	add    $0x4,%edx
  101b43:	8b 44 90 0c          	mov    0xc(%eax,%edx,4),%eax
  101b47:	89 45 f4             	mov    %eax,-0xc(%ebp)
  101b4a:	83 7d f4 00          	cmpl   $0x0,-0xc(%ebp)
  101b4e:	75 24                	jne    101b74 <bmap+0x46>
/u/s/h/shirui/private/cs537/p3a/p3/xv6-sp20/kernel/fs.c:327
  101b50:	8b 45 08             	mov    0x8(%ebp),%eax
  101b53:	8b 00                	mov    (%eax),%eax
  101b55:	83 ec 0c             	sub    $0xc,%esp
  101b58:	50                   	push   %eax
  101b59:	e8 fc f7 ff ff       	call   10135a <balloc>
  101b5e:	83 c4 10             	add    $0x10,%esp
  101b61:	89 45 f4             	mov    %eax,-0xc(%ebp)
  101b64:	8b 45 08             	mov    0x8(%ebp),%eax
  101b67:	8b 55 0c             	mov    0xc(%ebp),%edx
  101b6a:	8d 4a 04             	lea    0x4(%edx),%ecx
  101b6d:	8b 55 f4             	mov    -0xc(%ebp),%edx
  101b70:	89 54 88 0c          	mov    %edx,0xc(%eax,%ecx,4)
/u/s/h/shirui/private/cs537/p3a/p3/xv6-sp20/kernel/fs.c:328
  101b74:	8b 45 f4             	mov    -0xc(%ebp),%eax
  101b77:	e9 ca 00 00 00       	jmp    101c46 <bmap+0x118>
/u/s/h/shirui/private/cs537/p3a/p3/xv6-sp20/kernel/fs.c:330
  101b7c:	83 6d 0c 0c          	subl   $0xc,0xc(%ebp)
/u/s/h/shirui/private/cs537/p3a/p3/xv6-sp20/kernel/fs.c:332
  101b80:	83 7d 0c 7f          	cmpl   $0x7f,0xc(%ebp)
  101b84:	0f 87 af 00 00 00    	ja     101c39 <bmap+0x10b>
/u/s/h/shirui/private/cs537/p3a/p3/xv6-sp20/kernel/fs.c:334
  101b8a:	8b 45 08             	mov    0x8(%ebp),%eax
  101b8d:	8b 40 4c             	mov    0x4c(%eax),%eax
  101b90:	89 45 f4             	mov    %eax,-0xc(%ebp)
  101b93:	83 7d f4 00          	cmpl   $0x0,-0xc(%ebp)
  101b97:	75 1d                	jne    101bb6 <bmap+0x88>
/u/s/h/shirui/private/cs537/p3a/p3/xv6-sp20/kernel/fs.c:335
  101b99:	8b 45 08             	mov    0x8(%ebp),%eax
  101b9c:	8b 00                	mov    (%eax),%eax
  101b9e:	83 ec 0c             	sub    $0xc,%esp
  101ba1:	50                   	push   %eax
  101ba2:	e8 b3 f7 ff ff       	call   10135a <balloc>
  101ba7:	83 c4 10             	add    $0x10,%esp
  101baa:	89 45 f4             	mov    %eax,-0xc(%ebp)
  101bad:	8b 45 08             	mov    0x8(%ebp),%eax
  101bb0:	8b 55 f4             	mov    -0xc(%ebp),%edx
  101bb3:	89 50 4c             	mov    %edx,0x4c(%eax)
/u/s/h/shirui/private/cs537/p3a/p3/xv6-sp20/kernel/fs.c:336
  101bb6:	8b 45 08             	mov    0x8(%ebp),%eax
  101bb9:	8b 00                	mov    (%eax),%eax
  101bbb:	83 ec 08             	sub    $0x8,%esp
  101bbe:	ff 75 f4             	pushl  -0xc(%ebp)
  101bc1:	50                   	push   %eax
  101bc2:	e8 19 e6 ff ff       	call   1001e0 <bread>
  101bc7:	83 c4 10             	add    $0x10,%esp
  101bca:	89 45 f0             	mov    %eax,-0x10(%ebp)
/u/s/h/shirui/private/cs537/p3a/p3/xv6-sp20/kernel/fs.c:337
  101bcd:	8b 45 f0             	mov    -0x10(%ebp),%eax
  101bd0:	83 c0 18             	add    $0x18,%eax
  101bd3:	89 45 ec             	mov    %eax,-0x14(%ebp)
/u/s/h/shirui/private/cs537/p3a/p3/xv6-sp20/kernel/fs.c:338
  101bd6:	8b 45 0c             	mov    0xc(%ebp),%eax
  101bd9:	8d 14 85 00 00 00 00 	lea    0x0(,%eax,4),%edx
  101be0:	8b 45 ec             	mov    -0x14(%ebp),%eax
  101be3:	01 d0                	add    %edx,%eax
  101be5:	8b 00                	mov    (%eax),%eax
  101be7:	89 45 f4             	mov    %eax,-0xc(%ebp)
  101bea:	83 7d f4 00          	cmpl   $0x0,-0xc(%ebp)
  101bee:	75 36                	jne    101c26 <bmap+0xf8>
/u/s/h/shirui/private/cs537/p3a/p3/xv6-sp20/kernel/fs.c:339
  101bf0:	8b 45 08             	mov    0x8(%ebp),%eax
  101bf3:	8b 00                	mov    (%eax),%eax
  101bf5:	83 ec 0c             	sub    $0xc,%esp
  101bf8:	50                   	push   %eax
  101bf9:	e8 5c f7 ff ff       	call   10135a <balloc>
  101bfe:	83 c4 10             	add    $0x10,%esp
  101c01:	89 45 f4             	mov    %eax,-0xc(%ebp)
  101c04:	8b 45 0c             	mov    0xc(%ebp),%eax
  101c07:	8d 14 85 00 00 00 00 	lea    0x0(,%eax,4),%edx
  101c0e:	8b 45 ec             	mov    -0x14(%ebp),%eax
  101c11:	01 c2                	add    %eax,%edx
  101c13:	8b 45 f4             	mov    -0xc(%ebp),%eax
  101c16:	89 02                	mov    %eax,(%edx)
/u/s/h/shirui/private/cs537/p3a/p3/xv6-sp20/kernel/fs.c:340
  101c18:	83 ec 0c             	sub    $0xc,%esp
  101c1b:	ff 75 f0             	pushl  -0x10(%ebp)
  101c1e:	e8 f6 e5 ff ff       	call   100219 <bwrite>
  101c23:	83 c4 10             	add    $0x10,%esp
/u/s/h/shirui/private/cs537/p3a/p3/xv6-sp20/kernel/fs.c:342
  101c26:	83 ec 0c             	sub    $0xc,%esp
  101c29:	ff 75 f0             	pushl  -0x10(%ebp)
  101c2c:	e8 27 e6 ff ff       	call   100258 <brelse>
  101c31:	83 c4 10             	add    $0x10,%esp
/u/s/h/shirui/private/cs537/p3a/p3/xv6-sp20/kernel/fs.c:343
  101c34:	8b 45 f4             	mov    -0xc(%ebp),%eax
  101c37:	eb 0d                	jmp    101c46 <bmap+0x118>
/u/s/h/shirui/private/cs537/p3a/p3/xv6-sp20/kernel/fs.c:346
  101c39:	83 ec 0c             	sub    $0xc,%esp
  101c3c:	68 0d 80 10 00       	push   $0x10800d
  101c41:	e8 32 e9 ff ff       	call   100578 <panic>
/u/s/h/shirui/private/cs537/p3a/p3/xv6-sp20/kernel/fs.c:347
  101c46:	c9                   	leave  
  101c47:	c3                   	ret    

00101c48 <itrunc>:
itrunc():
/u/s/h/shirui/private/cs537/p3a/p3/xv6-sp20/kernel/fs.c:354
  101c48:	55                   	push   %ebp
  101c49:	89 e5                	mov    %esp,%ebp
  101c4b:	83 ec 18             	sub    $0x18,%esp
/u/s/h/shirui/private/cs537/p3a/p3/xv6-sp20/kernel/fs.c:359
  101c4e:	c7 45 f4 00 00 00 00 	movl   $0x0,-0xc(%ebp)
  101c55:	eb 45                	jmp    101c9c <itrunc+0x54>
/u/s/h/shirui/private/cs537/p3a/p3/xv6-sp20/kernel/fs.c:360
  101c57:	8b 45 08             	mov    0x8(%ebp),%eax
  101c5a:	8b 55 f4             	mov    -0xc(%ebp),%edx
  101c5d:	83 c2 04             	add    $0x4,%edx
  101c60:	8b 44 90 0c          	mov    0xc(%eax,%edx,4),%eax
  101c64:	85 c0                	test   %eax,%eax
  101c66:	74 30                	je     101c98 <itrunc+0x50>
/u/s/h/shirui/private/cs537/p3a/p3/xv6-sp20/kernel/fs.c:361
  101c68:	8b 45 08             	mov    0x8(%ebp),%eax
  101c6b:	8b 55 f4             	mov    -0xc(%ebp),%edx
  101c6e:	83 c2 04             	add    $0x4,%edx
  101c71:	8b 44 90 0c          	mov    0xc(%eax,%edx,4),%eax
  101c75:	8b 55 08             	mov    0x8(%ebp),%edx
  101c78:	8b 12                	mov    (%edx),%edx
  101c7a:	83 ec 08             	sub    $0x8,%esp
  101c7d:	50                   	push   %eax
  101c7e:	52                   	push   %edx
  101c7f:	e8 0b f8 ff ff       	call   10148f <bfree>
  101c84:	83 c4 10             	add    $0x10,%esp
/u/s/h/shirui/private/cs537/p3a/p3/xv6-sp20/kernel/fs.c:362
  101c87:	8b 45 08             	mov    0x8(%ebp),%eax
  101c8a:	8b 55 f4             	mov    -0xc(%ebp),%edx
  101c8d:	83 c2 04             	add    $0x4,%edx
  101c90:	c7 44 90 0c 00 00 00 	movl   $0x0,0xc(%eax,%edx,4)
  101c97:	00 
/u/s/h/shirui/private/cs537/p3a/p3/xv6-sp20/kernel/fs.c:359 (discriminator 2)
  101c98:	83 45 f4 01          	addl   $0x1,-0xc(%ebp)
/u/s/h/shirui/private/cs537/p3a/p3/xv6-sp20/kernel/fs.c:359 (discriminator 1)
  101c9c:	83 7d f4 0b          	cmpl   $0xb,-0xc(%ebp)
  101ca0:	7e b5                	jle    101c57 <itrunc+0xf>
/u/s/h/shirui/private/cs537/p3a/p3/xv6-sp20/kernel/fs.c:366
  101ca2:	8b 45 08             	mov    0x8(%ebp),%eax
  101ca5:	8b 40 4c             	mov    0x4c(%eax),%eax
  101ca8:	85 c0                	test   %eax,%eax
  101caa:	0f 84 a1 00 00 00    	je     101d51 <itrunc+0x109>
/u/s/h/shirui/private/cs537/p3a/p3/xv6-sp20/kernel/fs.c:367
  101cb0:	8b 45 08             	mov    0x8(%ebp),%eax
  101cb3:	8b 50 4c             	mov    0x4c(%eax),%edx
  101cb6:	8b 45 08             	mov    0x8(%ebp),%eax
  101cb9:	8b 00                	mov    (%eax),%eax
  101cbb:	83 ec 08             	sub    $0x8,%esp
  101cbe:	52                   	push   %edx
  101cbf:	50                   	push   %eax
  101cc0:	e8 1b e5 ff ff       	call   1001e0 <bread>
  101cc5:	83 c4 10             	add    $0x10,%esp
  101cc8:	89 45 ec             	mov    %eax,-0x14(%ebp)
/u/s/h/shirui/private/cs537/p3a/p3/xv6-sp20/kernel/fs.c:368
  101ccb:	8b 45 ec             	mov    -0x14(%ebp),%eax
  101cce:	83 c0 18             	add    $0x18,%eax
  101cd1:	89 45 e8             	mov    %eax,-0x18(%ebp)
/u/s/h/shirui/private/cs537/p3a/p3/xv6-sp20/kernel/fs.c:369
  101cd4:	c7 45 f0 00 00 00 00 	movl   $0x0,-0x10(%ebp)
  101cdb:	eb 3c                	jmp    101d19 <itrunc+0xd1>
/u/s/h/shirui/private/cs537/p3a/p3/xv6-sp20/kernel/fs.c:370
  101cdd:	8b 45 f0             	mov    -0x10(%ebp),%eax
  101ce0:	8d 14 85 00 00 00 00 	lea    0x0(,%eax,4),%edx
  101ce7:	8b 45 e8             	mov    -0x18(%ebp),%eax
  101cea:	01 d0                	add    %edx,%eax
  101cec:	8b 00                	mov    (%eax),%eax
  101cee:	85 c0                	test   %eax,%eax
  101cf0:	74 23                	je     101d15 <itrunc+0xcd>
/u/s/h/shirui/private/cs537/p3a/p3/xv6-sp20/kernel/fs.c:371
  101cf2:	8b 45 f0             	mov    -0x10(%ebp),%eax
  101cf5:	8d 14 85 00 00 00 00 	lea    0x0(,%eax,4),%edx
  101cfc:	8b 45 e8             	mov    -0x18(%ebp),%eax
  101cff:	01 d0                	add    %edx,%eax
  101d01:	8b 00                	mov    (%eax),%eax
  101d03:	8b 55 08             	mov    0x8(%ebp),%edx
  101d06:	8b 12                	mov    (%edx),%edx
  101d08:	83 ec 08             	sub    $0x8,%esp
  101d0b:	50                   	push   %eax
  101d0c:	52                   	push   %edx
  101d0d:	e8 7d f7 ff ff       	call   10148f <bfree>
  101d12:	83 c4 10             	add    $0x10,%esp
/u/s/h/shirui/private/cs537/p3a/p3/xv6-sp20/kernel/fs.c:369 (discriminator 2)
  101d15:	83 45 f0 01          	addl   $0x1,-0x10(%ebp)
/u/s/h/shirui/private/cs537/p3a/p3/xv6-sp20/kernel/fs.c:369 (discriminator 1)
  101d19:	8b 45 f0             	mov    -0x10(%ebp),%eax
  101d1c:	83 f8 7f             	cmp    $0x7f,%eax
  101d1f:	76 bc                	jbe    101cdd <itrunc+0x95>
/u/s/h/shirui/private/cs537/p3a/p3/xv6-sp20/kernel/fs.c:373
  101d21:	83 ec 0c             	sub    $0xc,%esp
  101d24:	ff 75 ec             	pushl  -0x14(%ebp)
  101d27:	e8 2c e5 ff ff       	call   100258 <brelse>
  101d2c:	83 c4 10             	add    $0x10,%esp
/u/s/h/shirui/private/cs537/p3a/p3/xv6-sp20/kernel/fs.c:374
  101d2f:	8b 45 08             	mov    0x8(%ebp),%eax
  101d32:	8b 40 4c             	mov    0x4c(%eax),%eax
  101d35:	8b 55 08             	mov    0x8(%ebp),%edx
  101d38:	8b 12                	mov    (%edx),%edx
  101d3a:	83 ec 08             	sub    $0x8,%esp
  101d3d:	50                   	push   %eax
  101d3e:	52                   	push   %edx
  101d3f:	e8 4b f7 ff ff       	call   10148f <bfree>
  101d44:	83 c4 10             	add    $0x10,%esp
/u/s/h/shirui/private/cs537/p3a/p3/xv6-sp20/kernel/fs.c:375
  101d47:	8b 45 08             	mov    0x8(%ebp),%eax
  101d4a:	c7 40 4c 00 00 00 00 	movl   $0x0,0x4c(%eax)
/u/s/h/shirui/private/cs537/p3a/p3/xv6-sp20/kernel/fs.c:378
  101d51:	8b 45 08             	mov    0x8(%ebp),%eax
  101d54:	c7 40 18 00 00 00 00 	movl   $0x0,0x18(%eax)
/u/s/h/shirui/private/cs537/p3a/p3/xv6-sp20/kernel/fs.c:379
  101d5b:	83 ec 0c             	sub    $0xc,%esp
  101d5e:	ff 75 08             	pushl  0x8(%ebp)
  101d61:	e8 15 f9 ff ff       	call   10167b <iupdate>
  101d66:	83 c4 10             	add    $0x10,%esp
/u/s/h/shirui/private/cs537/p3a/p3/xv6-sp20/kernel/fs.c:380
  101d69:	90                   	nop
  101d6a:	c9                   	leave  
  101d6b:	c3                   	ret    

00101d6c <stati>:
stati():
/u/s/h/shirui/private/cs537/p3a/p3/xv6-sp20/kernel/fs.c:385
  101d6c:	55                   	push   %ebp
  101d6d:	89 e5                	mov    %esp,%ebp
/u/s/h/shirui/private/cs537/p3a/p3/xv6-sp20/kernel/fs.c:386
  101d6f:	8b 45 08             	mov    0x8(%ebp),%eax
  101d72:	8b 00                	mov    (%eax),%eax
  101d74:	89 c2                	mov    %eax,%edx
  101d76:	8b 45 0c             	mov    0xc(%ebp),%eax
  101d79:	89 50 04             	mov    %edx,0x4(%eax)
/u/s/h/shirui/private/cs537/p3a/p3/xv6-sp20/kernel/fs.c:387
  101d7c:	8b 45 08             	mov    0x8(%ebp),%eax
  101d7f:	8b 50 04             	mov    0x4(%eax),%edx
  101d82:	8b 45 0c             	mov    0xc(%ebp),%eax
  101d85:	89 50 08             	mov    %edx,0x8(%eax)
/u/s/h/shirui/private/cs537/p3a/p3/xv6-sp20/kernel/fs.c:388
  101d88:	8b 45 08             	mov    0x8(%ebp),%eax
  101d8b:	0f b7 50 10          	movzwl 0x10(%eax),%edx
  101d8f:	8b 45 0c             	mov    0xc(%ebp),%eax
  101d92:	66 89 10             	mov    %dx,(%eax)
/u/s/h/shirui/private/cs537/p3a/p3/xv6-sp20/kernel/fs.c:389
  101d95:	8b 45 08             	mov    0x8(%ebp),%eax
  101d98:	0f b7 50 16          	movzwl 0x16(%eax),%edx
  101d9c:	8b 45 0c             	mov    0xc(%ebp),%eax
  101d9f:	66 89 50 0c          	mov    %dx,0xc(%eax)
/u/s/h/shirui/private/cs537/p3a/p3/xv6-sp20/kernel/fs.c:390
  101da3:	8b 45 08             	mov    0x8(%ebp),%eax
  101da6:	8b 50 18             	mov    0x18(%eax),%edx
  101da9:	8b 45 0c             	mov    0xc(%ebp),%eax
  101dac:	89 50 10             	mov    %edx,0x10(%eax)
/u/s/h/shirui/private/cs537/p3a/p3/xv6-sp20/kernel/fs.c:391
  101daf:	90                   	nop
  101db0:	5d                   	pop    %ebp
  101db1:	c3                   	ret    

00101db2 <readi>:
readi():
/u/s/h/shirui/private/cs537/p3a/p3/xv6-sp20/kernel/fs.c:396
  101db2:	55                   	push   %ebp
  101db3:	89 e5                	mov    %esp,%ebp
  101db5:	83 ec 18             	sub    $0x18,%esp
/u/s/h/shirui/private/cs537/p3a/p3/xv6-sp20/kernel/fs.c:400
  101db8:	8b 45 08             	mov    0x8(%ebp),%eax
  101dbb:	0f b7 40 10          	movzwl 0x10(%eax),%eax
  101dbf:	66 83 f8 03          	cmp    $0x3,%ax
  101dc3:	75 5c                	jne    101e21 <readi+0x6f>
/u/s/h/shirui/private/cs537/p3a/p3/xv6-sp20/kernel/fs.c:401
  101dc5:	8b 45 08             	mov    0x8(%ebp),%eax
  101dc8:	0f b7 40 12          	movzwl 0x12(%eax),%eax
  101dcc:	66 85 c0             	test   %ax,%ax
  101dcf:	78 20                	js     101df1 <readi+0x3f>
/u/s/h/shirui/private/cs537/p3a/p3/xv6-sp20/kernel/fs.c:401 (discriminator 1)
  101dd1:	8b 45 08             	mov    0x8(%ebp),%eax
  101dd4:	0f b7 40 12          	movzwl 0x12(%eax),%eax
  101dd8:	66 83 f8 09          	cmp    $0x9,%ax
  101ddc:	7f 13                	jg     101df1 <readi+0x3f>
/u/s/h/shirui/private/cs537/p3a/p3/xv6-sp20/kernel/fs.c:401 (discriminator 2)
  101dde:	8b 45 08             	mov    0x8(%ebp),%eax
  101de1:	0f b7 40 12          	movzwl 0x12(%eax),%eax
  101de5:	98                   	cwtl   
  101de6:	8b 04 c5 20 ed 10 00 	mov    0x10ed20(,%eax,8),%eax
  101ded:	85 c0                	test   %eax,%eax
  101def:	75 0a                	jne    101dfb <readi+0x49>
/u/s/h/shirui/private/cs537/p3a/p3/xv6-sp20/kernel/fs.c:402
  101df1:	b8 ff ff ff ff       	mov    $0xffffffff,%eax
  101df6:	e9 0c 01 00 00       	jmp    101f07 <readi+0x155>
/u/s/h/shirui/private/cs537/p3a/p3/xv6-sp20/kernel/fs.c:403
  101dfb:	8b 45 08             	mov    0x8(%ebp),%eax
  101dfe:	0f b7 40 12          	movzwl 0x12(%eax),%eax
  101e02:	98                   	cwtl   
  101e03:	8b 04 c5 20 ed 10 00 	mov    0x10ed20(,%eax,8),%eax
  101e0a:	8b 55 14             	mov    0x14(%ebp),%edx
  101e0d:	83 ec 04             	sub    $0x4,%esp
  101e10:	52                   	push   %edx
  101e11:	ff 75 0c             	pushl  0xc(%ebp)
  101e14:	ff 75 08             	pushl  0x8(%ebp)
  101e17:	ff d0                	call   *%eax
  101e19:	83 c4 10             	add    $0x10,%esp
  101e1c:	e9 e6 00 00 00       	jmp    101f07 <readi+0x155>
/u/s/h/shirui/private/cs537/p3a/p3/xv6-sp20/kernel/fs.c:406
  101e21:	8b 45 08             	mov    0x8(%ebp),%eax
  101e24:	8b 40 18             	mov    0x18(%eax),%eax
  101e27:	39 45 10             	cmp    %eax,0x10(%ebp)
  101e2a:	77 0d                	ja     101e39 <readi+0x87>
/u/s/h/shirui/private/cs537/p3a/p3/xv6-sp20/kernel/fs.c:406 (discriminator 1)
  101e2c:	8b 55 10             	mov    0x10(%ebp),%edx
  101e2f:	8b 45 14             	mov    0x14(%ebp),%eax
  101e32:	01 d0                	add    %edx,%eax
  101e34:	39 45 10             	cmp    %eax,0x10(%ebp)
  101e37:	76 0a                	jbe    101e43 <readi+0x91>
/u/s/h/shirui/private/cs537/p3a/p3/xv6-sp20/kernel/fs.c:407
  101e39:	b8 ff ff ff ff       	mov    $0xffffffff,%eax
  101e3e:	e9 c4 00 00 00       	jmp    101f07 <readi+0x155>
/u/s/h/shirui/private/cs537/p3a/p3/xv6-sp20/kernel/fs.c:408
  101e43:	8b 55 10             	mov    0x10(%ebp),%edx
  101e46:	8b 45 14             	mov    0x14(%ebp),%eax
  101e49:	01 c2                	add    %eax,%edx
  101e4b:	8b 45 08             	mov    0x8(%ebp),%eax
  101e4e:	8b 40 18             	mov    0x18(%eax),%eax
  101e51:	39 c2                	cmp    %eax,%edx
  101e53:	76 0c                	jbe    101e61 <readi+0xaf>
/u/s/h/shirui/private/cs537/p3a/p3/xv6-sp20/kernel/fs.c:409
  101e55:	8b 45 08             	mov    0x8(%ebp),%eax
  101e58:	8b 40 18             	mov    0x18(%eax),%eax
  101e5b:	2b 45 10             	sub    0x10(%ebp),%eax
  101e5e:	89 45 14             	mov    %eax,0x14(%ebp)
/u/s/h/shirui/private/cs537/p3a/p3/xv6-sp20/kernel/fs.c:411
  101e61:	c7 45 f4 00 00 00 00 	movl   $0x0,-0xc(%ebp)
  101e68:	e9 8b 00 00 00       	jmp    101ef8 <readi+0x146>
/u/s/h/shirui/private/cs537/p3a/p3/xv6-sp20/kernel/fs.c:412 (discriminator 3)
  101e6d:	8b 45 10             	mov    0x10(%ebp),%eax
  101e70:	c1 e8 09             	shr    $0x9,%eax
  101e73:	83 ec 08             	sub    $0x8,%esp
  101e76:	50                   	push   %eax
  101e77:	ff 75 08             	pushl  0x8(%ebp)
  101e7a:	e8 af fc ff ff       	call   101b2e <bmap>
  101e7f:	83 c4 10             	add    $0x10,%esp
  101e82:	89 c2                	mov    %eax,%edx
  101e84:	8b 45 08             	mov    0x8(%ebp),%eax
  101e87:	8b 00                	mov    (%eax),%eax
  101e89:	83 ec 08             	sub    $0x8,%esp
  101e8c:	52                   	push   %edx
  101e8d:	50                   	push   %eax
  101e8e:	e8 4d e3 ff ff       	call   1001e0 <bread>
  101e93:	83 c4 10             	add    $0x10,%esp
  101e96:	89 45 f0             	mov    %eax,-0x10(%ebp)
/u/s/h/shirui/private/cs537/p3a/p3/xv6-sp20/kernel/fs.c:413 (discriminator 3)
  101e99:	8b 45 10             	mov    0x10(%ebp),%eax
  101e9c:	25 ff 01 00 00       	and    $0x1ff,%eax
  101ea1:	ba 00 02 00 00       	mov    $0x200,%edx
  101ea6:	29 c2                	sub    %eax,%edx
  101ea8:	8b 45 14             	mov    0x14(%ebp),%eax
  101eab:	2b 45 f4             	sub    -0xc(%ebp),%eax
  101eae:	39 c2                	cmp    %eax,%edx
  101eb0:	0f 46 c2             	cmovbe %edx,%eax
  101eb3:	89 45 ec             	mov    %eax,-0x14(%ebp)
/u/s/h/shirui/private/cs537/p3a/p3/xv6-sp20/kernel/fs.c:414 (discriminator 3)
  101eb6:	8b 45 f0             	mov    -0x10(%ebp),%eax
  101eb9:	8d 50 18             	lea    0x18(%eax),%edx
  101ebc:	8b 45 10             	mov    0x10(%ebp),%eax
  101ebf:	25 ff 01 00 00       	and    $0x1ff,%eax
  101ec4:	01 d0                	add    %edx,%eax
  101ec6:	83 ec 04             	sub    $0x4,%esp
  101ec9:	ff 75 ec             	pushl  -0x14(%ebp)
  101ecc:	50                   	push   %eax
  101ecd:	ff 75 0c             	pushl  0xc(%ebp)
  101ed0:	e8 5a 2c 00 00       	call   104b2f <memmove>
  101ed5:	83 c4 10             	add    $0x10,%esp
/u/s/h/shirui/private/cs537/p3a/p3/xv6-sp20/kernel/fs.c:415 (discriminator 3)
  101ed8:	83 ec 0c             	sub    $0xc,%esp
  101edb:	ff 75 f0             	pushl  -0x10(%ebp)
  101ede:	e8 75 e3 ff ff       	call   100258 <brelse>
  101ee3:	83 c4 10             	add    $0x10,%esp
/u/s/h/shirui/private/cs537/p3a/p3/xv6-sp20/kernel/fs.c:411 (discriminator 3)
  101ee6:	8b 45 ec             	mov    -0x14(%ebp),%eax
  101ee9:	01 45 f4             	add    %eax,-0xc(%ebp)
  101eec:	8b 45 ec             	mov    -0x14(%ebp),%eax
  101eef:	01 45 10             	add    %eax,0x10(%ebp)
  101ef2:	8b 45 ec             	mov    -0x14(%ebp),%eax
  101ef5:	01 45 0c             	add    %eax,0xc(%ebp)
/u/s/h/shirui/private/cs537/p3a/p3/xv6-sp20/kernel/fs.c:411 (discriminator 1)
  101ef8:	8b 45 f4             	mov    -0xc(%ebp),%eax
  101efb:	3b 45 14             	cmp    0x14(%ebp),%eax
  101efe:	0f 82 69 ff ff ff    	jb     101e6d <readi+0xbb>
/u/s/h/shirui/private/cs537/p3a/p3/xv6-sp20/kernel/fs.c:417
  101f04:	8b 45 14             	mov    0x14(%ebp),%eax
/u/s/h/shirui/private/cs537/p3a/p3/xv6-sp20/kernel/fs.c:418
  101f07:	c9                   	leave  
  101f08:	c3                   	ret    

00101f09 <writei>:
writei():
/u/s/h/shirui/private/cs537/p3a/p3/xv6-sp20/kernel/fs.c:423
  101f09:	55                   	push   %ebp
  101f0a:	89 e5                	mov    %esp,%ebp
  101f0c:	83 ec 18             	sub    $0x18,%esp
/u/s/h/shirui/private/cs537/p3a/p3/xv6-sp20/kernel/fs.c:427
  101f0f:	8b 45 08             	mov    0x8(%ebp),%eax
  101f12:	0f b7 40 10          	movzwl 0x10(%eax),%eax
  101f16:	66 83 f8 03          	cmp    $0x3,%ax
  101f1a:	75 5c                	jne    101f78 <writei+0x6f>
/u/s/h/shirui/private/cs537/p3a/p3/xv6-sp20/kernel/fs.c:428
  101f1c:	8b 45 08             	mov    0x8(%ebp),%eax
  101f1f:	0f b7 40 12          	movzwl 0x12(%eax),%eax
  101f23:	66 85 c0             	test   %ax,%ax
  101f26:	78 20                	js     101f48 <writei+0x3f>
/u/s/h/shirui/private/cs537/p3a/p3/xv6-sp20/kernel/fs.c:428 (discriminator 1)
  101f28:	8b 45 08             	mov    0x8(%ebp),%eax
  101f2b:	0f b7 40 12          	movzwl 0x12(%eax),%eax
  101f2f:	66 83 f8 09          	cmp    $0x9,%ax
  101f33:	7f 13                	jg     101f48 <writei+0x3f>
/u/s/h/shirui/private/cs537/p3a/p3/xv6-sp20/kernel/fs.c:428 (discriminator 2)
  101f35:	8b 45 08             	mov    0x8(%ebp),%eax
  101f38:	0f b7 40 12          	movzwl 0x12(%eax),%eax
  101f3c:	98                   	cwtl   
  101f3d:	8b 04 c5 24 ed 10 00 	mov    0x10ed24(,%eax,8),%eax
  101f44:	85 c0                	test   %eax,%eax
  101f46:	75 0a                	jne    101f52 <writei+0x49>
/u/s/h/shirui/private/cs537/p3a/p3/xv6-sp20/kernel/fs.c:429
  101f48:	b8 ff ff ff ff       	mov    $0xffffffff,%eax
  101f4d:	e9 3e 01 00 00       	jmp    102090 <writei+0x187>
/u/s/h/shirui/private/cs537/p3a/p3/xv6-sp20/kernel/fs.c:430
  101f52:	8b 45 08             	mov    0x8(%ebp),%eax
  101f55:	0f b7 40 12          	movzwl 0x12(%eax),%eax
  101f59:	98                   	cwtl   
  101f5a:	8b 04 c5 24 ed 10 00 	mov    0x10ed24(,%eax,8),%eax
  101f61:	8b 55 14             	mov    0x14(%ebp),%edx
  101f64:	83 ec 04             	sub    $0x4,%esp
  101f67:	52                   	push   %edx
  101f68:	ff 75 0c             	pushl  0xc(%ebp)
  101f6b:	ff 75 08             	pushl  0x8(%ebp)
  101f6e:	ff d0                	call   *%eax
  101f70:	83 c4 10             	add    $0x10,%esp
  101f73:	e9 18 01 00 00       	jmp    102090 <writei+0x187>
/u/s/h/shirui/private/cs537/p3a/p3/xv6-sp20/kernel/fs.c:433
  101f78:	8b 45 08             	mov    0x8(%ebp),%eax
  101f7b:	8b 40 18             	mov    0x18(%eax),%eax
  101f7e:	39 45 10             	cmp    %eax,0x10(%ebp)
  101f81:	77 0d                	ja     101f90 <writei+0x87>
/u/s/h/shirui/private/cs537/p3a/p3/xv6-sp20/kernel/fs.c:433 (discriminator 1)
  101f83:	8b 55 10             	mov    0x10(%ebp),%edx
  101f86:	8b 45 14             	mov    0x14(%ebp),%eax
  101f89:	01 d0                	add    %edx,%eax
  101f8b:	39 45 10             	cmp    %eax,0x10(%ebp)
  101f8e:	76 0a                	jbe    101f9a <writei+0x91>
/u/s/h/shirui/private/cs537/p3a/p3/xv6-sp20/kernel/fs.c:434
  101f90:	b8 ff ff ff ff       	mov    $0xffffffff,%eax
  101f95:	e9 f6 00 00 00       	jmp    102090 <writei+0x187>
/u/s/h/shirui/private/cs537/p3a/p3/xv6-sp20/kernel/fs.c:435
  101f9a:	8b 55 10             	mov    0x10(%ebp),%edx
  101f9d:	8b 45 14             	mov    0x14(%ebp),%eax
  101fa0:	01 d0                	add    %edx,%eax
  101fa2:	3d 00 18 01 00       	cmp    $0x11800,%eax
  101fa7:	76 0b                	jbe    101fb4 <writei+0xab>
/u/s/h/shirui/private/cs537/p3a/p3/xv6-sp20/kernel/fs.c:436
  101fa9:	b8 00 18 01 00       	mov    $0x11800,%eax
  101fae:	2b 45 10             	sub    0x10(%ebp),%eax
  101fb1:	89 45 14             	mov    %eax,0x14(%ebp)
/u/s/h/shirui/private/cs537/p3a/p3/xv6-sp20/kernel/fs.c:438
  101fb4:	c7 45 f4 00 00 00 00 	movl   $0x0,-0xc(%ebp)
  101fbb:	e9 99 00 00 00       	jmp    102059 <writei+0x150>
/u/s/h/shirui/private/cs537/p3a/p3/xv6-sp20/kernel/fs.c:439 (discriminator 3)
  101fc0:	8b 45 10             	mov    0x10(%ebp),%eax
  101fc3:	c1 e8 09             	shr    $0x9,%eax
  101fc6:	83 ec 08             	sub    $0x8,%esp
  101fc9:	50                   	push   %eax
  101fca:	ff 75 08             	pushl  0x8(%ebp)
  101fcd:	e8 5c fb ff ff       	call   101b2e <bmap>
  101fd2:	83 c4 10             	add    $0x10,%esp
  101fd5:	89 c2                	mov    %eax,%edx
  101fd7:	8b 45 08             	mov    0x8(%ebp),%eax
  101fda:	8b 00                	mov    (%eax),%eax
  101fdc:	83 ec 08             	sub    $0x8,%esp
  101fdf:	52                   	push   %edx
  101fe0:	50                   	push   %eax
  101fe1:	e8 fa e1 ff ff       	call   1001e0 <bread>
  101fe6:	83 c4 10             	add    $0x10,%esp
  101fe9:	89 45 f0             	mov    %eax,-0x10(%ebp)
/u/s/h/shirui/private/cs537/p3a/p3/xv6-sp20/kernel/fs.c:440 (discriminator 3)
  101fec:	8b 45 10             	mov    0x10(%ebp),%eax
  101fef:	25 ff 01 00 00       	and    $0x1ff,%eax
  101ff4:	ba 00 02 00 00       	mov    $0x200,%edx
  101ff9:	29 c2                	sub    %eax,%edx
  101ffb:	8b 45 14             	mov    0x14(%ebp),%eax
  101ffe:	2b 45 f4             	sub    -0xc(%ebp),%eax
  102001:	39 c2                	cmp    %eax,%edx
  102003:	0f 46 c2             	cmovbe %edx,%eax
  102006:	89 45 ec             	mov    %eax,-0x14(%ebp)
/u/s/h/shirui/private/cs537/p3a/p3/xv6-sp20/kernel/fs.c:441 (discriminator 3)
  102009:	8b 45 f0             	mov    -0x10(%ebp),%eax
  10200c:	8d 50 18             	lea    0x18(%eax),%edx
  10200f:	8b 45 10             	mov    0x10(%ebp),%eax
  102012:	25 ff 01 00 00       	and    $0x1ff,%eax
  102017:	01 d0                	add    %edx,%eax
  102019:	83 ec 04             	sub    $0x4,%esp
  10201c:	ff 75 ec             	pushl  -0x14(%ebp)
  10201f:	ff 75 0c             	pushl  0xc(%ebp)
  102022:	50                   	push   %eax
  102023:	e8 07 2b 00 00       	call   104b2f <memmove>
  102028:	83 c4 10             	add    $0x10,%esp
/u/s/h/shirui/private/cs537/p3a/p3/xv6-sp20/kernel/fs.c:442 (discriminator 3)
  10202b:	83 ec 0c             	sub    $0xc,%esp
  10202e:	ff 75 f0             	pushl  -0x10(%ebp)
  102031:	e8 e3 e1 ff ff       	call   100219 <bwrite>
  102036:	83 c4 10             	add    $0x10,%esp
/u/s/h/shirui/private/cs537/p3a/p3/xv6-sp20/kernel/fs.c:443 (discriminator 3)
  102039:	83 ec 0c             	sub    $0xc,%esp
  10203c:	ff 75 f0             	pushl  -0x10(%ebp)
  10203f:	e8 14 e2 ff ff       	call   100258 <brelse>
  102044:	83 c4 10             	add    $0x10,%esp
/u/s/h/shirui/private/cs537/p3a/p3/xv6-sp20/kernel/fs.c:438 (discriminator 3)
  102047:	8b 45 ec             	mov    -0x14(%ebp),%eax
  10204a:	01 45 f4             	add    %eax,-0xc(%ebp)
  10204d:	8b 45 ec             	mov    -0x14(%ebp),%eax
  102050:	01 45 10             	add    %eax,0x10(%ebp)
  102053:	8b 45 ec             	mov    -0x14(%ebp),%eax
  102056:	01 45 0c             	add    %eax,0xc(%ebp)
/u/s/h/shirui/private/cs537/p3a/p3/xv6-sp20/kernel/fs.c:438 (discriminator 1)
  102059:	8b 45 f4             	mov    -0xc(%ebp),%eax
  10205c:	3b 45 14             	cmp    0x14(%ebp),%eax
  10205f:	0f 82 5b ff ff ff    	jb     101fc0 <writei+0xb7>
/u/s/h/shirui/private/cs537/p3a/p3/xv6-sp20/kernel/fs.c:446
  102065:	83 7d 14 00          	cmpl   $0x0,0x14(%ebp)
  102069:	74 22                	je     10208d <writei+0x184>
/u/s/h/shirui/private/cs537/p3a/p3/xv6-sp20/kernel/fs.c:446 (discriminator 1)
  10206b:	8b 45 08             	mov    0x8(%ebp),%eax
  10206e:	8b 40 18             	mov    0x18(%eax),%eax
  102071:	39 45 10             	cmp    %eax,0x10(%ebp)
  102074:	76 17                	jbe    10208d <writei+0x184>
/u/s/h/shirui/private/cs537/p3a/p3/xv6-sp20/kernel/fs.c:447
  102076:	8b 45 08             	mov    0x8(%ebp),%eax
  102079:	8b 55 10             	mov    0x10(%ebp),%edx
  10207c:	89 50 18             	mov    %edx,0x18(%eax)
/u/s/h/shirui/private/cs537/p3a/p3/xv6-sp20/kernel/fs.c:448
  10207f:	83 ec 0c             	sub    $0xc,%esp
  102082:	ff 75 08             	pushl  0x8(%ebp)
  102085:	e8 f1 f5 ff ff       	call   10167b <iupdate>
  10208a:	83 c4 10             	add    $0x10,%esp
/u/s/h/shirui/private/cs537/p3a/p3/xv6-sp20/kernel/fs.c:450
  10208d:	8b 45 14             	mov    0x14(%ebp),%eax
/u/s/h/shirui/private/cs537/p3a/p3/xv6-sp20/kernel/fs.c:451
  102090:	c9                   	leave  
  102091:	c3                   	ret    

00102092 <namecmp>:
namecmp():
/u/s/h/shirui/private/cs537/p3a/p3/xv6-sp20/kernel/fs.c:457
  102092:	55                   	push   %ebp
  102093:	89 e5                	mov    %esp,%ebp
  102095:	83 ec 08             	sub    $0x8,%esp
/u/s/h/shirui/private/cs537/p3a/p3/xv6-sp20/kernel/fs.c:458
  102098:	83 ec 04             	sub    $0x4,%esp
  10209b:	6a 0e                	push   $0xe
  10209d:	ff 75 0c             	pushl  0xc(%ebp)
  1020a0:	ff 75 08             	pushl  0x8(%ebp)
  1020a3:	e8 1d 2b 00 00       	call   104bc5 <strncmp>
  1020a8:	83 c4 10             	add    $0x10,%esp
/u/s/h/shirui/private/cs537/p3a/p3/xv6-sp20/kernel/fs.c:459
  1020ab:	c9                   	leave  
  1020ac:	c3                   	ret    

001020ad <dirlookup>:
dirlookup():
/u/s/h/shirui/private/cs537/p3a/p3/xv6-sp20/kernel/fs.c:466
  1020ad:	55                   	push   %ebp
  1020ae:	89 e5                	mov    %esp,%ebp
  1020b0:	83 ec 18             	sub    $0x18,%esp
/u/s/h/shirui/private/cs537/p3a/p3/xv6-sp20/kernel/fs.c:471
  1020b3:	8b 45 08             	mov    0x8(%ebp),%eax
  1020b6:	0f b7 40 10          	movzwl 0x10(%eax),%eax
  1020ba:	66 83 f8 01          	cmp    $0x1,%ax
  1020be:	74 0d                	je     1020cd <dirlookup+0x20>
/u/s/h/shirui/private/cs537/p3a/p3/xv6-sp20/kernel/fs.c:472
  1020c0:	83 ec 0c             	sub    $0xc,%esp
  1020c3:	68 20 80 10 00       	push   $0x108020
  1020c8:	e8 ab e4 ff ff       	call   100578 <panic>
/u/s/h/shirui/private/cs537/p3a/p3/xv6-sp20/kernel/fs.c:474
  1020cd:	c7 45 f4 00 00 00 00 	movl   $0x0,-0xc(%ebp)
  1020d4:	e9 da 00 00 00       	jmp    1021b3 <dirlookup+0x106>
/u/s/h/shirui/private/cs537/p3a/p3/xv6-sp20/kernel/fs.c:475
  1020d9:	8b 45 f4             	mov    -0xc(%ebp),%eax
  1020dc:	c1 e8 09             	shr    $0x9,%eax
  1020df:	83 ec 08             	sub    $0x8,%esp
  1020e2:	50                   	push   %eax
  1020e3:	ff 75 08             	pushl  0x8(%ebp)
  1020e6:	e8 43 fa ff ff       	call   101b2e <bmap>
  1020eb:	83 c4 10             	add    $0x10,%esp
  1020ee:	89 c2                	mov    %eax,%edx
  1020f0:	8b 45 08             	mov    0x8(%ebp),%eax
  1020f3:	8b 00                	mov    (%eax),%eax
  1020f5:	83 ec 08             	sub    $0x8,%esp
  1020f8:	52                   	push   %edx
  1020f9:	50                   	push   %eax
  1020fa:	e8 e1 e0 ff ff       	call   1001e0 <bread>
  1020ff:	83 c4 10             	add    $0x10,%esp
  102102:	89 45 ec             	mov    %eax,-0x14(%ebp)
/u/s/h/shirui/private/cs537/p3a/p3/xv6-sp20/kernel/fs.c:476
  102105:	8b 45 ec             	mov    -0x14(%ebp),%eax
  102108:	83 c0 18             	add    $0x18,%eax
  10210b:	89 45 f0             	mov    %eax,-0x10(%ebp)
  10210e:	eb 7a                	jmp    10218a <dirlookup+0xdd>
/u/s/h/shirui/private/cs537/p3a/p3/xv6-sp20/kernel/fs.c:479
  102110:	8b 45 f0             	mov    -0x10(%ebp),%eax
  102113:	0f b7 00             	movzwl (%eax),%eax
  102116:	66 85 c0             	test   %ax,%ax
  102119:	74 6a                	je     102185 <dirlookup+0xd8>
/u/s/h/shirui/private/cs537/p3a/p3/xv6-sp20/kernel/fs.c:481
  10211b:	8b 45 f0             	mov    -0x10(%ebp),%eax
  10211e:	83 c0 02             	add    $0x2,%eax
  102121:	83 ec 08             	sub    $0x8,%esp
  102124:	50                   	push   %eax
  102125:	ff 75 0c             	pushl  0xc(%ebp)
  102128:	e8 65 ff ff ff       	call   102092 <namecmp>
  10212d:	83 c4 10             	add    $0x10,%esp
  102130:	85 c0                	test   %eax,%eax
  102132:	75 52                	jne    102186 <dirlookup+0xd9>
/u/s/h/shirui/private/cs537/p3a/p3/xv6-sp20/kernel/fs.c:483
  102134:	83 7d 10 00          	cmpl   $0x0,0x10(%ebp)
  102138:	74 1b                	je     102155 <dirlookup+0xa8>
/u/s/h/shirui/private/cs537/p3a/p3/xv6-sp20/kernel/fs.c:484
  10213a:	8b 55 f0             	mov    -0x10(%ebp),%edx
  10213d:	8b 45 f4             	mov    -0xc(%ebp),%eax
  102140:	01 d0                	add    %edx,%eax
  102142:	89 c2                	mov    %eax,%edx
  102144:	8b 45 ec             	mov    -0x14(%ebp),%eax
  102147:	83 c0 18             	add    $0x18,%eax
  10214a:	29 c2                	sub    %eax,%edx
  10214c:	89 d0                	mov    %edx,%eax
  10214e:	89 c2                	mov    %eax,%edx
  102150:	8b 45 10             	mov    0x10(%ebp),%eax
  102153:	89 10                	mov    %edx,(%eax)
/u/s/h/shirui/private/cs537/p3a/p3/xv6-sp20/kernel/fs.c:485
  102155:	8b 45 f0             	mov    -0x10(%ebp),%eax
  102158:	0f b7 00             	movzwl (%eax),%eax
  10215b:	0f b7 c0             	movzwl %ax,%eax
  10215e:	89 45 e8             	mov    %eax,-0x18(%ebp)
/u/s/h/shirui/private/cs537/p3a/p3/xv6-sp20/kernel/fs.c:486
  102161:	83 ec 0c             	sub    $0xc,%esp
  102164:	ff 75 ec             	pushl  -0x14(%ebp)
  102167:	e8 ec e0 ff ff       	call   100258 <brelse>
  10216c:	83 c4 10             	add    $0x10,%esp
/u/s/h/shirui/private/cs537/p3a/p3/xv6-sp20/kernel/fs.c:487
  10216f:	8b 45 08             	mov    0x8(%ebp),%eax
  102172:	8b 00                	mov    (%eax),%eax
  102174:	83 ec 08             	sub    $0x8,%esp
  102177:	ff 75 e8             	pushl  -0x18(%ebp)
  10217a:	50                   	push   %eax
  10217b:	e8 b6 f5 ff ff       	call   101736 <iget>
  102180:	83 c4 10             	add    $0x10,%esp
  102183:	eb 42                	jmp    1021c7 <dirlookup+0x11a>
/u/s/h/shirui/private/cs537/p3a/p3/xv6-sp20/kernel/fs.c:480
  102185:	90                   	nop
/u/s/h/shirui/private/cs537/p3a/p3/xv6-sp20/kernel/fs.c:478
  102186:	83 45 f0 10          	addl   $0x10,-0x10(%ebp)
/u/s/h/shirui/private/cs537/p3a/p3/xv6-sp20/kernel/fs.c:477 (discriminator 1)
  10218a:	8b 45 ec             	mov    -0x14(%ebp),%eax
  10218d:	83 c0 18             	add    $0x18,%eax
  102190:	05 00 02 00 00       	add    $0x200,%eax
/u/s/h/shirui/private/cs537/p3a/p3/xv6-sp20/kernel/fs.c:476 (discriminator 1)
  102195:	39 45 f0             	cmp    %eax,-0x10(%ebp)
  102198:	0f 82 72 ff ff ff    	jb     102110 <dirlookup+0x63>
/u/s/h/shirui/private/cs537/p3a/p3/xv6-sp20/kernel/fs.c:490 (discriminator 2)
  10219e:	83 ec 0c             	sub    $0xc,%esp
  1021a1:	ff 75 ec             	pushl  -0x14(%ebp)
  1021a4:	e8 af e0 ff ff       	call   100258 <brelse>
  1021a9:	83 c4 10             	add    $0x10,%esp
/u/s/h/shirui/private/cs537/p3a/p3/xv6-sp20/kernel/fs.c:474 (discriminator 2)
  1021ac:	81 45 f4 00 02 00 00 	addl   $0x200,-0xc(%ebp)
/u/s/h/shirui/private/cs537/p3a/p3/xv6-sp20/kernel/fs.c:474 (discriminator 1)
  1021b3:	8b 45 08             	mov    0x8(%ebp),%eax
  1021b6:	8b 40 18             	mov    0x18(%eax),%eax
  1021b9:	39 45 f4             	cmp    %eax,-0xc(%ebp)
  1021bc:	0f 82 17 ff ff ff    	jb     1020d9 <dirlookup+0x2c>
/u/s/h/shirui/private/cs537/p3a/p3/xv6-sp20/kernel/fs.c:492
  1021c2:	b8 00 00 00 00       	mov    $0x0,%eax
/u/s/h/shirui/private/cs537/p3a/p3/xv6-sp20/kernel/fs.c:493
  1021c7:	c9                   	leave  
  1021c8:	c3                   	ret    

001021c9 <dirlink>:
dirlink():
/u/s/h/shirui/private/cs537/p3a/p3/xv6-sp20/kernel/fs.c:498
  1021c9:	55                   	push   %ebp
  1021ca:	89 e5                	mov    %esp,%ebp
  1021cc:	83 ec 28             	sub    $0x28,%esp
/u/s/h/shirui/private/cs537/p3a/p3/xv6-sp20/kernel/fs.c:504
  1021cf:	83 ec 04             	sub    $0x4,%esp
  1021d2:	6a 00                	push   $0x0
  1021d4:	ff 75 0c             	pushl  0xc(%ebp)
  1021d7:	ff 75 08             	pushl  0x8(%ebp)
  1021da:	e8 ce fe ff ff       	call   1020ad <dirlookup>
  1021df:	83 c4 10             	add    $0x10,%esp
  1021e2:	89 45 f0             	mov    %eax,-0x10(%ebp)
  1021e5:	83 7d f0 00          	cmpl   $0x0,-0x10(%ebp)
  1021e9:	74 18                	je     102203 <dirlink+0x3a>
/u/s/h/shirui/private/cs537/p3a/p3/xv6-sp20/kernel/fs.c:505
  1021eb:	83 ec 0c             	sub    $0xc,%esp
  1021ee:	ff 75 f0             	pushl  -0x10(%ebp)
  1021f1:	e8 23 f8 ff ff       	call   101a19 <iput>
  1021f6:	83 c4 10             	add    $0x10,%esp
/u/s/h/shirui/private/cs537/p3a/p3/xv6-sp20/kernel/fs.c:506
  1021f9:	b8 ff ff ff ff       	mov    $0xffffffff,%eax
  1021fe:	e9 9c 00 00 00       	jmp    10229f <dirlink+0xd6>
/u/s/h/shirui/private/cs537/p3a/p3/xv6-sp20/kernel/fs.c:510
  102203:	c7 45 f4 00 00 00 00 	movl   $0x0,-0xc(%ebp)
  10220a:	eb 39                	jmp    102245 <dirlink+0x7c>
/u/s/h/shirui/private/cs537/p3a/p3/xv6-sp20/kernel/fs.c:511
  10220c:	8b 45 f4             	mov    -0xc(%ebp),%eax
  10220f:	6a 10                	push   $0x10
  102211:	50                   	push   %eax
  102212:	8d 45 e0             	lea    -0x20(%ebp),%eax
  102215:	50                   	push   %eax
  102216:	ff 75 08             	pushl  0x8(%ebp)
  102219:	e8 94 fb ff ff       	call   101db2 <readi>
  10221e:	83 c4 10             	add    $0x10,%esp
  102221:	83 f8 10             	cmp    $0x10,%eax
  102224:	74 0d                	je     102233 <dirlink+0x6a>
/u/s/h/shirui/private/cs537/p3a/p3/xv6-sp20/kernel/fs.c:512
  102226:	83 ec 0c             	sub    $0xc,%esp
  102229:	68 32 80 10 00       	push   $0x108032
  10222e:	e8 45 e3 ff ff       	call   100578 <panic>
/u/s/h/shirui/private/cs537/p3a/p3/xv6-sp20/kernel/fs.c:513
  102233:	0f b7 45 e0          	movzwl -0x20(%ebp),%eax
  102237:	66 85 c0             	test   %ax,%ax
  10223a:	74 18                	je     102254 <dirlink+0x8b>
/u/s/h/shirui/private/cs537/p3a/p3/xv6-sp20/kernel/fs.c:510 (discriminator 2)
  10223c:	8b 45 f4             	mov    -0xc(%ebp),%eax
  10223f:	83 c0 10             	add    $0x10,%eax
  102242:	89 45 f4             	mov    %eax,-0xc(%ebp)
/u/s/h/shirui/private/cs537/p3a/p3/xv6-sp20/kernel/fs.c:510 (discriminator 1)
  102245:	8b 45 08             	mov    0x8(%ebp),%eax
  102248:	8b 50 18             	mov    0x18(%eax),%edx
  10224b:	8b 45 f4             	mov    -0xc(%ebp),%eax
  10224e:	39 c2                	cmp    %eax,%edx
  102250:	77 ba                	ja     10220c <dirlink+0x43>
  102252:	eb 01                	jmp    102255 <dirlink+0x8c>
/u/s/h/shirui/private/cs537/p3a/p3/xv6-sp20/kernel/fs.c:514
  102254:	90                   	nop
/u/s/h/shirui/private/cs537/p3a/p3/xv6-sp20/kernel/fs.c:517
  102255:	83 ec 04             	sub    $0x4,%esp
  102258:	6a 0e                	push   $0xe
  10225a:	ff 75 0c             	pushl  0xc(%ebp)
  10225d:	8d 45 e0             	lea    -0x20(%ebp),%eax
  102260:	83 c0 02             	add    $0x2,%eax
  102263:	50                   	push   %eax
  102264:	e8 b2 29 00 00       	call   104c1b <strncpy>
  102269:	83 c4 10             	add    $0x10,%esp
/u/s/h/shirui/private/cs537/p3a/p3/xv6-sp20/kernel/fs.c:518
  10226c:	8b 45 10             	mov    0x10(%ebp),%eax
  10226f:	66 89 45 e0          	mov    %ax,-0x20(%ebp)
/u/s/h/shirui/private/cs537/p3a/p3/xv6-sp20/kernel/fs.c:519
  102273:	8b 45 f4             	mov    -0xc(%ebp),%eax
  102276:	6a 10                	push   $0x10
  102278:	50                   	push   %eax
  102279:	8d 45 e0             	lea    -0x20(%ebp),%eax
  10227c:	50                   	push   %eax
  10227d:	ff 75 08             	pushl  0x8(%ebp)
  102280:	e8 84 fc ff ff       	call   101f09 <writei>
  102285:	83 c4 10             	add    $0x10,%esp
  102288:	83 f8 10             	cmp    $0x10,%eax
  10228b:	74 0d                	je     10229a <dirlink+0xd1>
/u/s/h/shirui/private/cs537/p3a/p3/xv6-sp20/kernel/fs.c:520
  10228d:	83 ec 0c             	sub    $0xc,%esp
  102290:	68 3f 80 10 00       	push   $0x10803f
  102295:	e8 de e2 ff ff       	call   100578 <panic>
/u/s/h/shirui/private/cs537/p3a/p3/xv6-sp20/kernel/fs.c:522
  10229a:	b8 00 00 00 00       	mov    $0x0,%eax
/u/s/h/shirui/private/cs537/p3a/p3/xv6-sp20/kernel/fs.c:523 (discriminator 1)
  10229f:	c9                   	leave  
  1022a0:	c3                   	ret    

001022a1 <skipelem>:
skipelem():
/u/s/h/shirui/private/cs537/p3a/p3/xv6-sp20/kernel/fs.c:541
  1022a1:	55                   	push   %ebp
  1022a2:	89 e5                	mov    %esp,%ebp
  1022a4:	83 ec 18             	sub    $0x18,%esp
/u/s/h/shirui/private/cs537/p3a/p3/xv6-sp20/kernel/fs.c:545
  1022a7:	eb 04                	jmp    1022ad <skipelem+0xc>
/u/s/h/shirui/private/cs537/p3a/p3/xv6-sp20/kernel/fs.c:546
  1022a9:	83 45 08 01          	addl   $0x1,0x8(%ebp)
/u/s/h/shirui/private/cs537/p3a/p3/xv6-sp20/kernel/fs.c:545
  1022ad:	8b 45 08             	mov    0x8(%ebp),%eax
  1022b0:	0f b6 00             	movzbl (%eax),%eax
  1022b3:	3c 2f                	cmp    $0x2f,%al
  1022b5:	74 f2                	je     1022a9 <skipelem+0x8>
/u/s/h/shirui/private/cs537/p3a/p3/xv6-sp20/kernel/fs.c:547
  1022b7:	8b 45 08             	mov    0x8(%ebp),%eax
  1022ba:	0f b6 00             	movzbl (%eax),%eax
  1022bd:	84 c0                	test   %al,%al
  1022bf:	75 07                	jne    1022c8 <skipelem+0x27>
/u/s/h/shirui/private/cs537/p3a/p3/xv6-sp20/kernel/fs.c:548
  1022c1:	b8 00 00 00 00       	mov    $0x0,%eax
  1022c6:	eb 7b                	jmp    102343 <skipelem+0xa2>
/u/s/h/shirui/private/cs537/p3a/p3/xv6-sp20/kernel/fs.c:549
  1022c8:	8b 45 08             	mov    0x8(%ebp),%eax
  1022cb:	89 45 f4             	mov    %eax,-0xc(%ebp)
/u/s/h/shirui/private/cs537/p3a/p3/xv6-sp20/kernel/fs.c:550
  1022ce:	eb 04                	jmp    1022d4 <skipelem+0x33>
/u/s/h/shirui/private/cs537/p3a/p3/xv6-sp20/kernel/fs.c:551
  1022d0:	83 45 08 01          	addl   $0x1,0x8(%ebp)
/u/s/h/shirui/private/cs537/p3a/p3/xv6-sp20/kernel/fs.c:550
  1022d4:	8b 45 08             	mov    0x8(%ebp),%eax
  1022d7:	0f b6 00             	movzbl (%eax),%eax
  1022da:	3c 2f                	cmp    $0x2f,%al
  1022dc:	74 0a                	je     1022e8 <skipelem+0x47>
/u/s/h/shirui/private/cs537/p3a/p3/xv6-sp20/kernel/fs.c:550 (discriminator 1)
  1022de:	8b 45 08             	mov    0x8(%ebp),%eax
  1022e1:	0f b6 00             	movzbl (%eax),%eax
  1022e4:	84 c0                	test   %al,%al
  1022e6:	75 e8                	jne    1022d0 <skipelem+0x2f>
/u/s/h/shirui/private/cs537/p3a/p3/xv6-sp20/kernel/fs.c:552
  1022e8:	8b 55 08             	mov    0x8(%ebp),%edx
  1022eb:	8b 45 f4             	mov    -0xc(%ebp),%eax
  1022ee:	29 c2                	sub    %eax,%edx
  1022f0:	89 d0                	mov    %edx,%eax
  1022f2:	89 45 f0             	mov    %eax,-0x10(%ebp)
/u/s/h/shirui/private/cs537/p3a/p3/xv6-sp20/kernel/fs.c:553
  1022f5:	83 7d f0 0d          	cmpl   $0xd,-0x10(%ebp)
  1022f9:	7e 15                	jle    102310 <skipelem+0x6f>
/u/s/h/shirui/private/cs537/p3a/p3/xv6-sp20/kernel/fs.c:554
  1022fb:	83 ec 04             	sub    $0x4,%esp
  1022fe:	6a 0e                	push   $0xe
  102300:	ff 75 f4             	pushl  -0xc(%ebp)
  102303:	ff 75 0c             	pushl  0xc(%ebp)
  102306:	e8 24 28 00 00       	call   104b2f <memmove>
  10230b:	83 c4 10             	add    $0x10,%esp
  10230e:	eb 26                	jmp    102336 <skipelem+0x95>
/u/s/h/shirui/private/cs537/p3a/p3/xv6-sp20/kernel/fs.c:556
  102310:	8b 45 f0             	mov    -0x10(%ebp),%eax
  102313:	83 ec 04             	sub    $0x4,%esp
  102316:	50                   	push   %eax
  102317:	ff 75 f4             	pushl  -0xc(%ebp)
  10231a:	ff 75 0c             	pushl  0xc(%ebp)
  10231d:	e8 0d 28 00 00       	call   104b2f <memmove>
  102322:	83 c4 10             	add    $0x10,%esp
/u/s/h/shirui/private/cs537/p3a/p3/xv6-sp20/kernel/fs.c:557
  102325:	8b 55 f0             	mov    -0x10(%ebp),%edx
  102328:	8b 45 0c             	mov    0xc(%ebp),%eax
  10232b:	01 d0                	add    %edx,%eax
  10232d:	c6 00 00             	movb   $0x0,(%eax)
/u/s/h/shirui/private/cs537/p3a/p3/xv6-sp20/kernel/fs.c:559
  102330:	eb 04                	jmp    102336 <skipelem+0x95>
/u/s/h/shirui/private/cs537/p3a/p3/xv6-sp20/kernel/fs.c:560
  102332:	83 45 08 01          	addl   $0x1,0x8(%ebp)
/u/s/h/shirui/private/cs537/p3a/p3/xv6-sp20/kernel/fs.c:559
  102336:	8b 45 08             	mov    0x8(%ebp),%eax
  102339:	0f b6 00             	movzbl (%eax),%eax
  10233c:	3c 2f                	cmp    $0x2f,%al
  10233e:	74 f2                	je     102332 <skipelem+0x91>
/u/s/h/shirui/private/cs537/p3a/p3/xv6-sp20/kernel/fs.c:561
  102340:	8b 45 08             	mov    0x8(%ebp),%eax
/u/s/h/shirui/private/cs537/p3a/p3/xv6-sp20/kernel/fs.c:562
  102343:	c9                   	leave  
  102344:	c3                   	ret    

00102345 <namex>:
namex():
/u/s/h/shirui/private/cs537/p3a/p3/xv6-sp20/kernel/fs.c:569
  102345:	55                   	push   %ebp
  102346:	89 e5                	mov    %esp,%ebp
  102348:	83 ec 18             	sub    $0x18,%esp
/u/s/h/shirui/private/cs537/p3a/p3/xv6-sp20/kernel/fs.c:572
  10234b:	8b 45 08             	mov    0x8(%ebp),%eax
  10234e:	0f b6 00             	movzbl (%eax),%eax
  102351:	3c 2f                	cmp    $0x2f,%al
  102353:	75 17                	jne    10236c <namex+0x27>
/u/s/h/shirui/private/cs537/p3a/p3/xv6-sp20/kernel/fs.c:573
  102355:	83 ec 08             	sub    $0x8,%esp
  102358:	6a 01                	push   $0x1
  10235a:	6a 01                	push   $0x1
  10235c:	e8 d5 f3 ff ff       	call   101736 <iget>
  102361:	83 c4 10             	add    $0x10,%esp
  102364:	89 45 f4             	mov    %eax,-0xc(%ebp)
  102367:	e9 bb 00 00 00       	jmp    102427 <namex+0xe2>
/u/s/h/shirui/private/cs537/p3a/p3/xv6-sp20/kernel/fs.c:575
  10236c:	65 a1 04 00 00 00    	mov    %gs:0x4,%eax
  102372:	8b 40 68             	mov    0x68(%eax),%eax
  102375:	83 ec 0c             	sub    $0xc,%esp
  102378:	50                   	push   %eax
  102379:	e8 97 f4 ff ff       	call   101815 <idup>
  10237e:	83 c4 10             	add    $0x10,%esp
  102381:	89 45 f4             	mov    %eax,-0xc(%ebp)
/u/s/h/shirui/private/cs537/p3a/p3/xv6-sp20/kernel/fs.c:577
  102384:	e9 9e 00 00 00       	jmp    102427 <namex+0xe2>
/u/s/h/shirui/private/cs537/p3a/p3/xv6-sp20/kernel/fs.c:578
  102389:	83 ec 0c             	sub    $0xc,%esp
  10238c:	ff 75 f4             	pushl  -0xc(%ebp)
  10238f:	e8 bb f4 ff ff       	call   10184f <ilock>
  102394:	83 c4 10             	add    $0x10,%esp
/u/s/h/shirui/private/cs537/p3a/p3/xv6-sp20/kernel/fs.c:579
  102397:	8b 45 f4             	mov    -0xc(%ebp),%eax
  10239a:	0f b7 40 10          	movzwl 0x10(%eax),%eax
  10239e:	66 83 f8 01          	cmp    $0x1,%ax
  1023a2:	74 18                	je     1023bc <namex+0x77>
/u/s/h/shirui/private/cs537/p3a/p3/xv6-sp20/kernel/fs.c:580
  1023a4:	83 ec 0c             	sub    $0xc,%esp
  1023a7:	ff 75 f4             	pushl  -0xc(%ebp)
  1023aa:	e8 5a f7 ff ff       	call   101b09 <iunlockput>
  1023af:	83 c4 10             	add    $0x10,%esp
/u/s/h/shirui/private/cs537/p3a/p3/xv6-sp20/kernel/fs.c:581
  1023b2:	b8 00 00 00 00       	mov    $0x0,%eax
  1023b7:	e9 a7 00 00 00       	jmp    102463 <namex+0x11e>
/u/s/h/shirui/private/cs537/p3a/p3/xv6-sp20/kernel/fs.c:583
  1023bc:	83 7d 0c 00          	cmpl   $0x0,0xc(%ebp)
  1023c0:	74 20                	je     1023e2 <namex+0x9d>
/u/s/h/shirui/private/cs537/p3a/p3/xv6-sp20/kernel/fs.c:583 (discriminator 1)
  1023c2:	8b 45 08             	mov    0x8(%ebp),%eax
  1023c5:	0f b6 00             	movzbl (%eax),%eax
  1023c8:	84 c0                	test   %al,%al
  1023ca:	75 16                	jne    1023e2 <namex+0x9d>
/u/s/h/shirui/private/cs537/p3a/p3/xv6-sp20/kernel/fs.c:585
  1023cc:	83 ec 0c             	sub    $0xc,%esp
  1023cf:	ff 75 f4             	pushl  -0xc(%ebp)
  1023d2:	e8 d0 f5 ff ff       	call   1019a7 <iunlock>
  1023d7:	83 c4 10             	add    $0x10,%esp
/u/s/h/shirui/private/cs537/p3a/p3/xv6-sp20/kernel/fs.c:586
  1023da:	8b 45 f4             	mov    -0xc(%ebp),%eax
  1023dd:	e9 81 00 00 00       	jmp    102463 <namex+0x11e>
/u/s/h/shirui/private/cs537/p3a/p3/xv6-sp20/kernel/fs.c:588
  1023e2:	83 ec 04             	sub    $0x4,%esp
  1023e5:	6a 00                	push   $0x0
  1023e7:	ff 75 10             	pushl  0x10(%ebp)
  1023ea:	ff 75 f4             	pushl  -0xc(%ebp)
  1023ed:	e8 bb fc ff ff       	call   1020ad <dirlookup>
  1023f2:	83 c4 10             	add    $0x10,%esp
  1023f5:	89 45 f0             	mov    %eax,-0x10(%ebp)
  1023f8:	83 7d f0 00          	cmpl   $0x0,-0x10(%ebp)
  1023fc:	75 15                	jne    102413 <namex+0xce>
/u/s/h/shirui/private/cs537/p3a/p3/xv6-sp20/kernel/fs.c:589
  1023fe:	83 ec 0c             	sub    $0xc,%esp
  102401:	ff 75 f4             	pushl  -0xc(%ebp)
  102404:	e8 00 f7 ff ff       	call   101b09 <iunlockput>
  102409:	83 c4 10             	add    $0x10,%esp
/u/s/h/shirui/private/cs537/p3a/p3/xv6-sp20/kernel/fs.c:590
  10240c:	b8 00 00 00 00       	mov    $0x0,%eax
  102411:	eb 50                	jmp    102463 <namex+0x11e>
/u/s/h/shirui/private/cs537/p3a/p3/xv6-sp20/kernel/fs.c:592
  102413:	83 ec 0c             	sub    $0xc,%esp
  102416:	ff 75 f4             	pushl  -0xc(%ebp)
  102419:	e8 eb f6 ff ff       	call   101b09 <iunlockput>
  10241e:	83 c4 10             	add    $0x10,%esp
/u/s/h/shirui/private/cs537/p3a/p3/xv6-sp20/kernel/fs.c:593
  102421:	8b 45 f0             	mov    -0x10(%ebp),%eax
  102424:	89 45 f4             	mov    %eax,-0xc(%ebp)
/u/s/h/shirui/private/cs537/p3a/p3/xv6-sp20/kernel/fs.c:577
  102427:	83 ec 08             	sub    $0x8,%esp
  10242a:	ff 75 10             	pushl  0x10(%ebp)
  10242d:	ff 75 08             	pushl  0x8(%ebp)
  102430:	e8 6c fe ff ff       	call   1022a1 <skipelem>
  102435:	83 c4 10             	add    $0x10,%esp
  102438:	89 45 08             	mov    %eax,0x8(%ebp)
  10243b:	83 7d 08 00          	cmpl   $0x0,0x8(%ebp)
  10243f:	0f 85 44 ff ff ff    	jne    102389 <namex+0x44>
/u/s/h/shirui/private/cs537/p3a/p3/xv6-sp20/kernel/fs.c:595
  102445:	83 7d 0c 00          	cmpl   $0x0,0xc(%ebp)
  102449:	74 15                	je     102460 <namex+0x11b>
/u/s/h/shirui/private/cs537/p3a/p3/xv6-sp20/kernel/fs.c:596
  10244b:	83 ec 0c             	sub    $0xc,%esp
  10244e:	ff 75 f4             	pushl  -0xc(%ebp)
  102451:	e8 c3 f5 ff ff       	call   101a19 <iput>
  102456:	83 c4 10             	add    $0x10,%esp
/u/s/h/shirui/private/cs537/p3a/p3/xv6-sp20/kernel/fs.c:597
  102459:	b8 00 00 00 00       	mov    $0x0,%eax
  10245e:	eb 03                	jmp    102463 <namex+0x11e>
/u/s/h/shirui/private/cs537/p3a/p3/xv6-sp20/kernel/fs.c:599
  102460:	8b 45 f4             	mov    -0xc(%ebp),%eax
/u/s/h/shirui/private/cs537/p3a/p3/xv6-sp20/kernel/fs.c:600
  102463:	c9                   	leave  
  102464:	c3                   	ret    

00102465 <namei>:
namei():
/u/s/h/shirui/private/cs537/p3a/p3/xv6-sp20/kernel/fs.c:604
  102465:	55                   	push   %ebp
  102466:	89 e5                	mov    %esp,%ebp
  102468:	83 ec 18             	sub    $0x18,%esp
/u/s/h/shirui/private/cs537/p3a/p3/xv6-sp20/kernel/fs.c:606
  10246b:	83 ec 04             	sub    $0x4,%esp
  10246e:	8d 45 ea             	lea    -0x16(%ebp),%eax
  102471:	50                   	push   %eax
  102472:	6a 00                	push   $0x0
  102474:	ff 75 08             	pushl  0x8(%ebp)
  102477:	e8 c9 fe ff ff       	call   102345 <namex>
  10247c:	83 c4 10             	add    $0x10,%esp
/u/s/h/shirui/private/cs537/p3a/p3/xv6-sp20/kernel/fs.c:607
  10247f:	c9                   	leave  
  102480:	c3                   	ret    

00102481 <nameiparent>:
nameiparent():
/u/s/h/shirui/private/cs537/p3a/p3/xv6-sp20/kernel/fs.c:611
  102481:	55                   	push   %ebp
  102482:	89 e5                	mov    %esp,%ebp
  102484:	83 ec 08             	sub    $0x8,%esp
/u/s/h/shirui/private/cs537/p3a/p3/xv6-sp20/kernel/fs.c:612
  102487:	83 ec 04             	sub    $0x4,%esp
  10248a:	ff 75 0c             	pushl  0xc(%ebp)
  10248d:	6a 01                	push   $0x1
  10248f:	ff 75 08             	pushl  0x8(%ebp)
  102492:	e8 ae fe ff ff       	call   102345 <namex>
  102497:	83 c4 10             	add    $0x10,%esp
/u/s/h/shirui/private/cs537/p3a/p3/xv6-sp20/kernel/fs.c:613
  10249a:	c9                   	leave  
  10249b:	c3                   	ret    

0010249c <inb>:
inb():
/u/s/h/shirui/private/cs537/p3a/p3/xv6-sp20/include/x86.h:7
  10249c:	55                   	push   %ebp
  10249d:	89 e5                	mov    %esp,%ebp
  10249f:	83 ec 14             	sub    $0x14,%esp
  1024a2:	8b 45 08             	mov    0x8(%ebp),%eax
  1024a5:	66 89 45 ec          	mov    %ax,-0x14(%ebp)
/u/s/h/shirui/private/cs537/p3a/p3/xv6-sp20/include/x86.h:10
  1024a9:	0f b7 45 ec          	movzwl -0x14(%ebp),%eax
  1024ad:	89 c2                	mov    %eax,%edx
  1024af:	ec                   	in     (%dx),%al
  1024b0:	88 45 ff             	mov    %al,-0x1(%ebp)
/u/s/h/shirui/private/cs537/p3a/p3/xv6-sp20/include/x86.h:11
  1024b3:	0f b6 45 ff          	movzbl -0x1(%ebp),%eax
/u/s/h/shirui/private/cs537/p3a/p3/xv6-sp20/include/x86.h:12
  1024b7:	c9                   	leave  
  1024b8:	c3                   	ret    

001024b9 <insl>:
insl():
/u/s/h/shirui/private/cs537/p3a/p3/xv6-sp20/include/x86.h:16
  1024b9:	55                   	push   %ebp
  1024ba:	89 e5                	mov    %esp,%ebp
  1024bc:	57                   	push   %edi
  1024bd:	53                   	push   %ebx
/u/s/h/shirui/private/cs537/p3a/p3/xv6-sp20/include/x86.h:17
  1024be:	8b 55 08             	mov    0x8(%ebp),%edx
  1024c1:	8b 4d 0c             	mov    0xc(%ebp),%ecx
  1024c4:	8b 45 10             	mov    0x10(%ebp),%eax
  1024c7:	89 cb                	mov    %ecx,%ebx
  1024c9:	89 df                	mov    %ebx,%edi
  1024cb:	89 c1                	mov    %eax,%ecx
  1024cd:	fc                   	cld    
  1024ce:	f3 6d                	rep insl (%dx),%es:(%edi)
  1024d0:	89 c8                	mov    %ecx,%eax
  1024d2:	89 fb                	mov    %edi,%ebx
  1024d4:	89 5d 0c             	mov    %ebx,0xc(%ebp)
  1024d7:	89 45 10             	mov    %eax,0x10(%ebp)
/u/s/h/shirui/private/cs537/p3a/p3/xv6-sp20/include/x86.h:21
  1024da:	90                   	nop
  1024db:	5b                   	pop    %ebx
  1024dc:	5f                   	pop    %edi
  1024dd:	5d                   	pop    %ebp
  1024de:	c3                   	ret    

001024df <outb>:
outb():
/u/s/h/shirui/private/cs537/p3a/p3/xv6-sp20/include/x86.h:25
  1024df:	55                   	push   %ebp
  1024e0:	89 e5                	mov    %esp,%ebp
  1024e2:	83 ec 08             	sub    $0x8,%esp
  1024e5:	8b 55 08             	mov    0x8(%ebp),%edx
  1024e8:	8b 45 0c             	mov    0xc(%ebp),%eax
  1024eb:	66 89 55 fc          	mov    %dx,-0x4(%ebp)
  1024ef:	88 45 f8             	mov    %al,-0x8(%ebp)
/u/s/h/shirui/private/cs537/p3a/p3/xv6-sp20/include/x86.h:26
  1024f2:	0f b6 45 f8          	movzbl -0x8(%ebp),%eax
  1024f6:	0f b7 55 fc          	movzwl -0x4(%ebp),%edx
  1024fa:	ee                   	out    %al,(%dx)
/u/s/h/shirui/private/cs537/p3a/p3/xv6-sp20/include/x86.h:27
  1024fb:	90                   	nop
  1024fc:	c9                   	leave  
  1024fd:	c3                   	ret    

001024fe <outsl>:
outsl():
/u/s/h/shirui/private/cs537/p3a/p3/xv6-sp20/include/x86.h:37
  1024fe:	55                   	push   %ebp
  1024ff:	89 e5                	mov    %esp,%ebp
  102501:	56                   	push   %esi
  102502:	53                   	push   %ebx
/u/s/h/shirui/private/cs537/p3a/p3/xv6-sp20/include/x86.h:38
  102503:	8b 55 08             	mov    0x8(%ebp),%edx
  102506:	8b 4d 0c             	mov    0xc(%ebp),%ecx
  102509:	8b 45 10             	mov    0x10(%ebp),%eax
  10250c:	89 cb                	mov    %ecx,%ebx
  10250e:	89 de                	mov    %ebx,%esi
  102510:	89 c1                	mov    %eax,%ecx
  102512:	fc                   	cld    
  102513:	f3 6f                	rep outsl %ds:(%esi),(%dx)
  102515:	89 c8                	mov    %ecx,%eax
  102517:	89 f3                	mov    %esi,%ebx
  102519:	89 5d 0c             	mov    %ebx,0xc(%ebp)
  10251c:	89 45 10             	mov    %eax,0x10(%ebp)
/u/s/h/shirui/private/cs537/p3a/p3/xv6-sp20/include/x86.h:42
  10251f:	90                   	nop
  102520:	5b                   	pop    %ebx
  102521:	5e                   	pop    %esi
  102522:	5d                   	pop    %ebp
  102523:	c3                   	ret    

00102524 <idewait>:
idewait():
/u/s/h/shirui/private/cs537/p3a/p3/xv6-sp20/kernel/ide.c:34
  102524:	55                   	push   %ebp
  102525:	89 e5                	mov    %esp,%ebp
  102527:	83 ec 10             	sub    $0x10,%esp
/u/s/h/shirui/private/cs537/p3a/p3/xv6-sp20/kernel/ide.c:37
  10252a:	90                   	nop
/u/s/h/shirui/private/cs537/p3a/p3/xv6-sp20/kernel/ide.c:37 (discriminator 1)
  10252b:	68 f7 01 00 00       	push   $0x1f7
  102530:	e8 67 ff ff ff       	call   10249c <inb>
  102535:	83 c4 04             	add    $0x4,%esp
  102538:	0f b6 c0             	movzbl %al,%eax
  10253b:	89 45 fc             	mov    %eax,-0x4(%ebp)
  10253e:	8b 45 fc             	mov    -0x4(%ebp),%eax
  102541:	25 c0 00 00 00       	and    $0xc0,%eax
  102546:	83 f8 40             	cmp    $0x40,%eax
  102549:	75 e0                	jne    10252b <idewait+0x7>
/u/s/h/shirui/private/cs537/p3a/p3/xv6-sp20/kernel/ide.c:39
  10254b:	83 7d 08 00          	cmpl   $0x0,0x8(%ebp)
  10254f:	74 11                	je     102562 <idewait+0x3e>
/u/s/h/shirui/private/cs537/p3a/p3/xv6-sp20/kernel/ide.c:39 (discriminator 1)
  102551:	8b 45 fc             	mov    -0x4(%ebp),%eax
  102554:	83 e0 21             	and    $0x21,%eax
  102557:	85 c0                	test   %eax,%eax
  102559:	74 07                	je     102562 <idewait+0x3e>
/u/s/h/shirui/private/cs537/p3a/p3/xv6-sp20/kernel/ide.c:40
  10255b:	b8 ff ff ff ff       	mov    $0xffffffff,%eax
  102560:	eb 05                	jmp    102567 <idewait+0x43>
/u/s/h/shirui/private/cs537/p3a/p3/xv6-sp20/kernel/ide.c:41
  102562:	b8 00 00 00 00       	mov    $0x0,%eax
/u/s/h/shirui/private/cs537/p3a/p3/xv6-sp20/kernel/ide.c:42
  102567:	c9                   	leave  
  102568:	c3                   	ret    

00102569 <ideinit>:
ideinit():
/u/s/h/shirui/private/cs537/p3a/p3/xv6-sp20/kernel/ide.c:46
  102569:	55                   	push   %ebp
  10256a:	89 e5                	mov    %esp,%ebp
  10256c:	83 ec 18             	sub    $0x18,%esp
/u/s/h/shirui/private/cs537/p3a/p3/xv6-sp20/kernel/ide.c:49
  10256f:	83 ec 08             	sub    $0x8,%esp
  102572:	68 47 80 10 00       	push   $0x108047
  102577:	68 20 bb 10 00       	push   $0x10bb20
  10257c:	e8 dd 22 00 00       	call   10485e <initlock>
  102581:	83 c4 10             	add    $0x10,%esp
/u/s/h/shirui/private/cs537/p3a/p3/xv6-sp20/kernel/ide.c:50
  102584:	83 ec 0c             	sub    $0xc,%esp
  102587:	6a 0e                	push   $0xe
  102589:	e8 50 12 00 00       	call   1037de <picenable>
  10258e:	83 c4 10             	add    $0x10,%esp
/u/s/h/shirui/private/cs537/p3a/p3/xv6-sp20/kernel/ide.c:51
  102591:	a1 c0 03 11 00       	mov    0x1103c0,%eax
  102596:	83 e8 01             	sub    $0x1,%eax
  102599:	83 ec 08             	sub    $0x8,%esp
  10259c:	50                   	push   %eax
  10259d:	6a 0e                	push   $0xe
  10259f:	e8 37 04 00 00       	call   1029db <ioapicenable>
  1025a4:	83 c4 10             	add    $0x10,%esp
/u/s/h/shirui/private/cs537/p3a/p3/xv6-sp20/kernel/ide.c:52
  1025a7:	83 ec 0c             	sub    $0xc,%esp
  1025aa:	6a 00                	push   $0x0
  1025ac:	e8 73 ff ff ff       	call   102524 <idewait>
  1025b1:	83 c4 10             	add    $0x10,%esp
/u/s/h/shirui/private/cs537/p3a/p3/xv6-sp20/kernel/ide.c:55
  1025b4:	83 ec 08             	sub    $0x8,%esp
  1025b7:	68 f0 00 00 00       	push   $0xf0
  1025bc:	68 f6 01 00 00       	push   $0x1f6
  1025c1:	e8 19 ff ff ff       	call   1024df <outb>
  1025c6:	83 c4 10             	add    $0x10,%esp
/u/s/h/shirui/private/cs537/p3a/p3/xv6-sp20/kernel/ide.c:56
  1025c9:	c7 45 f4 00 00 00 00 	movl   $0x0,-0xc(%ebp)
  1025d0:	eb 24                	jmp    1025f6 <ideinit+0x8d>
/u/s/h/shirui/private/cs537/p3a/p3/xv6-sp20/kernel/ide.c:57
  1025d2:	83 ec 0c             	sub    $0xc,%esp
  1025d5:	68 f7 01 00 00       	push   $0x1f7
  1025da:	e8 bd fe ff ff       	call   10249c <inb>
  1025df:	83 c4 10             	add    $0x10,%esp
  1025e2:	84 c0                	test   %al,%al
  1025e4:	74 0c                	je     1025f2 <ideinit+0x89>
/u/s/h/shirui/private/cs537/p3a/p3/xv6-sp20/kernel/ide.c:58
  1025e6:	c7 05 58 bb 10 00 01 	movl   $0x1,0x10bb58
  1025ed:	00 00 00 
/u/s/h/shirui/private/cs537/p3a/p3/xv6-sp20/kernel/ide.c:59
  1025f0:	eb 0d                	jmp    1025ff <ideinit+0x96>
/u/s/h/shirui/private/cs537/p3a/p3/xv6-sp20/kernel/ide.c:56 (discriminator 2)
  1025f2:	83 45 f4 01          	addl   $0x1,-0xc(%ebp)
/u/s/h/shirui/private/cs537/p3a/p3/xv6-sp20/kernel/ide.c:56 (discriminator 1)
  1025f6:	81 7d f4 e7 03 00 00 	cmpl   $0x3e7,-0xc(%ebp)
  1025fd:	7e d3                	jle    1025d2 <ideinit+0x69>
/u/s/h/shirui/private/cs537/p3a/p3/xv6-sp20/kernel/ide.c:64
  1025ff:	83 ec 08             	sub    $0x8,%esp
  102602:	68 e0 00 00 00       	push   $0xe0
  102607:	68 f6 01 00 00       	push   $0x1f6
  10260c:	e8 ce fe ff ff       	call   1024df <outb>
  102611:	83 c4 10             	add    $0x10,%esp
/u/s/h/shirui/private/cs537/p3a/p3/xv6-sp20/kernel/ide.c:65
  102614:	90                   	nop
  102615:	c9                   	leave  
  102616:	c3                   	ret    

00102617 <idestart>:
idestart():
/u/s/h/shirui/private/cs537/p3a/p3/xv6-sp20/kernel/ide.c:70
  102617:	55                   	push   %ebp
  102618:	89 e5                	mov    %esp,%ebp
  10261a:	83 ec 08             	sub    $0x8,%esp
/u/s/h/shirui/private/cs537/p3a/p3/xv6-sp20/kernel/ide.c:71
  10261d:	83 7d 08 00          	cmpl   $0x0,0x8(%ebp)
  102621:	75 0d                	jne    102630 <idestart+0x19>
/u/s/h/shirui/private/cs537/p3a/p3/xv6-sp20/kernel/ide.c:72
  102623:	83 ec 0c             	sub    $0xc,%esp
  102626:	68 4b 80 10 00       	push   $0x10804b
  10262b:	e8 48 df ff ff       	call   100578 <panic>
/u/s/h/shirui/private/cs537/p3a/p3/xv6-sp20/kernel/ide.c:74
  102630:	83 ec 0c             	sub    $0xc,%esp
  102633:	6a 00                	push   $0x0
  102635:	e8 ea fe ff ff       	call   102524 <idewait>
  10263a:	83 c4 10             	add    $0x10,%esp
/u/s/h/shirui/private/cs537/p3a/p3/xv6-sp20/kernel/ide.c:75
  10263d:	83 ec 08             	sub    $0x8,%esp
  102640:	6a 00                	push   $0x0
  102642:	68 f6 03 00 00       	push   $0x3f6
  102647:	e8 93 fe ff ff       	call   1024df <outb>
  10264c:	83 c4 10             	add    $0x10,%esp
/u/s/h/shirui/private/cs537/p3a/p3/xv6-sp20/kernel/ide.c:76
  10264f:	83 ec 08             	sub    $0x8,%esp
  102652:	6a 01                	push   $0x1
  102654:	68 f2 01 00 00       	push   $0x1f2
  102659:	e8 81 fe ff ff       	call   1024df <outb>
  10265e:	83 c4 10             	add    $0x10,%esp
/u/s/h/shirui/private/cs537/p3a/p3/xv6-sp20/kernel/ide.c:77
  102661:	8b 45 08             	mov    0x8(%ebp),%eax
  102664:	8b 40 08             	mov    0x8(%eax),%eax
  102667:	0f b6 c0             	movzbl %al,%eax
  10266a:	83 ec 08             	sub    $0x8,%esp
  10266d:	50                   	push   %eax
  10266e:	68 f3 01 00 00       	push   $0x1f3
  102673:	e8 67 fe ff ff       	call   1024df <outb>
  102678:	83 c4 10             	add    $0x10,%esp
/u/s/h/shirui/private/cs537/p3a/p3/xv6-sp20/kernel/ide.c:78
  10267b:	8b 45 08             	mov    0x8(%ebp),%eax
  10267e:	8b 40 08             	mov    0x8(%eax),%eax
  102681:	c1 e8 08             	shr    $0x8,%eax
  102684:	0f b6 c0             	movzbl %al,%eax
  102687:	83 ec 08             	sub    $0x8,%esp
  10268a:	50                   	push   %eax
  10268b:	68 f4 01 00 00       	push   $0x1f4
  102690:	e8 4a fe ff ff       	call   1024df <outb>
  102695:	83 c4 10             	add    $0x10,%esp
/u/s/h/shirui/private/cs537/p3a/p3/xv6-sp20/kernel/ide.c:79
  102698:	8b 45 08             	mov    0x8(%ebp),%eax
  10269b:	8b 40 08             	mov    0x8(%eax),%eax
  10269e:	c1 e8 10             	shr    $0x10,%eax
  1026a1:	0f b6 c0             	movzbl %al,%eax
  1026a4:	83 ec 08             	sub    $0x8,%esp
  1026a7:	50                   	push   %eax
  1026a8:	68 f5 01 00 00       	push   $0x1f5
  1026ad:	e8 2d fe ff ff       	call   1024df <outb>
  1026b2:	83 c4 10             	add    $0x10,%esp
/u/s/h/shirui/private/cs537/p3a/p3/xv6-sp20/kernel/ide.c:80
  1026b5:	8b 45 08             	mov    0x8(%ebp),%eax
  1026b8:	8b 40 04             	mov    0x4(%eax),%eax
  1026bb:	c1 e0 04             	shl    $0x4,%eax
  1026be:	83 e0 10             	and    $0x10,%eax
  1026c1:	89 c2                	mov    %eax,%edx
  1026c3:	8b 45 08             	mov    0x8(%ebp),%eax
  1026c6:	8b 40 08             	mov    0x8(%eax),%eax
  1026c9:	c1 e8 18             	shr    $0x18,%eax
  1026cc:	83 e0 0f             	and    $0xf,%eax
  1026cf:	09 d0                	or     %edx,%eax
  1026d1:	83 c8 e0             	or     $0xffffffe0,%eax
  1026d4:	0f b6 c0             	movzbl %al,%eax
  1026d7:	83 ec 08             	sub    $0x8,%esp
  1026da:	50                   	push   %eax
  1026db:	68 f6 01 00 00       	push   $0x1f6
  1026e0:	e8 fa fd ff ff       	call   1024df <outb>
  1026e5:	83 c4 10             	add    $0x10,%esp
/u/s/h/shirui/private/cs537/p3a/p3/xv6-sp20/kernel/ide.c:81
  1026e8:	8b 45 08             	mov    0x8(%ebp),%eax
  1026eb:	8b 00                	mov    (%eax),%eax
  1026ed:	83 e0 04             	and    $0x4,%eax
  1026f0:	85 c0                	test   %eax,%eax
  1026f2:	74 30                	je     102724 <idestart+0x10d>
/u/s/h/shirui/private/cs537/p3a/p3/xv6-sp20/kernel/ide.c:82
  1026f4:	83 ec 08             	sub    $0x8,%esp
  1026f7:	6a 30                	push   $0x30
  1026f9:	68 f7 01 00 00       	push   $0x1f7
  1026fe:	e8 dc fd ff ff       	call   1024df <outb>
  102703:	83 c4 10             	add    $0x10,%esp
/u/s/h/shirui/private/cs537/p3a/p3/xv6-sp20/kernel/ide.c:83
  102706:	8b 45 08             	mov    0x8(%ebp),%eax
  102709:	83 c0 18             	add    $0x18,%eax
  10270c:	83 ec 04             	sub    $0x4,%esp
  10270f:	68 80 00 00 00       	push   $0x80
  102714:	50                   	push   %eax
  102715:	68 f0 01 00 00       	push   $0x1f0
  10271a:	e8 df fd ff ff       	call   1024fe <outsl>
  10271f:	83 c4 10             	add    $0x10,%esp
/u/s/h/shirui/private/cs537/p3a/p3/xv6-sp20/kernel/ide.c:87
  102722:	eb 12                	jmp    102736 <idestart+0x11f>
/u/s/h/shirui/private/cs537/p3a/p3/xv6-sp20/kernel/ide.c:85
  102724:	83 ec 08             	sub    $0x8,%esp
  102727:	6a 20                	push   $0x20
  102729:	68 f7 01 00 00       	push   $0x1f7
  10272e:	e8 ac fd ff ff       	call   1024df <outb>
  102733:	83 c4 10             	add    $0x10,%esp
/u/s/h/shirui/private/cs537/p3a/p3/xv6-sp20/kernel/ide.c:87
  102736:	90                   	nop
  102737:	c9                   	leave  
  102738:	c3                   	ret    

00102739 <ideintr>:
ideintr():
/u/s/h/shirui/private/cs537/p3a/p3/xv6-sp20/kernel/ide.c:92
  102739:	55                   	push   %ebp
  10273a:	89 e5                	mov    %esp,%ebp
  10273c:	83 ec 18             	sub    $0x18,%esp
/u/s/h/shirui/private/cs537/p3a/p3/xv6-sp20/kernel/ide.c:96
  10273f:	83 ec 0c             	sub    $0xc,%esp
  102742:	68 20 bb 10 00       	push   $0x10bb20
  102747:	e8 34 21 00 00       	call   104880 <acquire>
  10274c:	83 c4 10             	add    $0x10,%esp
/u/s/h/shirui/private/cs537/p3a/p3/xv6-sp20/kernel/ide.c:97
  10274f:	a1 54 bb 10 00       	mov    0x10bb54,%eax
  102754:	89 45 f4             	mov    %eax,-0xc(%ebp)
  102757:	83 7d f4 00          	cmpl   $0x0,-0xc(%ebp)
  10275b:	75 15                	jne    102772 <ideintr+0x39>
/u/s/h/shirui/private/cs537/p3a/p3/xv6-sp20/kernel/ide.c:98
  10275d:	83 ec 0c             	sub    $0xc,%esp
  102760:	68 20 bb 10 00       	push   $0x10bb20
  102765:	e8 7d 21 00 00       	call   1048e7 <release>
  10276a:	83 c4 10             	add    $0x10,%esp
/u/s/h/shirui/private/cs537/p3a/p3/xv6-sp20/kernel/ide.c:100
  10276d:	e9 9a 00 00 00       	jmp    10280c <ideintr+0xd3>
/u/s/h/shirui/private/cs537/p3a/p3/xv6-sp20/kernel/ide.c:102
  102772:	8b 45 f4             	mov    -0xc(%ebp),%eax
  102775:	8b 40 14             	mov    0x14(%eax),%eax
  102778:	a3 54 bb 10 00       	mov    %eax,0x10bb54
/u/s/h/shirui/private/cs537/p3a/p3/xv6-sp20/kernel/ide.c:105
  10277d:	8b 45 f4             	mov    -0xc(%ebp),%eax
  102780:	8b 00                	mov    (%eax),%eax
  102782:	83 e0 04             	and    $0x4,%eax
  102785:	85 c0                	test   %eax,%eax
  102787:	75 2d                	jne    1027b6 <ideintr+0x7d>
/u/s/h/shirui/private/cs537/p3a/p3/xv6-sp20/kernel/ide.c:105 (discriminator 1)
  102789:	83 ec 0c             	sub    $0xc,%esp
  10278c:	6a 01                	push   $0x1
  10278e:	e8 91 fd ff ff       	call   102524 <idewait>
  102793:	83 c4 10             	add    $0x10,%esp
  102796:	85 c0                	test   %eax,%eax
  102798:	78 1c                	js     1027b6 <ideintr+0x7d>
/u/s/h/shirui/private/cs537/p3a/p3/xv6-sp20/kernel/ide.c:106
  10279a:	8b 45 f4             	mov    -0xc(%ebp),%eax
  10279d:	83 c0 18             	add    $0x18,%eax
  1027a0:	83 ec 04             	sub    $0x4,%esp
  1027a3:	68 80 00 00 00       	push   $0x80
  1027a8:	50                   	push   %eax
  1027a9:	68 f0 01 00 00       	push   $0x1f0
  1027ae:	e8 06 fd ff ff       	call   1024b9 <insl>
  1027b3:	83 c4 10             	add    $0x10,%esp
/u/s/h/shirui/private/cs537/p3a/p3/xv6-sp20/kernel/ide.c:109
  1027b6:	8b 45 f4             	mov    -0xc(%ebp),%eax
  1027b9:	8b 00                	mov    (%eax),%eax
  1027bb:	83 c8 02             	or     $0x2,%eax
  1027be:	89 c2                	mov    %eax,%edx
  1027c0:	8b 45 f4             	mov    -0xc(%ebp),%eax
  1027c3:	89 10                	mov    %edx,(%eax)
/u/s/h/shirui/private/cs537/p3a/p3/xv6-sp20/kernel/ide.c:110
  1027c5:	8b 45 f4             	mov    -0xc(%ebp),%eax
  1027c8:	8b 00                	mov    (%eax),%eax
  1027ca:	83 e0 fb             	and    $0xfffffffb,%eax
  1027cd:	89 c2                	mov    %eax,%edx
  1027cf:	8b 45 f4             	mov    -0xc(%ebp),%eax
  1027d2:	89 10                	mov    %edx,(%eax)
/u/s/h/shirui/private/cs537/p3a/p3/xv6-sp20/kernel/ide.c:111
  1027d4:	83 ec 0c             	sub    $0xc,%esp
  1027d7:	ff 75 f4             	pushl  -0xc(%ebp)
  1027da:	e8 93 1e 00 00       	call   104672 <wakeup>
  1027df:	83 c4 10             	add    $0x10,%esp
/u/s/h/shirui/private/cs537/p3a/p3/xv6-sp20/kernel/ide.c:114
  1027e2:	a1 54 bb 10 00       	mov    0x10bb54,%eax
  1027e7:	85 c0                	test   %eax,%eax
  1027e9:	74 11                	je     1027fc <ideintr+0xc3>
/u/s/h/shirui/private/cs537/p3a/p3/xv6-sp20/kernel/ide.c:115
  1027eb:	a1 54 bb 10 00       	mov    0x10bb54,%eax
  1027f0:	83 ec 0c             	sub    $0xc,%esp
  1027f3:	50                   	push   %eax
  1027f4:	e8 1e fe ff ff       	call   102617 <idestart>
  1027f9:	83 c4 10             	add    $0x10,%esp
/u/s/h/shirui/private/cs537/p3a/p3/xv6-sp20/kernel/ide.c:117
  1027fc:	83 ec 0c             	sub    $0xc,%esp
  1027ff:	68 20 bb 10 00       	push   $0x10bb20
  102804:	e8 de 20 00 00       	call   1048e7 <release>
  102809:	83 c4 10             	add    $0x10,%esp
/u/s/h/shirui/private/cs537/p3a/p3/xv6-sp20/kernel/ide.c:118
  10280c:	c9                   	leave  
  10280d:	c3                   	ret    

0010280e <iderw>:
iderw():
/u/s/h/shirui/private/cs537/p3a/p3/xv6-sp20/kernel/ide.c:125
  10280e:	55                   	push   %ebp
  10280f:	89 e5                	mov    %esp,%ebp
  102811:	83 ec 18             	sub    $0x18,%esp
/u/s/h/shirui/private/cs537/p3a/p3/xv6-sp20/kernel/ide.c:128
  102814:	8b 45 08             	mov    0x8(%ebp),%eax
  102817:	8b 00                	mov    (%eax),%eax
  102819:	83 e0 01             	and    $0x1,%eax
  10281c:	85 c0                	test   %eax,%eax
  10281e:	75 0d                	jne    10282d <iderw+0x1f>
/u/s/h/shirui/private/cs537/p3a/p3/xv6-sp20/kernel/ide.c:129
  102820:	83 ec 0c             	sub    $0xc,%esp
  102823:	68 54 80 10 00       	push   $0x108054
  102828:	e8 4b dd ff ff       	call   100578 <panic>
/u/s/h/shirui/private/cs537/p3a/p3/xv6-sp20/kernel/ide.c:130
  10282d:	8b 45 08             	mov    0x8(%ebp),%eax
  102830:	8b 00                	mov    (%eax),%eax
  102832:	83 e0 06             	and    $0x6,%eax
  102835:	83 f8 02             	cmp    $0x2,%eax
  102838:	75 0d                	jne    102847 <iderw+0x39>
/u/s/h/shirui/private/cs537/p3a/p3/xv6-sp20/kernel/ide.c:131
  10283a:	83 ec 0c             	sub    $0xc,%esp
  10283d:	68 68 80 10 00       	push   $0x108068
  102842:	e8 31 dd ff ff       	call   100578 <panic>
/u/s/h/shirui/private/cs537/p3a/p3/xv6-sp20/kernel/ide.c:132
  102847:	8b 45 08             	mov    0x8(%ebp),%eax
  10284a:	8b 40 04             	mov    0x4(%eax),%eax
  10284d:	85 c0                	test   %eax,%eax
  10284f:	74 16                	je     102867 <iderw+0x59>
/u/s/h/shirui/private/cs537/p3a/p3/xv6-sp20/kernel/ide.c:132 (discriminator 1)
  102851:	a1 58 bb 10 00       	mov    0x10bb58,%eax
  102856:	85 c0                	test   %eax,%eax
  102858:	75 0d                	jne    102867 <iderw+0x59>
/u/s/h/shirui/private/cs537/p3a/p3/xv6-sp20/kernel/ide.c:133
  10285a:	83 ec 0c             	sub    $0xc,%esp
  10285d:	68 7d 80 10 00       	push   $0x10807d
  102862:	e8 11 dd ff ff       	call   100578 <panic>
/u/s/h/shirui/private/cs537/p3a/p3/xv6-sp20/kernel/ide.c:135
  102867:	83 ec 0c             	sub    $0xc,%esp
  10286a:	68 20 bb 10 00       	push   $0x10bb20
  10286f:	e8 0c 20 00 00       	call   104880 <acquire>
  102874:	83 c4 10             	add    $0x10,%esp
/u/s/h/shirui/private/cs537/p3a/p3/xv6-sp20/kernel/ide.c:138
  102877:	8b 45 08             	mov    0x8(%ebp),%eax
  10287a:	c7 40 14 00 00 00 00 	movl   $0x0,0x14(%eax)
/u/s/h/shirui/private/cs537/p3a/p3/xv6-sp20/kernel/ide.c:139
  102881:	c7 45 f4 54 bb 10 00 	movl   $0x10bb54,-0xc(%ebp)
  102888:	eb 0b                	jmp    102895 <iderw+0x87>
/u/s/h/shirui/private/cs537/p3a/p3/xv6-sp20/kernel/ide.c:139 (discriminator 3)
  10288a:	8b 45 f4             	mov    -0xc(%ebp),%eax
  10288d:	8b 00                	mov    (%eax),%eax
  10288f:	83 c0 14             	add    $0x14,%eax
  102892:	89 45 f4             	mov    %eax,-0xc(%ebp)
/u/s/h/shirui/private/cs537/p3a/p3/xv6-sp20/kernel/ide.c:139 (discriminator 1)
  102895:	8b 45 f4             	mov    -0xc(%ebp),%eax
  102898:	8b 00                	mov    (%eax),%eax
  10289a:	85 c0                	test   %eax,%eax
  10289c:	75 ec                	jne    10288a <iderw+0x7c>
/u/s/h/shirui/private/cs537/p3a/p3/xv6-sp20/kernel/ide.c:141
  10289e:	8b 45 f4             	mov    -0xc(%ebp),%eax
  1028a1:	8b 55 08             	mov    0x8(%ebp),%edx
  1028a4:	89 10                	mov    %edx,(%eax)
/u/s/h/shirui/private/cs537/p3a/p3/xv6-sp20/kernel/ide.c:144
  1028a6:	a1 54 bb 10 00       	mov    0x10bb54,%eax
  1028ab:	39 45 08             	cmp    %eax,0x8(%ebp)
  1028ae:	75 23                	jne    1028d3 <iderw+0xc5>
/u/s/h/shirui/private/cs537/p3a/p3/xv6-sp20/kernel/ide.c:145
  1028b0:	83 ec 0c             	sub    $0xc,%esp
  1028b3:	ff 75 08             	pushl  0x8(%ebp)
  1028b6:	e8 5c fd ff ff       	call   102617 <idestart>
  1028bb:	83 c4 10             	add    $0x10,%esp
/u/s/h/shirui/private/cs537/p3a/p3/xv6-sp20/kernel/ide.c:149
  1028be:	eb 13                	jmp    1028d3 <iderw+0xc5>
/u/s/h/shirui/private/cs537/p3a/p3/xv6-sp20/kernel/ide.c:150
  1028c0:	83 ec 08             	sub    $0x8,%esp
  1028c3:	68 20 bb 10 00       	push   $0x10bb20
  1028c8:	ff 75 08             	pushl  0x8(%ebp)
  1028cb:	e8 b7 1c 00 00       	call   104587 <sleep>
  1028d0:	83 c4 10             	add    $0x10,%esp
/u/s/h/shirui/private/cs537/p3a/p3/xv6-sp20/kernel/ide.c:149
  1028d3:	8b 45 08             	mov    0x8(%ebp),%eax
  1028d6:	8b 00                	mov    (%eax),%eax
  1028d8:	83 e0 06             	and    $0x6,%eax
  1028db:	83 f8 02             	cmp    $0x2,%eax
  1028de:	75 e0                	jne    1028c0 <iderw+0xb2>
/u/s/h/shirui/private/cs537/p3a/p3/xv6-sp20/kernel/ide.c:153
  1028e0:	83 ec 0c             	sub    $0xc,%esp
  1028e3:	68 20 bb 10 00       	push   $0x10bb20
  1028e8:	e8 fa 1f 00 00       	call   1048e7 <release>
  1028ed:	83 c4 10             	add    $0x10,%esp
/u/s/h/shirui/private/cs537/p3a/p3/xv6-sp20/kernel/ide.c:154
  1028f0:	90                   	nop
  1028f1:	c9                   	leave  
  1028f2:	c3                   	ret    

001028f3 <ioapicread>:
ioapicread():
/u/s/h/shirui/private/cs537/p3a/p3/xv6-sp20/kernel/ioapic.c:36
  1028f3:	55                   	push   %ebp
  1028f4:	89 e5                	mov    %esp,%ebp
/u/s/h/shirui/private/cs537/p3a/p3/xv6-sp20/kernel/ioapic.c:37
  1028f6:	a1 54 fd 10 00       	mov    0x10fd54,%eax
  1028fb:	8b 55 08             	mov    0x8(%ebp),%edx
  1028fe:	89 10                	mov    %edx,(%eax)
/u/s/h/shirui/private/cs537/p3a/p3/xv6-sp20/kernel/ioapic.c:38
  102900:	a1 54 fd 10 00       	mov    0x10fd54,%eax
  102905:	8b 40 10             	mov    0x10(%eax),%eax
/u/s/h/shirui/private/cs537/p3a/p3/xv6-sp20/kernel/ioapic.c:39
  102908:	5d                   	pop    %ebp
  102909:	c3                   	ret    

0010290a <ioapicwrite>:
ioapicwrite():
/u/s/h/shirui/private/cs537/p3a/p3/xv6-sp20/kernel/ioapic.c:43
  10290a:	55                   	push   %ebp
  10290b:	89 e5                	mov    %esp,%ebp
/u/s/h/shirui/private/cs537/p3a/p3/xv6-sp20/kernel/ioapic.c:44
  10290d:	a1 54 fd 10 00       	mov    0x10fd54,%eax
  102912:	8b 55 08             	mov    0x8(%ebp),%edx
  102915:	89 10                	mov    %edx,(%eax)
/u/s/h/shirui/private/cs537/p3a/p3/xv6-sp20/kernel/ioapic.c:45
  102917:	a1 54 fd 10 00       	mov    0x10fd54,%eax
  10291c:	8b 55 0c             	mov    0xc(%ebp),%edx
  10291f:	89 50 10             	mov    %edx,0x10(%eax)
/u/s/h/shirui/private/cs537/p3a/p3/xv6-sp20/kernel/ioapic.c:46
  102922:	90                   	nop
  102923:	5d                   	pop    %ebp
  102924:	c3                   	ret    

00102925 <ioapicinit>:
ioapicinit():
/u/s/h/shirui/private/cs537/p3a/p3/xv6-sp20/kernel/ioapic.c:50
  102925:	55                   	push   %ebp
  102926:	89 e5                	mov    %esp,%ebp
  102928:	83 ec 18             	sub    $0x18,%esp
/u/s/h/shirui/private/cs537/p3a/p3/xv6-sp20/kernel/ioapic.c:53
  10292b:	a1 c4 fd 10 00       	mov    0x10fdc4,%eax
  102930:	85 c0                	test   %eax,%eax
  102932:	0f 84 a0 00 00 00    	je     1029d8 <ioapicinit+0xb3>
/u/s/h/shirui/private/cs537/p3a/p3/xv6-sp20/kernel/ioapic.c:56
  102938:	c7 05 54 fd 10 00 00 	movl   $0xfec00000,0x10fd54
  10293f:	00 c0 fe 
/u/s/h/shirui/private/cs537/p3a/p3/xv6-sp20/kernel/ioapic.c:57
  102942:	6a 01                	push   $0x1
  102944:	e8 aa ff ff ff       	call   1028f3 <ioapicread>
  102949:	83 c4 04             	add    $0x4,%esp
  10294c:	c1 e8 10             	shr    $0x10,%eax
  10294f:	25 ff 00 00 00       	and    $0xff,%eax
  102954:	89 45 f0             	mov    %eax,-0x10(%ebp)
/u/s/h/shirui/private/cs537/p3a/p3/xv6-sp20/kernel/ioapic.c:58
  102957:	6a 00                	push   $0x0
  102959:	e8 95 ff ff ff       	call   1028f3 <ioapicread>
  10295e:	83 c4 04             	add    $0x4,%esp
  102961:	c1 e8 18             	shr    $0x18,%eax
  102964:	89 45 ec             	mov    %eax,-0x14(%ebp)
/u/s/h/shirui/private/cs537/p3a/p3/xv6-sp20/kernel/ioapic.c:59
  102967:	0f b6 05 c0 fd 10 00 	movzbl 0x10fdc0,%eax
  10296e:	0f b6 c0             	movzbl %al,%eax
  102971:	39 45 ec             	cmp    %eax,-0x14(%ebp)
  102974:	74 10                	je     102986 <ioapicinit+0x61>
/u/s/h/shirui/private/cs537/p3a/p3/xv6-sp20/kernel/ioapic.c:60
  102976:	83 ec 0c             	sub    $0xc,%esp
  102979:	68 9c 80 10 00       	push   $0x10809c
  10297e:	e8 69 da ff ff       	call   1003ec <cprintf>
  102983:	83 c4 10             	add    $0x10,%esp
/u/s/h/shirui/private/cs537/p3a/p3/xv6-sp20/kernel/ioapic.c:64
  102986:	c7 45 f4 00 00 00 00 	movl   $0x0,-0xc(%ebp)
  10298d:	eb 3f                	jmp    1029ce <ioapicinit+0xa9>
/u/s/h/shirui/private/cs537/p3a/p3/xv6-sp20/kernel/ioapic.c:65 (discriminator 3)
  10298f:	8b 45 f4             	mov    -0xc(%ebp),%eax
  102992:	83 c0 20             	add    $0x20,%eax
  102995:	0d 00 00 01 00       	or     $0x10000,%eax
  10299a:	89 c2                	mov    %eax,%edx
  10299c:	8b 45 f4             	mov    -0xc(%ebp),%eax
  10299f:	83 c0 08             	add    $0x8,%eax
  1029a2:	01 c0                	add    %eax,%eax
  1029a4:	83 ec 08             	sub    $0x8,%esp
  1029a7:	52                   	push   %edx
  1029a8:	50                   	push   %eax
  1029a9:	e8 5c ff ff ff       	call   10290a <ioapicwrite>
  1029ae:	83 c4 10             	add    $0x10,%esp
/u/s/h/shirui/private/cs537/p3a/p3/xv6-sp20/kernel/ioapic.c:66 (discriminator 3)
  1029b1:	8b 45 f4             	mov    -0xc(%ebp),%eax
  1029b4:	83 c0 08             	add    $0x8,%eax
  1029b7:	01 c0                	add    %eax,%eax
  1029b9:	83 c0 01             	add    $0x1,%eax
  1029bc:	83 ec 08             	sub    $0x8,%esp
  1029bf:	6a 00                	push   $0x0
  1029c1:	50                   	push   %eax
  1029c2:	e8 43 ff ff ff       	call   10290a <ioapicwrite>
  1029c7:	83 c4 10             	add    $0x10,%esp
/u/s/h/shirui/private/cs537/p3a/p3/xv6-sp20/kernel/ioapic.c:64 (discriminator 3)
  1029ca:	83 45 f4 01          	addl   $0x1,-0xc(%ebp)
/u/s/h/shirui/private/cs537/p3a/p3/xv6-sp20/kernel/ioapic.c:64 (discriminator 1)
  1029ce:	8b 45 f4             	mov    -0xc(%ebp),%eax
  1029d1:	3b 45 f0             	cmp    -0x10(%ebp),%eax
  1029d4:	7e b9                	jle    10298f <ioapicinit+0x6a>
  1029d6:	eb 01                	jmp    1029d9 <ioapicinit+0xb4>
/u/s/h/shirui/private/cs537/p3a/p3/xv6-sp20/kernel/ioapic.c:54
  1029d8:	90                   	nop
/u/s/h/shirui/private/cs537/p3a/p3/xv6-sp20/kernel/ioapic.c:68
  1029d9:	c9                   	leave  
  1029da:	c3                   	ret    

001029db <ioapicenable>:
ioapicenable():
/u/s/h/shirui/private/cs537/p3a/p3/xv6-sp20/kernel/ioapic.c:72
  1029db:	55                   	push   %ebp
  1029dc:	89 e5                	mov    %esp,%ebp
/u/s/h/shirui/private/cs537/p3a/p3/xv6-sp20/kernel/ioapic.c:73
  1029de:	a1 c4 fd 10 00       	mov    0x10fdc4,%eax
  1029e3:	85 c0                	test   %eax,%eax
  1029e5:	74 39                	je     102a20 <ioapicenable+0x45>
/u/s/h/shirui/private/cs537/p3a/p3/xv6-sp20/kernel/ioapic.c:79
  1029e7:	8b 45 08             	mov    0x8(%ebp),%eax
  1029ea:	83 c0 20             	add    $0x20,%eax
  1029ed:	89 c2                	mov    %eax,%edx
  1029ef:	8b 45 08             	mov    0x8(%ebp),%eax
  1029f2:	83 c0 08             	add    $0x8,%eax
  1029f5:	01 c0                	add    %eax,%eax
  1029f7:	52                   	push   %edx
  1029f8:	50                   	push   %eax
  1029f9:	e8 0c ff ff ff       	call   10290a <ioapicwrite>
  1029fe:	83 c4 08             	add    $0x8,%esp
/u/s/h/shirui/private/cs537/p3a/p3/xv6-sp20/kernel/ioapic.c:80
  102a01:	8b 45 0c             	mov    0xc(%ebp),%eax
  102a04:	c1 e0 18             	shl    $0x18,%eax
  102a07:	89 c2                	mov    %eax,%edx
  102a09:	8b 45 08             	mov    0x8(%ebp),%eax
  102a0c:	83 c0 08             	add    $0x8,%eax
  102a0f:	01 c0                	add    %eax,%eax
  102a11:	83 c0 01             	add    $0x1,%eax
  102a14:	52                   	push   %edx
  102a15:	50                   	push   %eax
  102a16:	e8 ef fe ff ff       	call   10290a <ioapicwrite>
  102a1b:	83 c4 08             	add    $0x8,%esp
  102a1e:	eb 01                	jmp    102a21 <ioapicenable+0x46>
/u/s/h/shirui/private/cs537/p3a/p3/xv6-sp20/kernel/ioapic.c:74
  102a20:	90                   	nop
/u/s/h/shirui/private/cs537/p3a/p3/xv6-sp20/kernel/ioapic.c:81
  102a21:	c9                   	leave  
  102a22:	c3                   	ret    

00102a23 <kinit>:
kinit():
/u/s/h/shirui/private/cs537/p3a/p3/xv6-sp20/kernel/kalloc.c:35
  102a23:	55                   	push   %ebp
  102a24:	89 e5                	mov    %esp,%ebp
  102a26:	83 ec 18             	sub    $0x18,%esp
/u/s/h/shirui/private/cs537/p3a/p3/xv6-sp20/kernel/kalloc.c:38
  102a29:	83 ec 08             	sub    $0x8,%esp
  102a2c:	68 ce 80 10 00       	push   $0x1080ce
  102a31:	68 60 fd 10 00       	push   $0x10fd60
  102a36:	e8 23 1e 00 00       	call   10485e <initlock>
  102a3b:	83 c4 10             	add    $0x10,%esp
/u/s/h/shirui/private/cs537/p3a/p3/xv6-sp20/kernel/kalloc.c:39
  102a3e:	b8 64 2b 11 00       	mov    $0x112b64,%eax
  102a43:	05 ff 0f 00 00       	add    $0xfff,%eax
  102a48:	25 00 f0 ff ff       	and    $0xfffff000,%eax
  102a4d:	89 45 f4             	mov    %eax,-0xc(%ebp)
/u/s/h/shirui/private/cs537/p3a/p3/xv6-sp20/kernel/kalloc.c:40
  102a50:	eb 15                	jmp    102a67 <kinit+0x44>
/u/s/h/shirui/private/cs537/p3a/p3/xv6-sp20/kernel/kalloc.c:41 (discriminator 2)
  102a52:	83 ec 0c             	sub    $0xc,%esp
  102a55:	ff 75 f4             	pushl  -0xc(%ebp)
  102a58:	e8 3d 00 00 00       	call   102a9a <kfree>
  102a5d:	83 c4 10             	add    $0x10,%esp
/u/s/h/shirui/private/cs537/p3a/p3/xv6-sp20/kernel/kalloc.c:40 (discriminator 2)
  102a60:	81 45 f4 00 10 00 00 	addl   $0x1000,-0xc(%ebp)
/u/s/h/shirui/private/cs537/p3a/p3/xv6-sp20/kernel/kalloc.c:40 (discriminator 1)
  102a67:	8b 45 f4             	mov    -0xc(%ebp),%eax
  102a6a:	05 00 10 00 00       	add    $0x1000,%eax
  102a6f:	3d 00 00 00 01       	cmp    $0x1000000,%eax
  102a74:	76 dc                	jbe    102a52 <kinit+0x2f>
/u/s/h/shirui/private/cs537/p3a/p3/xv6-sp20/kernel/kalloc.c:43
  102a76:	a1 9c fd 10 00       	mov    0x10fd9c,%eax
  102a7b:	c7 00 00 00 00 00    	movl   $0x0,(%eax)
/u/s/h/shirui/private/cs537/p3a/p3/xv6-sp20/kernel/kalloc.c:44
  102a81:	a1 9c fd 10 00       	mov    0x10fd9c,%eax
  102a86:	c7 40 04 00 00 00 00 	movl   $0x0,0x4(%eax)
/u/s/h/shirui/private/cs537/p3a/p3/xv6-sp20/kernel/kalloc.c:45
  102a8d:	c7 05 98 fd 10 00 00 	movl   $0x0,0x10fd98
  102a94:	00 00 00 
/u/s/h/shirui/private/cs537/p3a/p3/xv6-sp20/kernel/kalloc.c:48
  102a97:	90                   	nop
  102a98:	c9                   	leave  
  102a99:	c3                   	ret    

00102a9a <kfree>:
kfree():
/u/s/h/shirui/private/cs537/p3a/p3/xv6-sp20/kernel/kalloc.c:56
  102a9a:	55                   	push   %ebp
  102a9b:	89 e5                	mov    %esp,%ebp
  102a9d:	83 ec 18             	sub    $0x18,%esp
/u/s/h/shirui/private/cs537/p3a/p3/xv6-sp20/kernel/kalloc.c:58
  102aa0:	a1 9c fd 10 00       	mov    0x10fd9c,%eax
  102aa5:	89 45 f4             	mov    %eax,-0xc(%ebp)
/u/s/h/shirui/private/cs537/p3a/p3/xv6-sp20/kernel/kalloc.c:60
  102aa8:	8b 45 08             	mov    0x8(%ebp),%eax
  102aab:	25 ff 0f 00 00       	and    $0xfff,%eax
  102ab0:	85 c0                	test   %eax,%eax
  102ab2:	75 13                	jne    102ac7 <kfree+0x2d>
/u/s/h/shirui/private/cs537/p3a/p3/xv6-sp20/kernel/kalloc.c:60 (discriminator 1)
  102ab4:	81 7d 08 64 2b 11 00 	cmpl   $0x112b64,0x8(%ebp)
  102abb:	72 0a                	jb     102ac7 <kfree+0x2d>
/u/s/h/shirui/private/cs537/p3a/p3/xv6-sp20/kernel/kalloc.c:60 (discriminator 2)
  102abd:	8b 45 08             	mov    0x8(%ebp),%eax
  102ac0:	3d ff ff ff 00       	cmp    $0xffffff,%eax
  102ac5:	76 0d                	jbe    102ad4 <kfree+0x3a>
/u/s/h/shirui/private/cs537/p3a/p3/xv6-sp20/kernel/kalloc.c:61
  102ac7:	83 ec 0c             	sub    $0xc,%esp
  102aca:	68 d3 80 10 00       	push   $0x1080d3
  102acf:	e8 a4 da ff ff       	call   100578 <panic>
/u/s/h/shirui/private/cs537/p3a/p3/xv6-sp20/kernel/kalloc.c:64
  102ad4:	83 ec 04             	sub    $0x4,%esp
  102ad7:	68 00 10 00 00       	push   $0x1000
  102adc:	6a 01                	push   $0x1
  102ade:	ff 75 08             	pushl  0x8(%ebp)
  102ae1:	e8 d7 1f 00 00       	call   104abd <memset>
  102ae6:	83 c4 10             	add    $0x10,%esp
/u/s/h/shirui/private/cs537/p3a/p3/xv6-sp20/kernel/kalloc.c:66
  102ae9:	83 ec 0c             	sub    $0xc,%esp
  102aec:	68 60 fd 10 00       	push   $0x10fd60
  102af1:	e8 8a 1d 00 00       	call   104880 <acquire>
  102af6:	83 c4 10             	add    $0x10,%esp
/u/s/h/shirui/private/cs537/p3a/p3/xv6-sp20/kernel/kalloc.c:67
  102af9:	8b 45 08             	mov    0x8(%ebp),%eax
  102afc:	89 45 f0             	mov    %eax,-0x10(%ebp)
/u/s/h/shirui/private/cs537/p3a/p3/xv6-sp20/kernel/kalloc.c:68
  102aff:	8b 15 94 fd 10 00    	mov    0x10fd94,%edx
  102b05:	8b 45 f0             	mov    -0x10(%ebp),%eax
  102b08:	89 10                	mov    %edx,(%eax)
/u/s/h/shirui/private/cs537/p3a/p3/xv6-sp20/kernel/kalloc.c:69
  102b0a:	8b 45 f0             	mov    -0x10(%ebp),%eax
  102b0d:	a3 94 fd 10 00       	mov    %eax,0x10fd94
/u/s/h/shirui/private/cs537/p3a/p3/xv6-sp20/kernel/kalloc.c:71
  102b12:	a1 9c fd 10 00       	mov    0x10fd9c,%eax
  102b17:	8b 10                	mov    (%eax),%edx
  102b19:	8b 45 f0             	mov    -0x10(%ebp),%eax
  102b1c:	39 c2                	cmp    %eax,%edx
  102b1e:	75 5c                	jne    102b7c <kfree+0xe2>
/u/s/h/shirui/private/cs537/p3a/p3/xv6-sp20/kernel/kalloc.c:72
  102b20:	a1 9c fd 10 00       	mov    0x10fd9c,%eax
  102b25:	8b 40 04             	mov    0x4(%eax),%eax
  102b28:	a3 9c fd 10 00       	mov    %eax,0x10fd9c
/u/s/h/shirui/private/cs537/p3a/p3/xv6-sp20/kernel/kalloc.c:73
  102b2d:	a1 98 fd 10 00       	mov    0x10fd98,%eax
  102b32:	83 e8 01             	sub    $0x1,%eax
  102b35:	a3 98 fd 10 00       	mov    %eax,0x10fd98
/u/s/h/shirui/private/cs537/p3a/p3/xv6-sp20/kernel/kalloc.c:74
  102b3a:	eb 55                	jmp    102b91 <kfree+0xf7>
/u/s/h/shirui/private/cs537/p3a/p3/xv6-sp20/kernel/kalloc.c:78
  102b3c:	a1 9c fd 10 00       	mov    0x10fd9c,%eax
  102b41:	8b 40 04             	mov    0x4(%eax),%eax
  102b44:	8b 10                	mov    (%eax),%edx
  102b46:	8b 45 f0             	mov    -0x10(%ebp),%eax
  102b49:	39 c2                	cmp    %eax,%edx
  102b4b:	75 22                	jne    102b6f <kfree+0xd5>
/u/s/h/shirui/private/cs537/p3a/p3/xv6-sp20/kernel/kalloc.c:79
  102b4d:	a1 9c fd 10 00       	mov    0x10fd9c,%eax
  102b52:	8b 50 04             	mov    0x4(%eax),%edx
  102b55:	a1 9c fd 10 00       	mov    0x10fd9c,%eax
  102b5a:	8b 52 04             	mov    0x4(%edx),%edx
  102b5d:	89 50 04             	mov    %edx,0x4(%eax)
/u/s/h/shirui/private/cs537/p3a/p3/xv6-sp20/kernel/kalloc.c:80
  102b60:	a1 98 fd 10 00       	mov    0x10fd98,%eax
  102b65:	83 e8 01             	sub    $0x1,%eax
  102b68:	a3 98 fd 10 00       	mov    %eax,0x10fd98
/u/s/h/shirui/private/cs537/p3a/p3/xv6-sp20/kernel/kalloc.c:81
  102b6d:	eb 1a                	jmp    102b89 <kfree+0xef>
/u/s/h/shirui/private/cs537/p3a/p3/xv6-sp20/kernel/kalloc.c:83
  102b6f:	a1 9c fd 10 00       	mov    0x10fd9c,%eax
  102b74:	8b 40 04             	mov    0x4(%eax),%eax
  102b77:	a3 9c fd 10 00       	mov    %eax,0x10fd9c
/u/s/h/shirui/private/cs537/p3a/p3/xv6-sp20/kernel/kalloc.c:77
  102b7c:	a1 9c fd 10 00       	mov    0x10fd9c,%eax
  102b81:	8b 40 04             	mov    0x4(%eax),%eax
  102b84:	85 c0                	test   %eax,%eax
  102b86:	75 b4                	jne    102b3c <kfree+0xa2>
/u/s/h/shirui/private/cs537/p3a/p3/xv6-sp20/kernel/kalloc.c:86
  102b88:	90                   	nop
/u/s/h/shirui/private/cs537/p3a/p3/xv6-sp20/kernel/kalloc.c:87
  102b89:	8b 45 f4             	mov    -0xc(%ebp),%eax
  102b8c:	a3 9c fd 10 00       	mov    %eax,0x10fd9c
/u/s/h/shirui/private/cs537/p3a/p3/xv6-sp20/kernel/kalloc.c:89
  102b91:	83 ec 0c             	sub    $0xc,%esp
  102b94:	68 60 fd 10 00       	push   $0x10fd60
  102b99:	e8 49 1d 00 00       	call   1048e7 <release>
  102b9e:	83 c4 10             	add    $0x10,%esp
/u/s/h/shirui/private/cs537/p3a/p3/xv6-sp20/kernel/kalloc.c:90
  102ba1:	90                   	nop
  102ba2:	c9                   	leave  
  102ba3:	c3                   	ret    

00102ba4 <kalloc>:
kalloc():
/u/s/h/shirui/private/cs537/p3a/p3/xv6-sp20/kernel/kalloc.c:97
  102ba4:	55                   	push   %ebp
  102ba5:	89 e5                	mov    %esp,%ebp
  102ba7:	83 ec 18             	sub    $0x18,%esp
/u/s/h/shirui/private/cs537/p3a/p3/xv6-sp20/kernel/kalloc.c:101
  102baa:	83 ec 0c             	sub    $0xc,%esp
  102bad:	68 60 fd 10 00       	push   $0x10fd60
  102bb2:	e8 c9 1c 00 00       	call   104880 <acquire>
  102bb7:	83 c4 10             	add    $0x10,%esp
/u/s/h/shirui/private/cs537/p3a/p3/xv6-sp20/kernel/kalloc.c:102
  102bba:	a1 94 fd 10 00       	mov    0x10fd94,%eax
  102bbf:	89 45 f4             	mov    %eax,-0xc(%ebp)
/u/s/h/shirui/private/cs537/p3a/p3/xv6-sp20/kernel/kalloc.c:103
  102bc2:	83 7d f4 00          	cmpl   $0x0,-0xc(%ebp)
  102bc6:	74 4e                	je     102c16 <kalloc+0x72>
/u/s/h/shirui/private/cs537/p3a/p3/xv6-sp20/kernel/kalloc.c:104
  102bc8:	8b 45 f4             	mov    -0xc(%ebp),%eax
  102bcb:	8b 00                	mov    (%eax),%eax
  102bcd:	a3 94 fd 10 00       	mov    %eax,0x10fd94
/u/s/h/shirui/private/cs537/p3a/p3/xv6-sp20/kernel/kalloc.c:105
  102bd2:	a1 98 fd 10 00       	mov    0x10fd98,%eax
  102bd7:	85 c0                	test   %eax,%eax
  102bd9:	74 24                	je     102bff <kalloc+0x5b>
/u/s/h/shirui/private/cs537/p3a/p3/xv6-sp20/kernel/kalloc.c:106
  102bdb:	a1 a0 fd 10 00       	mov    0x10fda0,%eax
  102be0:	8b 55 f4             	mov    -0xc(%ebp),%edx
  102be3:	89 10                	mov    %edx,(%eax)
/u/s/h/shirui/private/cs537/p3a/p3/xv6-sp20/kernel/kalloc.c:107
  102be5:	a1 9c fd 10 00       	mov    0x10fd9c,%eax
  102bea:	8b 15 9c fd 10 00    	mov    0x10fd9c,%edx
  102bf0:	89 50 04             	mov    %edx,0x4(%eax)
/u/s/h/shirui/private/cs537/p3a/p3/xv6-sp20/kernel/kalloc.c:108
  102bf3:	a1 a0 fd 10 00       	mov    0x10fda0,%eax
  102bf8:	a3 9c fd 10 00       	mov    %eax,0x10fd9c
  102bfd:	eb 0a                	jmp    102c09 <kalloc+0x65>
/u/s/h/shirui/private/cs537/p3a/p3/xv6-sp20/kernel/kalloc.c:110
  102bff:	a1 9c fd 10 00       	mov    0x10fd9c,%eax
  102c04:	8b 55 f4             	mov    -0xc(%ebp),%edx
  102c07:	89 10                	mov    %edx,(%eax)
/u/s/h/shirui/private/cs537/p3a/p3/xv6-sp20/kernel/kalloc.c:112
  102c09:	a1 98 fd 10 00       	mov    0x10fd98,%eax
  102c0e:	83 c0 01             	add    $0x1,%eax
  102c11:	a3 98 fd 10 00       	mov    %eax,0x10fd98
/u/s/h/shirui/private/cs537/p3a/p3/xv6-sp20/kernel/kalloc.c:114
  102c16:	83 ec 0c             	sub    $0xc,%esp
  102c19:	68 60 fd 10 00       	push   $0x10fd60
  102c1e:	e8 c4 1c 00 00       	call   1048e7 <release>
  102c23:	83 c4 10             	add    $0x10,%esp
/u/s/h/shirui/private/cs537/p3a/p3/xv6-sp20/kernel/kalloc.c:116
  102c26:	8b 45 f4             	mov    -0xc(%ebp),%eax
/u/s/h/shirui/private/cs537/p3a/p3/xv6-sp20/kernel/kalloc.c:117
  102c29:	c9                   	leave  
  102c2a:	c3                   	ret    

00102c2b <dump_allocated>:
dump_allocated():
/u/s/h/shirui/private/cs537/p3a/p3/xv6-sp20/kernel/kalloc.c:122
  102c2b:	55                   	push   %ebp
  102c2c:	89 e5                	mov    %esp,%ebp
  102c2e:	83 ec 10             	sub    $0x10,%esp
/u/s/h/shirui/private/cs537/p3a/p3/xv6-sp20/kernel/kalloc.c:123
  102c31:	a1 98 fd 10 00       	mov    0x10fd98,%eax
  102c36:	39 45 0c             	cmp    %eax,0xc(%ebp)
  102c39:	7e 07                	jle    102c42 <dump_allocated+0x17>
/u/s/h/shirui/private/cs537/p3a/p3/xv6-sp20/kernel/kalloc.c:123 (discriminator 1)
  102c3b:	b8 ff ff ff ff       	mov    $0xffffffff,%eax
  102c40:	eb 41                	jmp    102c83 <dump_allocated+0x58>
/u/s/h/shirui/private/cs537/p3a/p3/xv6-sp20/kernel/kalloc.c:125
  102c42:	a1 9c fd 10 00       	mov    0x10fd9c,%eax
  102c47:	89 45 fc             	mov    %eax,-0x4(%ebp)
/u/s/h/shirui/private/cs537/p3a/p3/xv6-sp20/kernel/kalloc.c:126
  102c4a:	c7 45 f8 00 00 00 00 	movl   $0x0,-0x8(%ebp)
  102c51:	eb 23                	jmp    102c76 <dump_allocated+0x4b>
/u/s/h/shirui/private/cs537/p3a/p3/xv6-sp20/kernel/kalloc.c:127 (discriminator 3)
  102c53:	8b 45 f8             	mov    -0x8(%ebp),%eax
  102c56:	8d 14 85 00 00 00 00 	lea    0x0(,%eax,4),%edx
  102c5d:	8b 45 08             	mov    0x8(%ebp),%eax
  102c60:	01 c2                	add    %eax,%edx
  102c62:	8b 45 fc             	mov    -0x4(%ebp),%eax
  102c65:	8b 00                	mov    (%eax),%eax
  102c67:	89 02                	mov    %eax,(%edx)
/u/s/h/shirui/private/cs537/p3a/p3/xv6-sp20/kernel/kalloc.c:128 (discriminator 3)
  102c69:	8b 45 fc             	mov    -0x4(%ebp),%eax
  102c6c:	8b 40 04             	mov    0x4(%eax),%eax
  102c6f:	89 45 fc             	mov    %eax,-0x4(%ebp)
/u/s/h/shirui/private/cs537/p3a/p3/xv6-sp20/kernel/kalloc.c:126 (discriminator 3)
  102c72:	83 45 f8 01          	addl   $0x1,-0x8(%ebp)
/u/s/h/shirui/private/cs537/p3a/p3/xv6-sp20/kernel/kalloc.c:126 (discriminator 1)
  102c76:	8b 45 f8             	mov    -0x8(%ebp),%eax
  102c79:	3b 45 0c             	cmp    0xc(%ebp),%eax
  102c7c:	7c d5                	jl     102c53 <dump_allocated+0x28>
/u/s/h/shirui/private/cs537/p3a/p3/xv6-sp20/kernel/kalloc.c:132
  102c7e:	b8 00 00 00 00       	mov    $0x0,%eax
/u/s/h/shirui/private/cs537/p3a/p3/xv6-sp20/kernel/kalloc.c:133
  102c83:	c9                   	leave  
  102c84:	c3                   	ret    

00102c85 <inb>:
inb():
/u/s/h/shirui/private/cs537/p3a/p3/xv6-sp20/include/x86.h:7
  102c85:	55                   	push   %ebp
  102c86:	89 e5                	mov    %esp,%ebp
  102c88:	83 ec 14             	sub    $0x14,%esp
  102c8b:	8b 45 08             	mov    0x8(%ebp),%eax
  102c8e:	66 89 45 ec          	mov    %ax,-0x14(%ebp)
/u/s/h/shirui/private/cs537/p3a/p3/xv6-sp20/include/x86.h:10
  102c92:	0f b7 45 ec          	movzwl -0x14(%ebp),%eax
  102c96:	89 c2                	mov    %eax,%edx
  102c98:	ec                   	in     (%dx),%al
  102c99:	88 45 ff             	mov    %al,-0x1(%ebp)
/u/s/h/shirui/private/cs537/p3a/p3/xv6-sp20/include/x86.h:11
  102c9c:	0f b6 45 ff          	movzbl -0x1(%ebp),%eax
/u/s/h/shirui/private/cs537/p3a/p3/xv6-sp20/include/x86.h:12
  102ca0:	c9                   	leave  
  102ca1:	c3                   	ret    

00102ca2 <kbdgetc>:
kbdgetc():
/u/s/h/shirui/private/cs537/p3a/p3/xv6-sp20/kernel/kbd.c:8
  102ca2:	55                   	push   %ebp
  102ca3:	89 e5                	mov    %esp,%ebp
  102ca5:	83 ec 10             	sub    $0x10,%esp
/u/s/h/shirui/private/cs537/p3a/p3/xv6-sp20/kernel/kbd.c:15
  102ca8:	6a 64                	push   $0x64
  102caa:	e8 d6 ff ff ff       	call   102c85 <inb>
  102caf:	83 c4 04             	add    $0x4,%esp
  102cb2:	0f b6 c0             	movzbl %al,%eax
  102cb5:	89 45 f4             	mov    %eax,-0xc(%ebp)
/u/s/h/shirui/private/cs537/p3a/p3/xv6-sp20/kernel/kbd.c:16
  102cb8:	8b 45 f4             	mov    -0xc(%ebp),%eax
  102cbb:	83 e0 01             	and    $0x1,%eax
  102cbe:	85 c0                	test   %eax,%eax
  102cc0:	75 0a                	jne    102ccc <kbdgetc+0x2a>
/u/s/h/shirui/private/cs537/p3a/p3/xv6-sp20/kernel/kbd.c:17
  102cc2:	b8 ff ff ff ff       	mov    $0xffffffff,%eax
  102cc7:	e9 23 01 00 00       	jmp    102def <kbdgetc+0x14d>
/u/s/h/shirui/private/cs537/p3a/p3/xv6-sp20/kernel/kbd.c:18
  102ccc:	6a 60                	push   $0x60
  102cce:	e8 b2 ff ff ff       	call   102c85 <inb>
  102cd3:	83 c4 04             	add    $0x4,%esp
  102cd6:	0f b6 c0             	movzbl %al,%eax
  102cd9:	89 45 fc             	mov    %eax,-0x4(%ebp)
/u/s/h/shirui/private/cs537/p3a/p3/xv6-sp20/kernel/kbd.c:20
  102cdc:	81 7d fc e0 00 00 00 	cmpl   $0xe0,-0x4(%ebp)
  102ce3:	75 17                	jne    102cfc <kbdgetc+0x5a>
/u/s/h/shirui/private/cs537/p3a/p3/xv6-sp20/kernel/kbd.c:21
  102ce5:	a1 5c bb 10 00       	mov    0x10bb5c,%eax
  102cea:	83 c8 40             	or     $0x40,%eax
  102ced:	a3 5c bb 10 00       	mov    %eax,0x10bb5c
/u/s/h/shirui/private/cs537/p3a/p3/xv6-sp20/kernel/kbd.c:22
  102cf2:	b8 00 00 00 00       	mov    $0x0,%eax
  102cf7:	e9 f3 00 00 00       	jmp    102def <kbdgetc+0x14d>
/u/s/h/shirui/private/cs537/p3a/p3/xv6-sp20/kernel/kbd.c:23
  102cfc:	8b 45 fc             	mov    -0x4(%ebp),%eax
  102cff:	25 80 00 00 00       	and    $0x80,%eax
  102d04:	85 c0                	test   %eax,%eax
  102d06:	74 45                	je     102d4d <kbdgetc+0xab>
/u/s/h/shirui/private/cs537/p3a/p3/xv6-sp20/kernel/kbd.c:25
  102d08:	a1 5c bb 10 00       	mov    0x10bb5c,%eax
  102d0d:	83 e0 40             	and    $0x40,%eax
  102d10:	85 c0                	test   %eax,%eax
  102d12:	75 08                	jne    102d1c <kbdgetc+0x7a>
/u/s/h/shirui/private/cs537/p3a/p3/xv6-sp20/kernel/kbd.c:25 (discriminator 1)
  102d14:	8b 45 fc             	mov    -0x4(%ebp),%eax
  102d17:	83 e0 7f             	and    $0x7f,%eax
  102d1a:	eb 03                	jmp    102d1f <kbdgetc+0x7d>
/u/s/h/shirui/private/cs537/p3a/p3/xv6-sp20/kernel/kbd.c:25 (discriminator 2)
  102d1c:	8b 45 fc             	mov    -0x4(%ebp),%eax
/u/s/h/shirui/private/cs537/p3a/p3/xv6-sp20/kernel/kbd.c:25 (discriminator 4)
  102d1f:	89 45 fc             	mov    %eax,-0x4(%ebp)
/u/s/h/shirui/private/cs537/p3a/p3/xv6-sp20/kernel/kbd.c:26 (discriminator 4)
  102d22:	8b 45 fc             	mov    -0x4(%ebp),%eax
  102d25:	05 20 b0 10 00       	add    $0x10b020,%eax
  102d2a:	0f b6 00             	movzbl (%eax),%eax
  102d2d:	83 c8 40             	or     $0x40,%eax
  102d30:	0f b6 c0             	movzbl %al,%eax
  102d33:	f7 d0                	not    %eax
  102d35:	89 c2                	mov    %eax,%edx
  102d37:	a1 5c bb 10 00       	mov    0x10bb5c,%eax
  102d3c:	21 d0                	and    %edx,%eax
  102d3e:	a3 5c bb 10 00       	mov    %eax,0x10bb5c
/u/s/h/shirui/private/cs537/p3a/p3/xv6-sp20/kernel/kbd.c:27 (discriminator 4)
  102d43:	b8 00 00 00 00       	mov    $0x0,%eax
  102d48:	e9 a2 00 00 00       	jmp    102def <kbdgetc+0x14d>
/u/s/h/shirui/private/cs537/p3a/p3/xv6-sp20/kernel/kbd.c:28
  102d4d:	a1 5c bb 10 00       	mov    0x10bb5c,%eax
  102d52:	83 e0 40             	and    $0x40,%eax
  102d55:	85 c0                	test   %eax,%eax
  102d57:	74 14                	je     102d6d <kbdgetc+0xcb>
/u/s/h/shirui/private/cs537/p3a/p3/xv6-sp20/kernel/kbd.c:30
  102d59:	81 4d fc 80 00 00 00 	orl    $0x80,-0x4(%ebp)
/u/s/h/shirui/private/cs537/p3a/p3/xv6-sp20/kernel/kbd.c:31
  102d60:	a1 5c bb 10 00       	mov    0x10bb5c,%eax
  102d65:	83 e0 bf             	and    $0xffffffbf,%eax
  102d68:	a3 5c bb 10 00       	mov    %eax,0x10bb5c
/u/s/h/shirui/private/cs537/p3a/p3/xv6-sp20/kernel/kbd.c:34
  102d6d:	8b 45 fc             	mov    -0x4(%ebp),%eax
  102d70:	05 20 b0 10 00       	add    $0x10b020,%eax
  102d75:	0f b6 00             	movzbl (%eax),%eax
  102d78:	0f b6 d0             	movzbl %al,%edx
  102d7b:	a1 5c bb 10 00       	mov    0x10bb5c,%eax
  102d80:	09 d0                	or     %edx,%eax
  102d82:	a3 5c bb 10 00       	mov    %eax,0x10bb5c
/u/s/h/shirui/private/cs537/p3a/p3/xv6-sp20/kernel/kbd.c:35
  102d87:	8b 45 fc             	mov    -0x4(%ebp),%eax
  102d8a:	05 20 b1 10 00       	add    $0x10b120,%eax
  102d8f:	0f b6 00             	movzbl (%eax),%eax
  102d92:	0f b6 d0             	movzbl %al,%edx
  102d95:	a1 5c bb 10 00       	mov    0x10bb5c,%eax
  102d9a:	31 d0                	xor    %edx,%eax
  102d9c:	a3 5c bb 10 00       	mov    %eax,0x10bb5c
/u/s/h/shirui/private/cs537/p3a/p3/xv6-sp20/kernel/kbd.c:36
  102da1:	a1 5c bb 10 00       	mov    0x10bb5c,%eax
  102da6:	83 e0 03             	and    $0x3,%eax
  102da9:	8b 14 85 20 b5 10 00 	mov    0x10b520(,%eax,4),%edx
  102db0:	8b 45 fc             	mov    -0x4(%ebp),%eax
  102db3:	01 d0                	add    %edx,%eax
  102db5:	0f b6 00             	movzbl (%eax),%eax
  102db8:	0f b6 c0             	movzbl %al,%eax
  102dbb:	89 45 f8             	mov    %eax,-0x8(%ebp)
/u/s/h/shirui/private/cs537/p3a/p3/xv6-sp20/kernel/kbd.c:37
  102dbe:	a1 5c bb 10 00       	mov    0x10bb5c,%eax
  102dc3:	83 e0 08             	and    $0x8,%eax
  102dc6:	85 c0                	test   %eax,%eax
  102dc8:	74 22                	je     102dec <kbdgetc+0x14a>
/u/s/h/shirui/private/cs537/p3a/p3/xv6-sp20/kernel/kbd.c:38
  102dca:	83 7d f8 60          	cmpl   $0x60,-0x8(%ebp)
  102dce:	76 0c                	jbe    102ddc <kbdgetc+0x13a>
/u/s/h/shirui/private/cs537/p3a/p3/xv6-sp20/kernel/kbd.c:38 (discriminator 1)
  102dd0:	83 7d f8 7a          	cmpl   $0x7a,-0x8(%ebp)
  102dd4:	77 06                	ja     102ddc <kbdgetc+0x13a>
/u/s/h/shirui/private/cs537/p3a/p3/xv6-sp20/kernel/kbd.c:39
  102dd6:	83 6d f8 20          	subl   $0x20,-0x8(%ebp)
  102dda:	eb 10                	jmp    102dec <kbdgetc+0x14a>
/u/s/h/shirui/private/cs537/p3a/p3/xv6-sp20/kernel/kbd.c:40
  102ddc:	83 7d f8 40          	cmpl   $0x40,-0x8(%ebp)
  102de0:	76 0a                	jbe    102dec <kbdgetc+0x14a>
/u/s/h/shirui/private/cs537/p3a/p3/xv6-sp20/kernel/kbd.c:40 (discriminator 1)
  102de2:	83 7d f8 5a          	cmpl   $0x5a,-0x8(%ebp)
  102de6:	77 04                	ja     102dec <kbdgetc+0x14a>
/u/s/h/shirui/private/cs537/p3a/p3/xv6-sp20/kernel/kbd.c:41
  102de8:	83 45 f8 20          	addl   $0x20,-0x8(%ebp)
/u/s/h/shirui/private/cs537/p3a/p3/xv6-sp20/kernel/kbd.c:43
  102dec:	8b 45 f8             	mov    -0x8(%ebp),%eax
/u/s/h/shirui/private/cs537/p3a/p3/xv6-sp20/kernel/kbd.c:44
  102def:	c9                   	leave  
  102df0:	c3                   	ret    

00102df1 <kbdintr>:
kbdintr():
/u/s/h/shirui/private/cs537/p3a/p3/xv6-sp20/kernel/kbd.c:48
  102df1:	55                   	push   %ebp
  102df2:	89 e5                	mov    %esp,%ebp
  102df4:	83 ec 08             	sub    $0x8,%esp
/u/s/h/shirui/private/cs537/p3a/p3/xv6-sp20/kernel/kbd.c:49
  102df7:	83 ec 0c             	sub    $0xc,%esp
  102dfa:	68 a2 2c 10 00       	push   $0x102ca2
  102dff:	e8 f3 d9 ff ff       	call   1007f7 <consoleintr>
  102e04:	83 c4 10             	add    $0x10,%esp
/u/s/h/shirui/private/cs537/p3a/p3/xv6-sp20/kernel/kbd.c:50
  102e07:	90                   	nop
  102e08:	c9                   	leave  
  102e09:	c3                   	ret    

00102e0a <outb>:
outb():
/u/s/h/shirui/private/cs537/p3a/p3/xv6-sp20/include/x86.h:25
  102e0a:	55                   	push   %ebp
  102e0b:	89 e5                	mov    %esp,%ebp
  102e0d:	83 ec 08             	sub    $0x8,%esp
  102e10:	8b 55 08             	mov    0x8(%ebp),%edx
  102e13:	8b 45 0c             	mov    0xc(%ebp),%eax
  102e16:	66 89 55 fc          	mov    %dx,-0x4(%ebp)
  102e1a:	88 45 f8             	mov    %al,-0x8(%ebp)
/u/s/h/shirui/private/cs537/p3a/p3/xv6-sp20/include/x86.h:26
  102e1d:	0f b6 45 f8          	movzbl -0x8(%ebp),%eax
  102e21:	0f b7 55 fc          	movzwl -0x4(%ebp),%edx
  102e25:	ee                   	out    %al,(%dx)
/u/s/h/shirui/private/cs537/p3a/p3/xv6-sp20/include/x86.h:27
  102e26:	90                   	nop
  102e27:	c9                   	leave  
  102e28:	c3                   	ret    

00102e29 <readeflags>:
readeflags():
/u/s/h/shirui/private/cs537/p3a/p3/xv6-sp20/include/x86.h:89
  102e29:	55                   	push   %ebp
  102e2a:	89 e5                	mov    %esp,%ebp
  102e2c:	83 ec 10             	sub    $0x10,%esp
/u/s/h/shirui/private/cs537/p3a/p3/xv6-sp20/include/x86.h:91
  102e2f:	9c                   	pushf  
  102e30:	58                   	pop    %eax
  102e31:	89 45 fc             	mov    %eax,-0x4(%ebp)
/u/s/h/shirui/private/cs537/p3a/p3/xv6-sp20/include/x86.h:92
  102e34:	8b 45 fc             	mov    -0x4(%ebp),%eax
/u/s/h/shirui/private/cs537/p3a/p3/xv6-sp20/include/x86.h:93
  102e37:	c9                   	leave  
  102e38:	c3                   	ret    

00102e39 <lapicw>:
lapicw():
/u/s/h/shirui/private/cs537/p3a/p3/xv6-sp20/kernel/lapic.c:45
  102e39:	55                   	push   %ebp
  102e3a:	89 e5                	mov    %esp,%ebp
/u/s/h/shirui/private/cs537/p3a/p3/xv6-sp20/kernel/lapic.c:46
  102e3c:	a1 a4 fd 10 00       	mov    0x10fda4,%eax
  102e41:	8b 55 08             	mov    0x8(%ebp),%edx
  102e44:	c1 e2 02             	shl    $0x2,%edx
  102e47:	01 c2                	add    %eax,%edx
  102e49:	8b 45 0c             	mov    0xc(%ebp),%eax
  102e4c:	89 02                	mov    %eax,(%edx)
/u/s/h/shirui/private/cs537/p3a/p3/xv6-sp20/kernel/lapic.c:47
  102e4e:	a1 a4 fd 10 00       	mov    0x10fda4,%eax
  102e53:	83 c0 20             	add    $0x20,%eax
  102e56:	8b 00                	mov    (%eax),%eax
/u/s/h/shirui/private/cs537/p3a/p3/xv6-sp20/kernel/lapic.c:48
  102e58:	90                   	nop
  102e59:	5d                   	pop    %ebp
  102e5a:	c3                   	ret    

00102e5b <lapicinit>:
lapicinit():
/u/s/h/shirui/private/cs537/p3a/p3/xv6-sp20/kernel/lapic.c:52
  102e5b:	55                   	push   %ebp
  102e5c:	89 e5                	mov    %esp,%ebp
  102e5e:	83 ec 08             	sub    $0x8,%esp
/u/s/h/shirui/private/cs537/p3a/p3/xv6-sp20/kernel/lapic.c:53
  102e61:	a1 a4 fd 10 00       	mov    0x10fda4,%eax
  102e66:	83 ec 04             	sub    $0x4,%esp
  102e69:	50                   	push   %eax
  102e6a:	ff 75 08             	pushl  0x8(%ebp)
  102e6d:	68 dc 80 10 00       	push   $0x1080dc
  102e72:	e8 75 d5 ff ff       	call   1003ec <cprintf>
  102e77:	83 c4 10             	add    $0x10,%esp
/u/s/h/shirui/private/cs537/p3a/p3/xv6-sp20/kernel/lapic.c:54
  102e7a:	a1 a4 fd 10 00       	mov    0x10fda4,%eax
  102e7f:	85 c0                	test   %eax,%eax
  102e81:	0f 84 35 01 00 00    	je     102fbc <lapicinit+0x161>
/u/s/h/shirui/private/cs537/p3a/p3/xv6-sp20/kernel/lapic.c:58
  102e87:	83 ec 08             	sub    $0x8,%esp
  102e8a:	68 3f 01 00 00       	push   $0x13f
  102e8f:	6a 3c                	push   $0x3c
  102e91:	e8 a3 ff ff ff       	call   102e39 <lapicw>
  102e96:	83 c4 10             	add    $0x10,%esp
/u/s/h/shirui/private/cs537/p3a/p3/xv6-sp20/kernel/lapic.c:64
  102e99:	83 ec 08             	sub    $0x8,%esp
  102e9c:	6a 0b                	push   $0xb
  102e9e:	68 f8 00 00 00       	push   $0xf8
  102ea3:	e8 91 ff ff ff       	call   102e39 <lapicw>
  102ea8:	83 c4 10             	add    $0x10,%esp
/u/s/h/shirui/private/cs537/p3a/p3/xv6-sp20/kernel/lapic.c:65
  102eab:	83 ec 08             	sub    $0x8,%esp
  102eae:	68 20 00 02 00       	push   $0x20020
  102eb3:	68 c8 00 00 00       	push   $0xc8
  102eb8:	e8 7c ff ff ff       	call   102e39 <lapicw>
  102ebd:	83 c4 10             	add    $0x10,%esp
/u/s/h/shirui/private/cs537/p3a/p3/xv6-sp20/kernel/lapic.c:66
  102ec0:	83 ec 08             	sub    $0x8,%esp
  102ec3:	68 80 96 98 00       	push   $0x989680
  102ec8:	68 e0 00 00 00       	push   $0xe0
  102ecd:	e8 67 ff ff ff       	call   102e39 <lapicw>
  102ed2:	83 c4 10             	add    $0x10,%esp
/u/s/h/shirui/private/cs537/p3a/p3/xv6-sp20/kernel/lapic.c:69
  102ed5:	83 ec 08             	sub    $0x8,%esp
  102ed8:	68 00 00 01 00       	push   $0x10000
  102edd:	68 d4 00 00 00       	push   $0xd4
  102ee2:	e8 52 ff ff ff       	call   102e39 <lapicw>
  102ee7:	83 c4 10             	add    $0x10,%esp
/u/s/h/shirui/private/cs537/p3a/p3/xv6-sp20/kernel/lapic.c:70
  102eea:	83 ec 08             	sub    $0x8,%esp
  102eed:	68 00 00 01 00       	push   $0x10000
  102ef2:	68 d8 00 00 00       	push   $0xd8
  102ef7:	e8 3d ff ff ff       	call   102e39 <lapicw>
  102efc:	83 c4 10             	add    $0x10,%esp
/u/s/h/shirui/private/cs537/p3a/p3/xv6-sp20/kernel/lapic.c:74
  102eff:	a1 a4 fd 10 00       	mov    0x10fda4,%eax
  102f04:	83 c0 30             	add    $0x30,%eax
  102f07:	8b 00                	mov    (%eax),%eax
  102f09:	c1 e8 10             	shr    $0x10,%eax
  102f0c:	0f b6 c0             	movzbl %al,%eax
  102f0f:	83 f8 03             	cmp    $0x3,%eax
  102f12:	76 15                	jbe    102f29 <lapicinit+0xce>
/u/s/h/shirui/private/cs537/p3a/p3/xv6-sp20/kernel/lapic.c:75
  102f14:	83 ec 08             	sub    $0x8,%esp
  102f17:	68 00 00 01 00       	push   $0x10000
  102f1c:	68 d0 00 00 00       	push   $0xd0
  102f21:	e8 13 ff ff ff       	call   102e39 <lapicw>
  102f26:	83 c4 10             	add    $0x10,%esp
/u/s/h/shirui/private/cs537/p3a/p3/xv6-sp20/kernel/lapic.c:78
  102f29:	83 ec 08             	sub    $0x8,%esp
  102f2c:	6a 33                	push   $0x33
  102f2e:	68 dc 00 00 00       	push   $0xdc
  102f33:	e8 01 ff ff ff       	call   102e39 <lapicw>
  102f38:	83 c4 10             	add    $0x10,%esp
/u/s/h/shirui/private/cs537/p3a/p3/xv6-sp20/kernel/lapic.c:81
  102f3b:	83 ec 08             	sub    $0x8,%esp
  102f3e:	6a 00                	push   $0x0
  102f40:	68 a0 00 00 00       	push   $0xa0
  102f45:	e8 ef fe ff ff       	call   102e39 <lapicw>
  102f4a:	83 c4 10             	add    $0x10,%esp
/u/s/h/shirui/private/cs537/p3a/p3/xv6-sp20/kernel/lapic.c:82
  102f4d:	83 ec 08             	sub    $0x8,%esp
  102f50:	6a 00                	push   $0x0
  102f52:	68 a0 00 00 00       	push   $0xa0
  102f57:	e8 dd fe ff ff       	call   102e39 <lapicw>
  102f5c:	83 c4 10             	add    $0x10,%esp
/u/s/h/shirui/private/cs537/p3a/p3/xv6-sp20/kernel/lapic.c:85
  102f5f:	83 ec 08             	sub    $0x8,%esp
  102f62:	6a 00                	push   $0x0
  102f64:	6a 2c                	push   $0x2c
  102f66:	e8 ce fe ff ff       	call   102e39 <lapicw>
  102f6b:	83 c4 10             	add    $0x10,%esp
/u/s/h/shirui/private/cs537/p3a/p3/xv6-sp20/kernel/lapic.c:88
  102f6e:	83 ec 08             	sub    $0x8,%esp
  102f71:	6a 00                	push   $0x0
  102f73:	68 c4 00 00 00       	push   $0xc4
  102f78:	e8 bc fe ff ff       	call   102e39 <lapicw>
  102f7d:	83 c4 10             	add    $0x10,%esp
/u/s/h/shirui/private/cs537/p3a/p3/xv6-sp20/kernel/lapic.c:89
  102f80:	83 ec 08             	sub    $0x8,%esp
  102f83:	68 00 85 08 00       	push   $0x88500
  102f88:	68 c0 00 00 00       	push   $0xc0
  102f8d:	e8 a7 fe ff ff       	call   102e39 <lapicw>
  102f92:	83 c4 10             	add    $0x10,%esp
/u/s/h/shirui/private/cs537/p3a/p3/xv6-sp20/kernel/lapic.c:90
  102f95:	90                   	nop
/u/s/h/shirui/private/cs537/p3a/p3/xv6-sp20/kernel/lapic.c:90 (discriminator 1)
  102f96:	a1 a4 fd 10 00       	mov    0x10fda4,%eax
  102f9b:	05 00 03 00 00       	add    $0x300,%eax
  102fa0:	8b 00                	mov    (%eax),%eax
  102fa2:	25 00 10 00 00       	and    $0x1000,%eax
  102fa7:	85 c0                	test   %eax,%eax
  102fa9:	75 eb                	jne    102f96 <lapicinit+0x13b>
/u/s/h/shirui/private/cs537/p3a/p3/xv6-sp20/kernel/lapic.c:94
  102fab:	83 ec 08             	sub    $0x8,%esp
  102fae:	6a 00                	push   $0x0
  102fb0:	6a 20                	push   $0x20
  102fb2:	e8 82 fe ff ff       	call   102e39 <lapicw>
  102fb7:	83 c4 10             	add    $0x10,%esp
  102fba:	eb 01                	jmp    102fbd <lapicinit+0x162>
/u/s/h/shirui/private/cs537/p3a/p3/xv6-sp20/kernel/lapic.c:55
  102fbc:	90                   	nop
/u/s/h/shirui/private/cs537/p3a/p3/xv6-sp20/kernel/lapic.c:95
  102fbd:	c9                   	leave  
  102fbe:	c3                   	ret    

00102fbf <cpunum>:
cpunum():
/u/s/h/shirui/private/cs537/p3a/p3/xv6-sp20/kernel/lapic.c:99
  102fbf:	55                   	push   %ebp
  102fc0:	89 e5                	mov    %esp,%ebp
  102fc2:	83 ec 08             	sub    $0x8,%esp
/u/s/h/shirui/private/cs537/p3a/p3/xv6-sp20/kernel/lapic.c:105
  102fc5:	e8 5f fe ff ff       	call   102e29 <readeflags>
  102fca:	25 00 02 00 00       	and    $0x200,%eax
  102fcf:	85 c0                	test   %eax,%eax
  102fd1:	74 26                	je     102ff9 <cpunum+0x3a>
/u/s/h/shirui/private/cs537/p3a/p3/xv6-sp20/kernel/lapic.c:107
  102fd3:	a1 60 bb 10 00       	mov    0x10bb60,%eax
  102fd8:	8d 50 01             	lea    0x1(%eax),%edx
  102fdb:	89 15 60 bb 10 00    	mov    %edx,0x10bb60
  102fe1:	85 c0                	test   %eax,%eax
  102fe3:	75 14                	jne    102ff9 <cpunum+0x3a>
/u/s/h/shirui/private/cs537/p3a/p3/xv6-sp20/kernel/lapic.c:108
  102fe5:	8b 45 04             	mov    0x4(%ebp),%eax
  102fe8:	83 ec 08             	sub    $0x8,%esp
  102feb:	50                   	push   %eax
  102fec:	68 f0 80 10 00       	push   $0x1080f0
  102ff1:	e8 f6 d3 ff ff       	call   1003ec <cprintf>
  102ff6:	83 c4 10             	add    $0x10,%esp
/u/s/h/shirui/private/cs537/p3a/p3/xv6-sp20/kernel/lapic.c:112
  102ff9:	a1 a4 fd 10 00       	mov    0x10fda4,%eax
  102ffe:	85 c0                	test   %eax,%eax
  103000:	74 0f                	je     103011 <cpunum+0x52>
/u/s/h/shirui/private/cs537/p3a/p3/xv6-sp20/kernel/lapic.c:113
  103002:	a1 a4 fd 10 00       	mov    0x10fda4,%eax
  103007:	83 c0 20             	add    $0x20,%eax
  10300a:	8b 00                	mov    (%eax),%eax
  10300c:	c1 e8 18             	shr    $0x18,%eax
  10300f:	eb 05                	jmp    103016 <cpunum+0x57>
/u/s/h/shirui/private/cs537/p3a/p3/xv6-sp20/kernel/lapic.c:114
  103011:	b8 00 00 00 00       	mov    $0x0,%eax
/u/s/h/shirui/private/cs537/p3a/p3/xv6-sp20/kernel/lapic.c:115
  103016:	c9                   	leave  
  103017:	c3                   	ret    

00103018 <lapiceoi>:
lapiceoi():
/u/s/h/shirui/private/cs537/p3a/p3/xv6-sp20/kernel/lapic.c:120
  103018:	55                   	push   %ebp
  103019:	89 e5                	mov    %esp,%ebp
/u/s/h/shirui/private/cs537/p3a/p3/xv6-sp20/kernel/lapic.c:121
  10301b:	a1 a4 fd 10 00       	mov    0x10fda4,%eax
  103020:	85 c0                	test   %eax,%eax
  103022:	74 0c                	je     103030 <lapiceoi+0x18>
/u/s/h/shirui/private/cs537/p3a/p3/xv6-sp20/kernel/lapic.c:122
  103024:	6a 00                	push   $0x0
  103026:	6a 2c                	push   $0x2c
  103028:	e8 0c fe ff ff       	call   102e39 <lapicw>
  10302d:	83 c4 08             	add    $0x8,%esp
/u/s/h/shirui/private/cs537/p3a/p3/xv6-sp20/kernel/lapic.c:123
  103030:	90                   	nop
  103031:	c9                   	leave  
  103032:	c3                   	ret    

00103033 <microdelay>:
microdelay():
/u/s/h/shirui/private/cs537/p3a/p3/xv6-sp20/kernel/lapic.c:129
  103033:	55                   	push   %ebp
  103034:	89 e5                	mov    %esp,%ebp
/u/s/h/shirui/private/cs537/p3a/p3/xv6-sp20/kernel/lapic.c:130
  103036:	90                   	nop
  103037:	5d                   	pop    %ebp
  103038:	c3                   	ret    

00103039 <lapicstartap>:
lapicstartap():
/u/s/h/shirui/private/cs537/p3a/p3/xv6-sp20/kernel/lapic.c:138
  103039:	55                   	push   %ebp
  10303a:	89 e5                	mov    %esp,%ebp
  10303c:	83 ec 14             	sub    $0x14,%esp
  10303f:	8b 45 08             	mov    0x8(%ebp),%eax
  103042:	88 45 ec             	mov    %al,-0x14(%ebp)
/u/s/h/shirui/private/cs537/p3a/p3/xv6-sp20/kernel/lapic.c:145
  103045:	6a 0f                	push   $0xf
  103047:	6a 70                	push   $0x70
  103049:	e8 bc fd ff ff       	call   102e0a <outb>
  10304e:	83 c4 08             	add    $0x8,%esp
/u/s/h/shirui/private/cs537/p3a/p3/xv6-sp20/kernel/lapic.c:146
  103051:	6a 0a                	push   $0xa
  103053:	6a 71                	push   $0x71
  103055:	e8 b0 fd ff ff       	call   102e0a <outb>
  10305a:	83 c4 08             	add    $0x8,%esp
/u/s/h/shirui/private/cs537/p3a/p3/xv6-sp20/kernel/lapic.c:147
  10305d:	c7 45 f8 67 04 00 00 	movl   $0x467,-0x8(%ebp)
/u/s/h/shirui/private/cs537/p3a/p3/xv6-sp20/kernel/lapic.c:148
  103064:	8b 45 f8             	mov    -0x8(%ebp),%eax
  103067:	66 c7 00 00 00       	movw   $0x0,(%eax)
/u/s/h/shirui/private/cs537/p3a/p3/xv6-sp20/kernel/lapic.c:149
  10306c:	8b 45 0c             	mov    0xc(%ebp),%eax
  10306f:	c1 e8 04             	shr    $0x4,%eax
  103072:	89 c2                	mov    %eax,%edx
  103074:	8b 45 f8             	mov    -0x8(%ebp),%eax
  103077:	83 c0 02             	add    $0x2,%eax
  10307a:	66 89 10             	mov    %dx,(%eax)
/u/s/h/shirui/private/cs537/p3a/p3/xv6-sp20/kernel/lapic.c:153
  10307d:	0f b6 45 ec          	movzbl -0x14(%ebp),%eax
  103081:	c1 e0 18             	shl    $0x18,%eax
  103084:	50                   	push   %eax
  103085:	68 c4 00 00 00       	push   $0xc4
  10308a:	e8 aa fd ff ff       	call   102e39 <lapicw>
  10308f:	83 c4 08             	add    $0x8,%esp
/u/s/h/shirui/private/cs537/p3a/p3/xv6-sp20/kernel/lapic.c:154
  103092:	68 00 c5 00 00       	push   $0xc500
  103097:	68 c0 00 00 00       	push   $0xc0
  10309c:	e8 98 fd ff ff       	call   102e39 <lapicw>
  1030a1:	83 c4 08             	add    $0x8,%esp
/u/s/h/shirui/private/cs537/p3a/p3/xv6-sp20/kernel/lapic.c:155
  1030a4:	68 c8 00 00 00       	push   $0xc8
  1030a9:	e8 85 ff ff ff       	call   103033 <microdelay>
  1030ae:	83 c4 04             	add    $0x4,%esp
/u/s/h/shirui/private/cs537/p3a/p3/xv6-sp20/kernel/lapic.c:156
  1030b1:	68 00 85 00 00       	push   $0x8500
  1030b6:	68 c0 00 00 00       	push   $0xc0
  1030bb:	e8 79 fd ff ff       	call   102e39 <lapicw>
  1030c0:	83 c4 08             	add    $0x8,%esp
/u/s/h/shirui/private/cs537/p3a/p3/xv6-sp20/kernel/lapic.c:157
  1030c3:	6a 64                	push   $0x64
  1030c5:	e8 69 ff ff ff       	call   103033 <microdelay>
  1030ca:	83 c4 04             	add    $0x4,%esp
/u/s/h/shirui/private/cs537/p3a/p3/xv6-sp20/kernel/lapic.c:164
  1030cd:	c7 45 fc 00 00 00 00 	movl   $0x0,-0x4(%ebp)
  1030d4:	eb 3d                	jmp    103113 <lapicstartap+0xda>
/u/s/h/shirui/private/cs537/p3a/p3/xv6-sp20/kernel/lapic.c:165 (discriminator 3)
  1030d6:	0f b6 45 ec          	movzbl -0x14(%ebp),%eax
  1030da:	c1 e0 18             	shl    $0x18,%eax
  1030dd:	50                   	push   %eax
  1030de:	68 c4 00 00 00       	push   $0xc4
  1030e3:	e8 51 fd ff ff       	call   102e39 <lapicw>
  1030e8:	83 c4 08             	add    $0x8,%esp
/u/s/h/shirui/private/cs537/p3a/p3/xv6-sp20/kernel/lapic.c:166 (discriminator 3)
  1030eb:	8b 45 0c             	mov    0xc(%ebp),%eax
  1030ee:	c1 e8 0c             	shr    $0xc,%eax
  1030f1:	80 cc 06             	or     $0x6,%ah
  1030f4:	50                   	push   %eax
  1030f5:	68 c0 00 00 00       	push   $0xc0
  1030fa:	e8 3a fd ff ff       	call   102e39 <lapicw>
  1030ff:	83 c4 08             	add    $0x8,%esp
/u/s/h/shirui/private/cs537/p3a/p3/xv6-sp20/kernel/lapic.c:167 (discriminator 3)
  103102:	68 c8 00 00 00       	push   $0xc8
  103107:	e8 27 ff ff ff       	call   103033 <microdelay>
  10310c:	83 c4 04             	add    $0x4,%esp
/u/s/h/shirui/private/cs537/p3a/p3/xv6-sp20/kernel/lapic.c:164 (discriminator 3)
  10310f:	83 45 fc 01          	addl   $0x1,-0x4(%ebp)
/u/s/h/shirui/private/cs537/p3a/p3/xv6-sp20/kernel/lapic.c:164 (discriminator 1)
  103113:	83 7d fc 01          	cmpl   $0x1,-0x4(%ebp)
  103117:	7e bd                	jle    1030d6 <lapicstartap+0x9d>
/u/s/h/shirui/private/cs537/p3a/p3/xv6-sp20/kernel/lapic.c:169
  103119:	90                   	nop
  10311a:	c9                   	leave  
  10311b:	c3                   	ret    

0010311c <sti>:
sti():
/u/s/h/shirui/private/cs537/p3a/p3/xv6-sp20/include/x86.h:125
  10311c:	55                   	push   %ebp
  10311d:	89 e5                	mov    %esp,%ebp
/u/s/h/shirui/private/cs537/p3a/p3/xv6-sp20/include/x86.h:126
  10311f:	fb                   	sti    
/u/s/h/shirui/private/cs537/p3a/p3/xv6-sp20/include/x86.h:127
  103120:	90                   	nop
  103121:	5d                   	pop    %ebp
  103122:	c3                   	ret    

00103123 <xchg>:
xchg():
/u/s/h/shirui/private/cs537/p3a/p3/xv6-sp20/include/x86.h:131
  103123:	55                   	push   %ebp
  103124:	89 e5                	mov    %esp,%ebp
  103126:	83 ec 10             	sub    $0x10,%esp
/u/s/h/shirui/private/cs537/p3a/p3/xv6-sp20/include/x86.h:135
  103129:	8b 55 08             	mov    0x8(%ebp),%edx
  10312c:	8b 45 0c             	mov    0xc(%ebp),%eax
  10312f:	8b 4d 08             	mov    0x8(%ebp),%ecx
  103132:	f0 87 02             	lock xchg %eax,(%edx)
  103135:	89 45 fc             	mov    %eax,-0x4(%ebp)
/u/s/h/shirui/private/cs537/p3a/p3/xv6-sp20/include/x86.h:139
  103138:	8b 45 fc             	mov    -0x4(%ebp),%eax
/u/s/h/shirui/private/cs537/p3a/p3/xv6-sp20/include/x86.h:140
  10313b:	c9                   	leave  
  10313c:	c3                   	ret    

0010313d <main>:
main():
/u/s/h/shirui/private/cs537/p3a/p3/xv6-sp20/kernel/main.c:19
  10313d:	8d 4c 24 04          	lea    0x4(%esp),%ecx
  103141:	83 e4 f0             	and    $0xfffffff0,%esp
  103144:	ff 71 fc             	pushl  -0x4(%ecx)
  103147:	55                   	push   %ebp
  103148:	89 e5                	mov    %esp,%ebp
  10314a:	51                   	push   %ecx
  10314b:	83 ec 04             	sub    $0x4,%esp
/u/s/h/shirui/private/cs537/p3a/p3/xv6-sp20/kernel/main.c:20
  10314e:	e8 62 04 00 00       	call   1035b5 <mpinit>
/u/s/h/shirui/private/cs537/p3a/p3/xv6-sp20/kernel/main.c:21
  103153:	e8 50 02 00 00       	call   1033a8 <mpbcpu>
  103158:	83 ec 0c             	sub    $0xc,%esp
  10315b:	50                   	push   %eax
  10315c:	e8 fa fc ff ff       	call   102e5b <lapicinit>
  103161:	83 c4 10             	add    $0x10,%esp
/u/s/h/shirui/private/cs537/p3a/p3/xv6-sp20/kernel/main.c:22
  103164:	e8 be 3e 00 00       	call   107027 <seginit>
/u/s/h/shirui/private/cs537/p3a/p3/xv6-sp20/kernel/main.c:23
  103169:	e8 b5 f8 ff ff       	call   102a23 <kinit>
/u/s/h/shirui/private/cs537/p3a/p3/xv6-sp20/kernel/main.c:24
  10316e:	e8 00 00 00 00       	call   103173 <jmpkstack>

00103173 <jmpkstack>:
jmpkstack():
/u/s/h/shirui/private/cs537/p3a/p3/xv6-sp20/kernel/main.c:29
  103173:	55                   	push   %ebp
  103174:	89 e5                	mov    %esp,%ebp
  103176:	83 ec 18             	sub    $0x18,%esp
/u/s/h/shirui/private/cs537/p3a/p3/xv6-sp20/kernel/main.c:32
  103179:	e8 26 fa ff ff       	call   102ba4 <kalloc>
  10317e:	89 45 f4             	mov    %eax,-0xc(%ebp)
/u/s/h/shirui/private/cs537/p3a/p3/xv6-sp20/kernel/main.c:33
  103181:	83 7d f4 00          	cmpl   $0x0,-0xc(%ebp)
  103185:	75 0d                	jne    103194 <jmpkstack+0x21>
/u/s/h/shirui/private/cs537/p3a/p3/xv6-sp20/kernel/main.c:34
  103187:	83 ec 0c             	sub    $0xc,%esp
  10318a:	68 1c 81 10 00       	push   $0x10811c
  10318f:	e8 e4 d3 ff ff       	call   100578 <panic>
/u/s/h/shirui/private/cs537/p3a/p3/xv6-sp20/kernel/main.c:35
  103194:	8b 45 f4             	mov    -0xc(%ebp),%eax
  103197:	05 00 10 00 00       	add    $0x1000,%eax
  10319c:	89 45 f0             	mov    %eax,-0x10(%ebp)
/u/s/h/shirui/private/cs537/p3a/p3/xv6-sp20/kernel/main.c:36
  10319f:	8b 45 f0             	mov    -0x10(%ebp),%eax
  1031a2:	89 c4                	mov    %eax,%esp
  1031a4:	e8 0d 00 00 00       	call   1031b6 <mainc>
/u/s/h/shirui/private/cs537/p3a/p3/xv6-sp20/kernel/main.c:37
  1031a9:	83 ec 0c             	sub    $0xc,%esp
  1031ac:	68 2d 81 10 00       	push   $0x10812d
  1031b1:	e8 c2 d3 ff ff       	call   100578 <panic>

001031b6 <mainc>:
mainc():
/u/s/h/shirui/private/cs537/p3a/p3/xv6-sp20/kernel/main.c:44
  1031b6:	55                   	push   %ebp
  1031b7:	89 e5                	mov    %esp,%ebp
  1031b9:	83 ec 08             	sub    $0x8,%esp
/u/s/h/shirui/private/cs537/p3a/p3/xv6-sp20/kernel/main.c:45
  1031bc:	65 a1 00 00 00 00    	mov    %gs:0x0,%eax
  1031c2:	0f b6 00             	movzbl (%eax),%eax
  1031c5:	0f b6 c0             	movzbl %al,%eax
  1031c8:	83 ec 08             	sub    $0x8,%esp
  1031cb:	50                   	push   %eax
  1031cc:	68 37 81 10 00       	push   $0x108137
  1031d1:	e8 16 d2 ff ff       	call   1003ec <cprintf>
  1031d6:	83 c4 10             	add    $0x10,%esp
/u/s/h/shirui/private/cs537/p3a/p3/xv6-sp20/kernel/main.c:46
  1031d9:	e8 2d 06 00 00       	call   10380b <picinit>
/u/s/h/shirui/private/cs537/p3a/p3/xv6-sp20/kernel/main.c:47
  1031de:	e8 42 f7 ff ff       	call   102925 <ioapicinit>
/u/s/h/shirui/private/cs537/p3a/p3/xv6-sp20/kernel/main.c:48
  1031e3:	e8 1b d9 ff ff       	call   100b03 <consoleinit>
/u/s/h/shirui/private/cs537/p3a/p3/xv6-sp20/kernel/main.c:49
  1031e8:	e8 80 31 00 00       	call   10636d <uartinit>
/u/s/h/shirui/private/cs537/p3a/p3/xv6-sp20/kernel/main.c:50
  1031ed:	e8 22 3e 00 00       	call   107014 <kvmalloc>
/u/s/h/shirui/private/cs537/p3a/p3/xv6-sp20/kernel/main.c:51
  1031f2:	e8 14 0b 00 00       	call   103d0b <pinit>
/u/s/h/shirui/private/cs537/p3a/p3/xv6-sp20/kernel/main.c:52
  1031f7:	e8 3b 2d 00 00       	call   105f37 <tvinit>
/u/s/h/shirui/private/cs537/p3a/p3/xv6-sp20/kernel/main.c:53
  1031fc:	e8 69 ce ff ff       	call   10006a <binit>
/u/s/h/shirui/private/cs537/p3a/p3/xv6-sp20/kernel/main.c:54
  103201:	e8 3d dd ff ff       	call   100f43 <fileinit>
/u/s/h/shirui/private/cs537/p3a/p3/xv6-sp20/kernel/main.c:55
  103206:	e8 71 e3 ff ff       	call   10157c <iinit>
/u/s/h/shirui/private/cs537/p3a/p3/xv6-sp20/kernel/main.c:56
  10320b:	e8 59 f3 ff ff       	call   102569 <ideinit>
/u/s/h/shirui/private/cs537/p3a/p3/xv6-sp20/kernel/main.c:57
  103210:	a1 c4 fd 10 00       	mov    0x10fdc4,%eax
  103215:	85 c0                	test   %eax,%eax
  103217:	75 05                	jne    10321e <mainc+0x68>
/u/s/h/shirui/private/cs537/p3a/p3/xv6-sp20/kernel/main.c:58
  103219:	e8 76 2c 00 00       	call   105e94 <timerinit>
/u/s/h/shirui/private/cs537/p3a/p3/xv6-sp20/kernel/main.c:59
  10321e:	e8 97 00 00 00       	call   1032ba <bootothers>
/u/s/h/shirui/private/cs537/p3a/p3/xv6-sp20/kernel/main.c:62
  103223:	e8 0f 00 00 00       	call   103237 <cinit>
/u/s/h/shirui/private/cs537/p3a/p3/xv6-sp20/kernel/main.c:63
  103228:	e8 ef fe ff ff       	call   10311c <sti>
/u/s/h/shirui/private/cs537/p3a/p3/xv6-sp20/kernel/main.c:64
  10322d:	e8 fd 0b 00 00       	call   103e2f <userinit>
/u/s/h/shirui/private/cs537/p3a/p3/xv6-sp20/kernel/main.c:65
  103232:	e8 9b 11 00 00       	call   1043d2 <scheduler>

00103237 <cinit>:
cinit():
/u/s/h/shirui/private/cs537/p3a/p3/xv6-sp20/kernel/main.c:70
  103237:	55                   	push   %ebp
  103238:	89 e5                	mov    %esp,%ebp
  10323a:	53                   	push   %ebx
  10323b:	83 ec 04             	sub    $0x4,%esp
/u/s/h/shirui/private/cs537/p3a/p3/xv6-sp20/kernel/main.c:71
  10323e:	e8 7c fd ff ff       	call   102fbf <cpunum>
  103243:	89 c3                	mov    %eax,%ebx
  103245:	e8 5e 01 00 00       	call   1033a8 <mpbcpu>
  10324a:	39 c3                	cmp    %eax,%ebx
  10324c:	74 16                	je     103264 <cinit+0x2d>
/u/s/h/shirui/private/cs537/p3a/p3/xv6-sp20/kernel/main.c:72
  10324e:	e8 d4 3d 00 00       	call   107027 <seginit>
/u/s/h/shirui/private/cs537/p3a/p3/xv6-sp20/kernel/main.c:73
  103253:	e8 67 fd ff ff       	call   102fbf <cpunum>
  103258:	83 ec 0c             	sub    $0xc,%esp
  10325b:	50                   	push   %eax
  10325c:	e8 fa fb ff ff       	call   102e5b <lapicinit>
  103261:	83 c4 10             	add    $0x10,%esp
/u/s/h/shirui/private/cs537/p3a/p3/xv6-sp20/kernel/main.c:75
  103264:	e8 07 46 00 00       	call   107870 <vmenable>
/u/s/h/shirui/private/cs537/p3a/p3/xv6-sp20/kernel/main.c:76
  103269:	65 a1 00 00 00 00    	mov    %gs:0x0,%eax
  10326f:	0f b6 00             	movzbl (%eax),%eax
  103272:	0f b6 c0             	movzbl %al,%eax
  103275:	83 ec 08             	sub    $0x8,%esp
  103278:	50                   	push   %eax
  103279:	68 4e 81 10 00       	push   $0x10814e
  10327e:	e8 69 d1 ff ff       	call   1003ec <cprintf>
  103283:	83 c4 10             	add    $0x10,%esp
/u/s/h/shirui/private/cs537/p3a/p3/xv6-sp20/kernel/main.c:77
  103286:	e8 22 2e 00 00       	call   1060ad <idtinit>
/u/s/h/shirui/private/cs537/p3a/p3/xv6-sp20/kernel/main.c:78
  10328b:	65 a1 00 00 00 00    	mov    %gs:0x0,%eax
  103291:	05 a8 00 00 00       	add    $0xa8,%eax
  103296:	83 ec 08             	sub    $0x8,%esp
  103299:	6a 01                	push   $0x1
  10329b:	50                   	push   %eax
  10329c:	e8 82 fe ff ff       	call   103123 <xchg>
  1032a1:	83 c4 10             	add    $0x10,%esp
/u/s/h/shirui/private/cs537/p3a/p3/xv6-sp20/kernel/main.c:79
  1032a4:	90                   	nop
  1032a5:	8b 5d fc             	mov    -0x4(%ebp),%ebx
  1032a8:	c9                   	leave  
  1032a9:	c3                   	ret    

001032aa <mpmain>:
mpmain():
/u/s/h/shirui/private/cs537/p3a/p3/xv6-sp20/kernel/main.c:86
  1032aa:	55                   	push   %ebp
  1032ab:	89 e5                	mov    %esp,%ebp
  1032ad:	83 ec 08             	sub    $0x8,%esp
/u/s/h/shirui/private/cs537/p3a/p3/xv6-sp20/kernel/main.c:87
  1032b0:	e8 82 ff ff ff       	call   103237 <cinit>
/u/s/h/shirui/private/cs537/p3a/p3/xv6-sp20/kernel/main.c:88
  1032b5:	e8 18 11 00 00       	call   1043d2 <scheduler>

001032ba <bootothers>:
bootothers():
/u/s/h/shirui/private/cs537/p3a/p3/xv6-sp20/kernel/main.c:94
  1032ba:	55                   	push   %ebp
  1032bb:	89 e5                	mov    %esp,%ebp
  1032bd:	83 ec 18             	sub    $0x18,%esp
/u/s/h/shirui/private/cs537/p3a/p3/xv6-sp20/kernel/main.c:103
  1032c0:	c7 45 f0 00 70 00 00 	movl   $0x7000,-0x10(%ebp)
/u/s/h/shirui/private/cs537/p3a/p3/xv6-sp20/kernel/main.c:104
  1032c7:	b8 6a 00 00 00       	mov    $0x6a,%eax
  1032cc:	83 ec 04             	sub    $0x4,%esp
  1032cf:	50                   	push   %eax
  1032d0:	68 3c ba 10 00       	push   $0x10ba3c
  1032d5:	ff 75 f0             	pushl  -0x10(%ebp)
  1032d8:	e8 52 18 00 00       	call   104b2f <memmove>
  1032dd:	83 c4 10             	add    $0x10,%esp
/u/s/h/shirui/private/cs537/p3a/p3/xv6-sp20/kernel/main.c:106
  1032e0:	c7 45 f4 e0 fd 10 00 	movl   $0x10fde0,-0xc(%ebp)
  1032e7:	eb 6b                	jmp    103354 <bootothers+0x9a>
/u/s/h/shirui/private/cs537/p3a/p3/xv6-sp20/kernel/main.c:107
  1032e9:	e8 d1 fc ff ff       	call   102fbf <cpunum>
  1032ee:	69 c0 bc 00 00 00    	imul   $0xbc,%eax,%eax
  1032f4:	05 e0 fd 10 00       	add    $0x10fde0,%eax
  1032f9:	39 45 f4             	cmp    %eax,-0xc(%ebp)
  1032fc:	74 4e                	je     10334c <bootothers+0x92>
/u/s/h/shirui/private/cs537/p3a/p3/xv6-sp20/kernel/main.c:113
  1032fe:	e8 a1 f8 ff ff       	call   102ba4 <kalloc>
  103303:	89 45 ec             	mov    %eax,-0x14(%ebp)
/u/s/h/shirui/private/cs537/p3a/p3/xv6-sp20/kernel/main.c:114
  103306:	8b 45 f0             	mov    -0x10(%ebp),%eax
  103309:	83 e8 04             	sub    $0x4,%eax
  10330c:	8b 55 ec             	mov    -0x14(%ebp),%edx
  10330f:	81 c2 00 10 00 00    	add    $0x1000,%edx
  103315:	89 10                	mov    %edx,(%eax)
/u/s/h/shirui/private/cs537/p3a/p3/xv6-sp20/kernel/main.c:115
  103317:	8b 45 f0             	mov    -0x10(%ebp),%eax
  10331a:	83 e8 08             	sub    $0x8,%eax
  10331d:	c7 00 aa 32 10 00    	movl   $0x1032aa,(%eax)
/u/s/h/shirui/private/cs537/p3a/p3/xv6-sp20/kernel/main.c:117
  103323:	8b 55 f0             	mov    -0x10(%ebp),%edx
  103326:	8b 45 f4             	mov    -0xc(%ebp),%eax
  103329:	0f b6 00             	movzbl (%eax),%eax
  10332c:	0f b6 c0             	movzbl %al,%eax
  10332f:	83 ec 08             	sub    $0x8,%esp
  103332:	52                   	push   %edx
  103333:	50                   	push   %eax
  103334:	e8 00 fd ff ff       	call   103039 <lapicstartap>
  103339:	83 c4 10             	add    $0x10,%esp
/u/s/h/shirui/private/cs537/p3a/p3/xv6-sp20/kernel/main.c:120
  10333c:	90                   	nop
/u/s/h/shirui/private/cs537/p3a/p3/xv6-sp20/kernel/main.c:120 (discriminator 1)
  10333d:	8b 45 f4             	mov    -0xc(%ebp),%eax
  103340:	8b 80 a8 00 00 00    	mov    0xa8(%eax),%eax
  103346:	85 c0                	test   %eax,%eax
  103348:	74 f3                	je     10333d <bootothers+0x83>
  10334a:	eb 01                	jmp    10334d <bootothers+0x93>
/u/s/h/shirui/private/cs537/p3a/p3/xv6-sp20/kernel/main.c:108
  10334c:	90                   	nop
/u/s/h/shirui/private/cs537/p3a/p3/xv6-sp20/kernel/main.c:106 (discriminator 2)
  10334d:	81 45 f4 bc 00 00 00 	addl   $0xbc,-0xc(%ebp)
/u/s/h/shirui/private/cs537/p3a/p3/xv6-sp20/kernel/main.c:106 (discriminator 1)
  103354:	a1 c0 03 11 00       	mov    0x1103c0,%eax
  103359:	69 c0 bc 00 00 00    	imul   $0xbc,%eax,%eax
  10335f:	05 e0 fd 10 00       	add    $0x10fde0,%eax
  103364:	39 45 f4             	cmp    %eax,-0xc(%ebp)
  103367:	72 80                	jb     1032e9 <bootothers+0x2f>
/u/s/h/shirui/private/cs537/p3a/p3/xv6-sp20/kernel/main.c:123
  103369:	90                   	nop
  10336a:	c9                   	leave  
  10336b:	c3                   	ret    

0010336c <inb>:
inb():
/u/s/h/shirui/private/cs537/p3a/p3/xv6-sp20/include/x86.h:7
  10336c:	55                   	push   %ebp
  10336d:	89 e5                	mov    %esp,%ebp
  10336f:	83 ec 14             	sub    $0x14,%esp
  103372:	8b 45 08             	mov    0x8(%ebp),%eax
  103375:	66 89 45 ec          	mov    %ax,-0x14(%ebp)
/u/s/h/shirui/private/cs537/p3a/p3/xv6-sp20/include/x86.h:10
  103379:	0f b7 45 ec          	movzwl -0x14(%ebp),%eax
  10337d:	89 c2                	mov    %eax,%edx
  10337f:	ec                   	in     (%dx),%al
  103380:	88 45 ff             	mov    %al,-0x1(%ebp)
/u/s/h/shirui/private/cs537/p3a/p3/xv6-sp20/include/x86.h:11
  103383:	0f b6 45 ff          	movzbl -0x1(%ebp),%eax
/u/s/h/shirui/private/cs537/p3a/p3/xv6-sp20/include/x86.h:12
  103387:	c9                   	leave  
  103388:	c3                   	ret    

00103389 <outb>:
outb():
/u/s/h/shirui/private/cs537/p3a/p3/xv6-sp20/include/x86.h:25
  103389:	55                   	push   %ebp
  10338a:	89 e5                	mov    %esp,%ebp
  10338c:	83 ec 08             	sub    $0x8,%esp
  10338f:	8b 55 08             	mov    0x8(%ebp),%edx
  103392:	8b 45 0c             	mov    0xc(%ebp),%eax
  103395:	66 89 55 fc          	mov    %dx,-0x4(%ebp)
  103399:	88 45 f8             	mov    %al,-0x8(%ebp)
/u/s/h/shirui/private/cs537/p3a/p3/xv6-sp20/include/x86.h:26
  10339c:	0f b6 45 f8          	movzbl -0x8(%ebp),%eax
  1033a0:	0f b7 55 fc          	movzwl -0x4(%ebp),%edx
  1033a4:	ee                   	out    %al,(%dx)
/u/s/h/shirui/private/cs537/p3a/p3/xv6-sp20/include/x86.h:27
  1033a5:	90                   	nop
  1033a6:	c9                   	leave  
  1033a7:	c3                   	ret    

001033a8 <mpbcpu>:
mpbcpu():
/u/s/h/shirui/private/cs537/p3a/p3/xv6-sp20/kernel/mp.c:21
  1033a8:	55                   	push   %ebp
  1033a9:	89 e5                	mov    %esp,%ebp
/u/s/h/shirui/private/cs537/p3a/p3/xv6-sp20/kernel/mp.c:22
  1033ab:	a1 64 bb 10 00       	mov    0x10bb64,%eax
  1033b0:	89 c2                	mov    %eax,%edx
  1033b2:	b8 e0 fd 10 00       	mov    $0x10fde0,%eax
  1033b7:	29 c2                	sub    %eax,%edx
  1033b9:	89 d0                	mov    %edx,%eax
  1033bb:	c1 f8 02             	sar    $0x2,%eax
  1033be:	69 c0 cf 46 7d 67    	imul   $0x677d46cf,%eax,%eax
/u/s/h/shirui/private/cs537/p3a/p3/xv6-sp20/kernel/mp.c:23
  1033c4:	5d                   	pop    %ebp
  1033c5:	c3                   	ret    

001033c6 <sum>:
sum():
/u/s/h/shirui/private/cs537/p3a/p3/xv6-sp20/kernel/mp.c:27
  1033c6:	55                   	push   %ebp
  1033c7:	89 e5                	mov    %esp,%ebp
  1033c9:	83 ec 10             	sub    $0x10,%esp
/u/s/h/shirui/private/cs537/p3a/p3/xv6-sp20/kernel/mp.c:30
  1033cc:	c7 45 f8 00 00 00 00 	movl   $0x0,-0x8(%ebp)
/u/s/h/shirui/private/cs537/p3a/p3/xv6-sp20/kernel/mp.c:31
  1033d3:	c7 45 fc 00 00 00 00 	movl   $0x0,-0x4(%ebp)
  1033da:	eb 15                	jmp    1033f1 <sum+0x2b>
/u/s/h/shirui/private/cs537/p3a/p3/xv6-sp20/kernel/mp.c:32 (discriminator 3)
  1033dc:	8b 55 fc             	mov    -0x4(%ebp),%edx
  1033df:	8b 45 08             	mov    0x8(%ebp),%eax
  1033e2:	01 d0                	add    %edx,%eax
  1033e4:	0f b6 00             	movzbl (%eax),%eax
  1033e7:	0f b6 c0             	movzbl %al,%eax
  1033ea:	01 45 f8             	add    %eax,-0x8(%ebp)
/u/s/h/shirui/private/cs537/p3a/p3/xv6-sp20/kernel/mp.c:31 (discriminator 3)
  1033ed:	83 45 fc 01          	addl   $0x1,-0x4(%ebp)
/u/s/h/shirui/private/cs537/p3a/p3/xv6-sp20/kernel/mp.c:31 (discriminator 1)
  1033f1:	8b 45 fc             	mov    -0x4(%ebp),%eax
  1033f4:	3b 45 0c             	cmp    0xc(%ebp),%eax
  1033f7:	7c e3                	jl     1033dc <sum+0x16>
/u/s/h/shirui/private/cs537/p3a/p3/xv6-sp20/kernel/mp.c:33
  1033f9:	8b 45 f8             	mov    -0x8(%ebp),%eax
/u/s/h/shirui/private/cs537/p3a/p3/xv6-sp20/kernel/mp.c:34
  1033fc:	c9                   	leave  
  1033fd:	c3                   	ret    

001033fe <mpsearch1>:
mpsearch1():
/u/s/h/shirui/private/cs537/p3a/p3/xv6-sp20/kernel/mp.c:39
  1033fe:	55                   	push   %ebp
  1033ff:	89 e5                	mov    %esp,%ebp
  103401:	83 ec 18             	sub    $0x18,%esp
/u/s/h/shirui/private/cs537/p3a/p3/xv6-sp20/kernel/mp.c:42
  103404:	8b 55 0c             	mov    0xc(%ebp),%edx
  103407:	8b 45 08             	mov    0x8(%ebp),%eax
  10340a:	01 d0                	add    %edx,%eax
  10340c:	89 45 f0             	mov    %eax,-0x10(%ebp)
/u/s/h/shirui/private/cs537/p3a/p3/xv6-sp20/kernel/mp.c:43
  10340f:	8b 45 08             	mov    0x8(%ebp),%eax
  103412:	89 45 f4             	mov    %eax,-0xc(%ebp)
  103415:	eb 36                	jmp    10344d <mpsearch1+0x4f>
/u/s/h/shirui/private/cs537/p3a/p3/xv6-sp20/kernel/mp.c:44
  103417:	83 ec 04             	sub    $0x4,%esp
  10341a:	6a 04                	push   $0x4
  10341c:	68 60 81 10 00       	push   $0x108160
  103421:	ff 75 f4             	pushl  -0xc(%ebp)
  103424:	e8 ae 16 00 00       	call   104ad7 <memcmp>
  103429:	83 c4 10             	add    $0x10,%esp
  10342c:	85 c0                	test   %eax,%eax
  10342e:	75 19                	jne    103449 <mpsearch1+0x4b>
/u/s/h/shirui/private/cs537/p3a/p3/xv6-sp20/kernel/mp.c:44 (discriminator 1)
  103430:	83 ec 08             	sub    $0x8,%esp
  103433:	6a 10                	push   $0x10
  103435:	ff 75 f4             	pushl  -0xc(%ebp)
  103438:	e8 89 ff ff ff       	call   1033c6 <sum>
  10343d:	83 c4 10             	add    $0x10,%esp
  103440:	84 c0                	test   %al,%al
  103442:	75 05                	jne    103449 <mpsearch1+0x4b>
/u/s/h/shirui/private/cs537/p3a/p3/xv6-sp20/kernel/mp.c:45
  103444:	8b 45 f4             	mov    -0xc(%ebp),%eax
  103447:	eb 11                	jmp    10345a <mpsearch1+0x5c>
/u/s/h/shirui/private/cs537/p3a/p3/xv6-sp20/kernel/mp.c:43 (discriminator 2)
  103449:	83 45 f4 10          	addl   $0x10,-0xc(%ebp)
/u/s/h/shirui/private/cs537/p3a/p3/xv6-sp20/kernel/mp.c:43 (discriminator 1)
  10344d:	8b 45 f4             	mov    -0xc(%ebp),%eax
  103450:	3b 45 f0             	cmp    -0x10(%ebp),%eax
  103453:	72 c2                	jb     103417 <mpsearch1+0x19>
/u/s/h/shirui/private/cs537/p3a/p3/xv6-sp20/kernel/mp.c:46
  103455:	b8 00 00 00 00       	mov    $0x0,%eax
/u/s/h/shirui/private/cs537/p3a/p3/xv6-sp20/kernel/mp.c:47
  10345a:	c9                   	leave  
  10345b:	c3                   	ret    

0010345c <mpsearch>:
mpsearch():
/u/s/h/shirui/private/cs537/p3a/p3/xv6-sp20/kernel/mp.c:56
  10345c:	55                   	push   %ebp
  10345d:	89 e5                	mov    %esp,%ebp
  10345f:	83 ec 18             	sub    $0x18,%esp
/u/s/h/shirui/private/cs537/p3a/p3/xv6-sp20/kernel/mp.c:61
  103462:	c7 45 f4 00 04 00 00 	movl   $0x400,-0xc(%ebp)
/u/s/h/shirui/private/cs537/p3a/p3/xv6-sp20/kernel/mp.c:62
  103469:	8b 45 f4             	mov    -0xc(%ebp),%eax
  10346c:	83 c0 0f             	add    $0xf,%eax
  10346f:	0f b6 00             	movzbl (%eax),%eax
  103472:	0f b6 c0             	movzbl %al,%eax
  103475:	c1 e0 08             	shl    $0x8,%eax
  103478:	89 c2                	mov    %eax,%edx
  10347a:	8b 45 f4             	mov    -0xc(%ebp),%eax
  10347d:	83 c0 0e             	add    $0xe,%eax
  103480:	0f b6 00             	movzbl (%eax),%eax
  103483:	0f b6 c0             	movzbl %al,%eax
  103486:	09 d0                	or     %edx,%eax
  103488:	c1 e0 04             	shl    $0x4,%eax
  10348b:	89 45 f0             	mov    %eax,-0x10(%ebp)
  10348e:	83 7d f0 00          	cmpl   $0x0,-0x10(%ebp)
  103492:	74 22                	je     1034b6 <mpsearch+0x5a>
/u/s/h/shirui/private/cs537/p3a/p3/xv6-sp20/kernel/mp.c:63
  103494:	8b 45 f0             	mov    -0x10(%ebp),%eax
  103497:	83 ec 08             	sub    $0x8,%esp
  10349a:	68 00 04 00 00       	push   $0x400
  10349f:	50                   	push   %eax
  1034a0:	e8 59 ff ff ff       	call   1033fe <mpsearch1>
  1034a5:	83 c4 10             	add    $0x10,%esp
  1034a8:	89 45 ec             	mov    %eax,-0x14(%ebp)
  1034ab:	83 7d ec 00          	cmpl   $0x0,-0x14(%ebp)
  1034af:	74 51                	je     103502 <mpsearch+0xa6>
/u/s/h/shirui/private/cs537/p3a/p3/xv6-sp20/kernel/mp.c:64
  1034b1:	8b 45 ec             	mov    -0x14(%ebp),%eax
  1034b4:	eb 61                	jmp    103517 <mpsearch+0xbb>
/u/s/h/shirui/private/cs537/p3a/p3/xv6-sp20/kernel/mp.c:66
  1034b6:	8b 45 f4             	mov    -0xc(%ebp),%eax
  1034b9:	83 c0 14             	add    $0x14,%eax
  1034bc:	0f b6 00             	movzbl (%eax),%eax
  1034bf:	0f b6 c0             	movzbl %al,%eax
  1034c2:	c1 e0 08             	shl    $0x8,%eax
  1034c5:	89 c2                	mov    %eax,%edx
  1034c7:	8b 45 f4             	mov    -0xc(%ebp),%eax
  1034ca:	83 c0 13             	add    $0x13,%eax
  1034cd:	0f b6 00             	movzbl (%eax),%eax
  1034d0:	0f b6 c0             	movzbl %al,%eax
  1034d3:	09 d0                	or     %edx,%eax
  1034d5:	c1 e0 0a             	shl    $0xa,%eax
  1034d8:	89 45 f0             	mov    %eax,-0x10(%ebp)
/u/s/h/shirui/private/cs537/p3a/p3/xv6-sp20/kernel/mp.c:67
  1034db:	8b 45 f0             	mov    -0x10(%ebp),%eax
  1034de:	2d 00 04 00 00       	sub    $0x400,%eax
  1034e3:	83 ec 08             	sub    $0x8,%esp
  1034e6:	68 00 04 00 00       	push   $0x400
  1034eb:	50                   	push   %eax
  1034ec:	e8 0d ff ff ff       	call   1033fe <mpsearch1>
  1034f1:	83 c4 10             	add    $0x10,%esp
  1034f4:	89 45 ec             	mov    %eax,-0x14(%ebp)
  1034f7:	83 7d ec 00          	cmpl   $0x0,-0x14(%ebp)
  1034fb:	74 05                	je     103502 <mpsearch+0xa6>
/u/s/h/shirui/private/cs537/p3a/p3/xv6-sp20/kernel/mp.c:68
  1034fd:	8b 45 ec             	mov    -0x14(%ebp),%eax
  103500:	eb 15                	jmp    103517 <mpsearch+0xbb>
/u/s/h/shirui/private/cs537/p3a/p3/xv6-sp20/kernel/mp.c:70
  103502:	83 ec 08             	sub    $0x8,%esp
  103505:	68 00 00 01 00       	push   $0x10000
  10350a:	68 00 00 0f 00       	push   $0xf0000
  10350f:	e8 ea fe ff ff       	call   1033fe <mpsearch1>
  103514:	83 c4 10             	add    $0x10,%esp
/u/s/h/shirui/private/cs537/p3a/p3/xv6-sp20/kernel/mp.c:71
  103517:	c9                   	leave  
  103518:	c3                   	ret    

00103519 <mpconfig>:
mpconfig():
/u/s/h/shirui/private/cs537/p3a/p3/xv6-sp20/kernel/mp.c:80
  103519:	55                   	push   %ebp
  10351a:	89 e5                	mov    %esp,%ebp
  10351c:	83 ec 18             	sub    $0x18,%esp
/u/s/h/shirui/private/cs537/p3a/p3/xv6-sp20/kernel/mp.c:84
  10351f:	e8 38 ff ff ff       	call   10345c <mpsearch>
  103524:	89 45 f4             	mov    %eax,-0xc(%ebp)
  103527:	83 7d f4 00          	cmpl   $0x0,-0xc(%ebp)
  10352b:	74 0a                	je     103537 <mpconfig+0x1e>
/u/s/h/shirui/private/cs537/p3a/p3/xv6-sp20/kernel/mp.c:84 (discriminator 1)
  10352d:	8b 45 f4             	mov    -0xc(%ebp),%eax
  103530:	8b 40 04             	mov    0x4(%eax),%eax
  103533:	85 c0                	test   %eax,%eax
  103535:	75 07                	jne    10353e <mpconfig+0x25>
/u/s/h/shirui/private/cs537/p3a/p3/xv6-sp20/kernel/mp.c:85
  103537:	b8 00 00 00 00       	mov    $0x0,%eax
  10353c:	eb 75                	jmp    1035b3 <mpconfig+0x9a>
/u/s/h/shirui/private/cs537/p3a/p3/xv6-sp20/kernel/mp.c:86
  10353e:	8b 45 f4             	mov    -0xc(%ebp),%eax
  103541:	8b 40 04             	mov    0x4(%eax),%eax
  103544:	89 45 f0             	mov    %eax,-0x10(%ebp)
/u/s/h/shirui/private/cs537/p3a/p3/xv6-sp20/kernel/mp.c:87
  103547:	83 ec 04             	sub    $0x4,%esp
  10354a:	6a 04                	push   $0x4
  10354c:	68 65 81 10 00       	push   $0x108165
  103551:	ff 75 f0             	pushl  -0x10(%ebp)
  103554:	e8 7e 15 00 00       	call   104ad7 <memcmp>
  103559:	83 c4 10             	add    $0x10,%esp
  10355c:	85 c0                	test   %eax,%eax
  10355e:	74 07                	je     103567 <mpconfig+0x4e>
/u/s/h/shirui/private/cs537/p3a/p3/xv6-sp20/kernel/mp.c:88
  103560:	b8 00 00 00 00       	mov    $0x0,%eax
  103565:	eb 4c                	jmp    1035b3 <mpconfig+0x9a>
/u/s/h/shirui/private/cs537/p3a/p3/xv6-sp20/kernel/mp.c:89
  103567:	8b 45 f0             	mov    -0x10(%ebp),%eax
  10356a:	0f b6 40 06          	movzbl 0x6(%eax),%eax
  10356e:	3c 01                	cmp    $0x1,%al
  103570:	74 12                	je     103584 <mpconfig+0x6b>
/u/s/h/shirui/private/cs537/p3a/p3/xv6-sp20/kernel/mp.c:89 (discriminator 1)
  103572:	8b 45 f0             	mov    -0x10(%ebp),%eax
  103575:	0f b6 40 06          	movzbl 0x6(%eax),%eax
  103579:	3c 04                	cmp    $0x4,%al
  10357b:	74 07                	je     103584 <mpconfig+0x6b>
/u/s/h/shirui/private/cs537/p3a/p3/xv6-sp20/kernel/mp.c:90
  10357d:	b8 00 00 00 00       	mov    $0x0,%eax
  103582:	eb 2f                	jmp    1035b3 <mpconfig+0x9a>
/u/s/h/shirui/private/cs537/p3a/p3/xv6-sp20/kernel/mp.c:91
  103584:	8b 45 f0             	mov    -0x10(%ebp),%eax
  103587:	0f b7 40 04          	movzwl 0x4(%eax),%eax
  10358b:	0f b7 c0             	movzwl %ax,%eax
  10358e:	83 ec 08             	sub    $0x8,%esp
  103591:	50                   	push   %eax
  103592:	ff 75 f0             	pushl  -0x10(%ebp)
  103595:	e8 2c fe ff ff       	call   1033c6 <sum>
  10359a:	83 c4 10             	add    $0x10,%esp
  10359d:	84 c0                	test   %al,%al
  10359f:	74 07                	je     1035a8 <mpconfig+0x8f>
/u/s/h/shirui/private/cs537/p3a/p3/xv6-sp20/kernel/mp.c:92
  1035a1:	b8 00 00 00 00       	mov    $0x0,%eax
  1035a6:	eb 0b                	jmp    1035b3 <mpconfig+0x9a>
/u/s/h/shirui/private/cs537/p3a/p3/xv6-sp20/kernel/mp.c:93
  1035a8:	8b 45 08             	mov    0x8(%ebp),%eax
  1035ab:	8b 55 f4             	mov    -0xc(%ebp),%edx
  1035ae:	89 10                	mov    %edx,(%eax)
/u/s/h/shirui/private/cs537/p3a/p3/xv6-sp20/kernel/mp.c:94
  1035b0:	8b 45 f0             	mov    -0x10(%ebp),%eax
/u/s/h/shirui/private/cs537/p3a/p3/xv6-sp20/kernel/mp.c:95
  1035b3:	c9                   	leave  
  1035b4:	c3                   	ret    

001035b5 <mpinit>:
mpinit():
/u/s/h/shirui/private/cs537/p3a/p3/xv6-sp20/kernel/mp.c:99
  1035b5:	55                   	push   %ebp
  1035b6:	89 e5                	mov    %esp,%ebp
  1035b8:	83 ec 28             	sub    $0x28,%esp
/u/s/h/shirui/private/cs537/p3a/p3/xv6-sp20/kernel/mp.c:106
  1035bb:	c7 05 64 bb 10 00 e0 	movl   $0x10fde0,0x10bb64
  1035c2:	fd 10 00 
/u/s/h/shirui/private/cs537/p3a/p3/xv6-sp20/kernel/mp.c:107
  1035c5:	83 ec 0c             	sub    $0xc,%esp
  1035c8:	8d 45 e0             	lea    -0x20(%ebp),%eax
  1035cb:	50                   	push   %eax
  1035cc:	e8 48 ff ff ff       	call   103519 <mpconfig>
  1035d1:	83 c4 10             	add    $0x10,%esp
  1035d4:	89 45 f0             	mov    %eax,-0x10(%ebp)
  1035d7:	83 7d f0 00          	cmpl   $0x0,-0x10(%ebp)
  1035db:	0f 84 96 01 00 00    	je     103777 <mpinit+0x1c2>
/u/s/h/shirui/private/cs537/p3a/p3/xv6-sp20/kernel/mp.c:109
  1035e1:	c7 05 c4 fd 10 00 01 	movl   $0x1,0x10fdc4
  1035e8:	00 00 00 
/u/s/h/shirui/private/cs537/p3a/p3/xv6-sp20/kernel/mp.c:110
  1035eb:	8b 45 f0             	mov    -0x10(%ebp),%eax
  1035ee:	8b 40 24             	mov    0x24(%eax),%eax
  1035f1:	a3 a4 fd 10 00       	mov    %eax,0x10fda4
/u/s/h/shirui/private/cs537/p3a/p3/xv6-sp20/kernel/mp.c:111
  1035f6:	8b 45 f0             	mov    -0x10(%ebp),%eax
  1035f9:	83 c0 2c             	add    $0x2c,%eax
  1035fc:	89 45 f4             	mov    %eax,-0xc(%ebp)
  1035ff:	8b 45 f0             	mov    -0x10(%ebp),%eax
  103602:	0f b7 40 04          	movzwl 0x4(%eax),%eax
  103606:	0f b7 d0             	movzwl %ax,%edx
  103609:	8b 45 f0             	mov    -0x10(%ebp),%eax
  10360c:	01 d0                	add    %edx,%eax
  10360e:	89 45 ec             	mov    %eax,-0x14(%ebp)
  103611:	e9 f2 00 00 00       	jmp    103708 <mpinit+0x153>
/u/s/h/shirui/private/cs537/p3a/p3/xv6-sp20/kernel/mp.c:112
  103616:	8b 45 f4             	mov    -0xc(%ebp),%eax
  103619:	0f b6 00             	movzbl (%eax),%eax
  10361c:	0f b6 c0             	movzbl %al,%eax
  10361f:	83 f8 04             	cmp    $0x4,%eax
  103622:	0f 87 bc 00 00 00    	ja     1036e4 <mpinit+0x12f>
  103628:	8b 04 85 a8 81 10 00 	mov    0x1081a8(,%eax,4),%eax
  10362f:	ff e0                	jmp    *%eax
/u/s/h/shirui/private/cs537/p3a/p3/xv6-sp20/kernel/mp.c:114
  103631:	8b 45 f4             	mov    -0xc(%ebp),%eax
  103634:	89 45 e4             	mov    %eax,-0x1c(%ebp)
/u/s/h/shirui/private/cs537/p3a/p3/xv6-sp20/kernel/mp.c:115
  103637:	8b 45 e4             	mov    -0x1c(%ebp),%eax
  10363a:	0f b6 40 01          	movzbl 0x1(%eax),%eax
  10363e:	0f b6 d0             	movzbl %al,%edx
  103641:	a1 c0 03 11 00       	mov    0x1103c0,%eax
  103646:	39 c2                	cmp    %eax,%edx
  103648:	74 2b                	je     103675 <mpinit+0xc0>
/u/s/h/shirui/private/cs537/p3a/p3/xv6-sp20/kernel/mp.c:116
  10364a:	8b 45 e4             	mov    -0x1c(%ebp),%eax
  10364d:	0f b6 40 01          	movzbl 0x1(%eax),%eax
  103651:	0f b6 d0             	movzbl %al,%edx
  103654:	a1 c0 03 11 00       	mov    0x1103c0,%eax
  103659:	83 ec 04             	sub    $0x4,%esp
  10365c:	52                   	push   %edx
  10365d:	50                   	push   %eax
  10365e:	68 6a 81 10 00       	push   $0x10816a
  103663:	e8 84 cd ff ff       	call   1003ec <cprintf>
  103668:	83 c4 10             	add    $0x10,%esp
/u/s/h/shirui/private/cs537/p3a/p3/xv6-sp20/kernel/mp.c:117
  10366b:	c7 05 c4 fd 10 00 00 	movl   $0x0,0x10fdc4
  103672:	00 00 00 
/u/s/h/shirui/private/cs537/p3a/p3/xv6-sp20/kernel/mp.c:119
  103675:	8b 45 e4             	mov    -0x1c(%ebp),%eax
  103678:	0f b6 40 03          	movzbl 0x3(%eax),%eax
  10367c:	0f b6 c0             	movzbl %al,%eax
  10367f:	83 e0 02             	and    $0x2,%eax
  103682:	85 c0                	test   %eax,%eax
  103684:	74 15                	je     10369b <mpinit+0xe6>
/u/s/h/shirui/private/cs537/p3a/p3/xv6-sp20/kernel/mp.c:120
  103686:	a1 c0 03 11 00       	mov    0x1103c0,%eax
  10368b:	69 c0 bc 00 00 00    	imul   $0xbc,%eax,%eax
  103691:	05 e0 fd 10 00       	add    $0x10fde0,%eax
  103696:	a3 64 bb 10 00       	mov    %eax,0x10bb64
/u/s/h/shirui/private/cs537/p3a/p3/xv6-sp20/kernel/mp.c:121
  10369b:	8b 15 c0 03 11 00    	mov    0x1103c0,%edx
  1036a1:	a1 c0 03 11 00       	mov    0x1103c0,%eax
  1036a6:	69 c0 bc 00 00 00    	imul   $0xbc,%eax,%eax
  1036ac:	05 e0 fd 10 00       	add    $0x10fde0,%eax
  1036b1:	88 10                	mov    %dl,(%eax)
/u/s/h/shirui/private/cs537/p3a/p3/xv6-sp20/kernel/mp.c:122
  1036b3:	a1 c0 03 11 00       	mov    0x1103c0,%eax
  1036b8:	83 c0 01             	add    $0x1,%eax
  1036bb:	a3 c0 03 11 00       	mov    %eax,0x1103c0
/u/s/h/shirui/private/cs537/p3a/p3/xv6-sp20/kernel/mp.c:123
  1036c0:	83 45 f4 14          	addl   $0x14,-0xc(%ebp)
/u/s/h/shirui/private/cs537/p3a/p3/xv6-sp20/kernel/mp.c:124
  1036c4:	eb 42                	jmp    103708 <mpinit+0x153>
/u/s/h/shirui/private/cs537/p3a/p3/xv6-sp20/kernel/mp.c:126
  1036c6:	8b 45 f4             	mov    -0xc(%ebp),%eax
  1036c9:	89 45 e8             	mov    %eax,-0x18(%ebp)
/u/s/h/shirui/private/cs537/p3a/p3/xv6-sp20/kernel/mp.c:127
  1036cc:	8b 45 e8             	mov    -0x18(%ebp),%eax
  1036cf:	0f b6 40 01          	movzbl 0x1(%eax),%eax
  1036d3:	a2 c0 fd 10 00       	mov    %al,0x10fdc0
/u/s/h/shirui/private/cs537/p3a/p3/xv6-sp20/kernel/mp.c:128
  1036d8:	83 45 f4 08          	addl   $0x8,-0xc(%ebp)
/u/s/h/shirui/private/cs537/p3a/p3/xv6-sp20/kernel/mp.c:129
  1036dc:	eb 2a                	jmp    103708 <mpinit+0x153>
/u/s/h/shirui/private/cs537/p3a/p3/xv6-sp20/kernel/mp.c:133
  1036de:	83 45 f4 08          	addl   $0x8,-0xc(%ebp)
/u/s/h/shirui/private/cs537/p3a/p3/xv6-sp20/kernel/mp.c:134
  1036e2:	eb 24                	jmp    103708 <mpinit+0x153>
/u/s/h/shirui/private/cs537/p3a/p3/xv6-sp20/kernel/mp.c:136
  1036e4:	8b 45 f4             	mov    -0xc(%ebp),%eax
  1036e7:	0f b6 00             	movzbl (%eax),%eax
  1036ea:	0f b6 c0             	movzbl %al,%eax
  1036ed:	83 ec 08             	sub    $0x8,%esp
  1036f0:	50                   	push   %eax
  1036f1:	68 88 81 10 00       	push   $0x108188
  1036f6:	e8 f1 cc ff ff       	call   1003ec <cprintf>
  1036fb:	83 c4 10             	add    $0x10,%esp
/u/s/h/shirui/private/cs537/p3a/p3/xv6-sp20/kernel/mp.c:137
  1036fe:	c7 05 c4 fd 10 00 00 	movl   $0x0,0x10fdc4
  103705:	00 00 00 
/u/s/h/shirui/private/cs537/p3a/p3/xv6-sp20/kernel/mp.c:111 (discriminator 1)
  103708:	8b 45 f4             	mov    -0xc(%ebp),%eax
  10370b:	3b 45 ec             	cmp    -0x14(%ebp),%eax
  10370e:	0f 82 02 ff ff ff    	jb     103616 <mpinit+0x61>
/u/s/h/shirui/private/cs537/p3a/p3/xv6-sp20/kernel/mp.c:140
  103714:	a1 c4 fd 10 00       	mov    0x10fdc4,%eax
  103719:	85 c0                	test   %eax,%eax
  10371b:	75 1d                	jne    10373a <mpinit+0x185>
/u/s/h/shirui/private/cs537/p3a/p3/xv6-sp20/kernel/mp.c:142
  10371d:	c7 05 c0 03 11 00 01 	movl   $0x1,0x1103c0
  103724:	00 00 00 
/u/s/h/shirui/private/cs537/p3a/p3/xv6-sp20/kernel/mp.c:143
  103727:	c7 05 a4 fd 10 00 00 	movl   $0x0,0x10fda4
  10372e:	00 00 00 
/u/s/h/shirui/private/cs537/p3a/p3/xv6-sp20/kernel/mp.c:144
  103731:	c6 05 c0 fd 10 00 00 	movb   $0x0,0x10fdc0
/u/s/h/shirui/private/cs537/p3a/p3/xv6-sp20/kernel/mp.c:145
  103738:	eb 3e                	jmp    103778 <mpinit+0x1c3>
/u/s/h/shirui/private/cs537/p3a/p3/xv6-sp20/kernel/mp.c:148
  10373a:	8b 45 e0             	mov    -0x20(%ebp),%eax
  10373d:	0f b6 40 0c          	movzbl 0xc(%eax),%eax
  103741:	84 c0                	test   %al,%al
  103743:	74 33                	je     103778 <mpinit+0x1c3>
/u/s/h/shirui/private/cs537/p3a/p3/xv6-sp20/kernel/mp.c:151
  103745:	83 ec 08             	sub    $0x8,%esp
  103748:	6a 70                	push   $0x70
  10374a:	6a 22                	push   $0x22
  10374c:	e8 38 fc ff ff       	call   103389 <outb>
  103751:	83 c4 10             	add    $0x10,%esp
/u/s/h/shirui/private/cs537/p3a/p3/xv6-sp20/kernel/mp.c:152
  103754:	83 ec 0c             	sub    $0xc,%esp
  103757:	6a 23                	push   $0x23
  103759:	e8 0e fc ff ff       	call   10336c <inb>
  10375e:	83 c4 10             	add    $0x10,%esp
  103761:	83 c8 01             	or     $0x1,%eax
  103764:	0f b6 c0             	movzbl %al,%eax
  103767:	83 ec 08             	sub    $0x8,%esp
  10376a:	50                   	push   %eax
  10376b:	6a 23                	push   $0x23
  10376d:	e8 17 fc ff ff       	call   103389 <outb>
  103772:	83 c4 10             	add    $0x10,%esp
  103775:	eb 01                	jmp    103778 <mpinit+0x1c3>
/u/s/h/shirui/private/cs537/p3a/p3/xv6-sp20/kernel/mp.c:108
  103777:	90                   	nop
/u/s/h/shirui/private/cs537/p3a/p3/xv6-sp20/kernel/mp.c:154
  103778:	c9                   	leave  
  103779:	c3                   	ret    

0010377a <outb>:
outb():
/u/s/h/shirui/private/cs537/p3a/p3/xv6-sp20/include/x86.h:25
  10377a:	55                   	push   %ebp
  10377b:	89 e5                	mov    %esp,%ebp
  10377d:	83 ec 08             	sub    $0x8,%esp
  103780:	8b 55 08             	mov    0x8(%ebp),%edx
  103783:	8b 45 0c             	mov    0xc(%ebp),%eax
  103786:	66 89 55 fc          	mov    %dx,-0x4(%ebp)
  10378a:	88 45 f8             	mov    %al,-0x8(%ebp)
/u/s/h/shirui/private/cs537/p3a/p3/xv6-sp20/include/x86.h:26
  10378d:	0f b6 45 f8          	movzbl -0x8(%ebp),%eax
  103791:	0f b7 55 fc          	movzwl -0x4(%ebp),%edx
  103795:	ee                   	out    %al,(%dx)
/u/s/h/shirui/private/cs537/p3a/p3/xv6-sp20/include/x86.h:27
  103796:	90                   	nop
  103797:	c9                   	leave  
  103798:	c3                   	ret    

00103799 <picsetmask>:
picsetmask():
/u/s/h/shirui/private/cs537/p3a/p3/xv6-sp20/kernel/picirq.c:19
  103799:	55                   	push   %ebp
  10379a:	89 e5                	mov    %esp,%ebp
  10379c:	83 ec 04             	sub    $0x4,%esp
  10379f:	8b 45 08             	mov    0x8(%ebp),%eax
  1037a2:	66 89 45 fc          	mov    %ax,-0x4(%ebp)
/u/s/h/shirui/private/cs537/p3a/p3/xv6-sp20/kernel/picirq.c:20
  1037a6:	0f b7 45 fc          	movzwl -0x4(%ebp),%eax
  1037aa:	66 a3 30 b5 10 00    	mov    %ax,0x10b530
/u/s/h/shirui/private/cs537/p3a/p3/xv6-sp20/kernel/picirq.c:21
  1037b0:	0f b7 45 fc          	movzwl -0x4(%ebp),%eax
  1037b4:	0f b6 c0             	movzbl %al,%eax
  1037b7:	50                   	push   %eax
  1037b8:	6a 21                	push   $0x21
  1037ba:	e8 bb ff ff ff       	call   10377a <outb>
  1037bf:	83 c4 08             	add    $0x8,%esp
/u/s/h/shirui/private/cs537/p3a/p3/xv6-sp20/kernel/picirq.c:22
  1037c2:	0f b7 45 fc          	movzwl -0x4(%ebp),%eax
  1037c6:	66 c1 e8 08          	shr    $0x8,%ax
  1037ca:	0f b6 c0             	movzbl %al,%eax
  1037cd:	50                   	push   %eax
  1037ce:	68 a1 00 00 00       	push   $0xa1
  1037d3:	e8 a2 ff ff ff       	call   10377a <outb>
  1037d8:	83 c4 08             	add    $0x8,%esp
/u/s/h/shirui/private/cs537/p3a/p3/xv6-sp20/kernel/picirq.c:23
  1037db:	90                   	nop
  1037dc:	c9                   	leave  
  1037dd:	c3                   	ret    

001037de <picenable>:
picenable():
/u/s/h/shirui/private/cs537/p3a/p3/xv6-sp20/kernel/picirq.c:27
  1037de:	55                   	push   %ebp
  1037df:	89 e5                	mov    %esp,%ebp
/u/s/h/shirui/private/cs537/p3a/p3/xv6-sp20/kernel/picirq.c:28
  1037e1:	8b 45 08             	mov    0x8(%ebp),%eax
  1037e4:	ba 01 00 00 00       	mov    $0x1,%edx
  1037e9:	89 c1                	mov    %eax,%ecx
  1037eb:	d3 e2                	shl    %cl,%edx
  1037ed:	89 d0                	mov    %edx,%eax
  1037ef:	f7 d0                	not    %eax
  1037f1:	89 c2                	mov    %eax,%edx
  1037f3:	0f b7 05 30 b5 10 00 	movzwl 0x10b530,%eax
  1037fa:	21 d0                	and    %edx,%eax
  1037fc:	0f b7 c0             	movzwl %ax,%eax
  1037ff:	50                   	push   %eax
  103800:	e8 94 ff ff ff       	call   103799 <picsetmask>
  103805:	83 c4 04             	add    $0x4,%esp
/u/s/h/shirui/private/cs537/p3a/p3/xv6-sp20/kernel/picirq.c:29
  103808:	90                   	nop
  103809:	c9                   	leave  
  10380a:	c3                   	ret    

0010380b <picinit>:
picinit():
/u/s/h/shirui/private/cs537/p3a/p3/xv6-sp20/kernel/picirq.c:34
  10380b:	55                   	push   %ebp
  10380c:	89 e5                	mov    %esp,%ebp
/u/s/h/shirui/private/cs537/p3a/p3/xv6-sp20/kernel/picirq.c:36
  10380e:	68 ff 00 00 00       	push   $0xff
  103813:	6a 21                	push   $0x21
  103815:	e8 60 ff ff ff       	call   10377a <outb>
  10381a:	83 c4 08             	add    $0x8,%esp
/u/s/h/shirui/private/cs537/p3a/p3/xv6-sp20/kernel/picirq.c:37
  10381d:	68 ff 00 00 00       	push   $0xff
  103822:	68 a1 00 00 00       	push   $0xa1
  103827:	e8 4e ff ff ff       	call   10377a <outb>
  10382c:	83 c4 08             	add    $0x8,%esp
/u/s/h/shirui/private/cs537/p3a/p3/xv6-sp20/kernel/picirq.c:45
  10382f:	6a 11                	push   $0x11
  103831:	6a 20                	push   $0x20
  103833:	e8 42 ff ff ff       	call   10377a <outb>
  103838:	83 c4 08             	add    $0x8,%esp
/u/s/h/shirui/private/cs537/p3a/p3/xv6-sp20/kernel/picirq.c:48
  10383b:	6a 20                	push   $0x20
  10383d:	6a 21                	push   $0x21
  10383f:	e8 36 ff ff ff       	call   10377a <outb>
  103844:	83 c4 08             	add    $0x8,%esp
/u/s/h/shirui/private/cs537/p3a/p3/xv6-sp20/kernel/picirq.c:52
  103847:	6a 04                	push   $0x4
  103849:	6a 21                	push   $0x21
  10384b:	e8 2a ff ff ff       	call   10377a <outb>
  103850:	83 c4 08             	add    $0x8,%esp
/u/s/h/shirui/private/cs537/p3a/p3/xv6-sp20/kernel/picirq.c:62
  103853:	6a 03                	push   $0x3
  103855:	6a 21                	push   $0x21
  103857:	e8 1e ff ff ff       	call   10377a <outb>
  10385c:	83 c4 08             	add    $0x8,%esp
/u/s/h/shirui/private/cs537/p3a/p3/xv6-sp20/kernel/picirq.c:65
  10385f:	6a 11                	push   $0x11
  103861:	68 a0 00 00 00       	push   $0xa0
  103866:	e8 0f ff ff ff       	call   10377a <outb>
  10386b:	83 c4 08             	add    $0x8,%esp
/u/s/h/shirui/private/cs537/p3a/p3/xv6-sp20/kernel/picirq.c:66
  10386e:	6a 28                	push   $0x28
  103870:	68 a1 00 00 00       	push   $0xa1
  103875:	e8 00 ff ff ff       	call   10377a <outb>
  10387a:	83 c4 08             	add    $0x8,%esp
/u/s/h/shirui/private/cs537/p3a/p3/xv6-sp20/kernel/picirq.c:67
  10387d:	6a 02                	push   $0x2
  10387f:	68 a1 00 00 00       	push   $0xa1
  103884:	e8 f1 fe ff ff       	call   10377a <outb>
  103889:	83 c4 08             	add    $0x8,%esp
/u/s/h/shirui/private/cs537/p3a/p3/xv6-sp20/kernel/picirq.c:70
  10388c:	6a 03                	push   $0x3
  10388e:	68 a1 00 00 00       	push   $0xa1
  103893:	e8 e2 fe ff ff       	call   10377a <outb>
  103898:	83 c4 08             	add    $0x8,%esp
/u/s/h/shirui/private/cs537/p3a/p3/xv6-sp20/kernel/picirq.c:76
  10389b:	6a 68                	push   $0x68
  10389d:	6a 20                	push   $0x20
  10389f:	e8 d6 fe ff ff       	call   10377a <outb>
  1038a4:	83 c4 08             	add    $0x8,%esp
/u/s/h/shirui/private/cs537/p3a/p3/xv6-sp20/kernel/picirq.c:77
  1038a7:	6a 0a                	push   $0xa
  1038a9:	6a 20                	push   $0x20
  1038ab:	e8 ca fe ff ff       	call   10377a <outb>
  1038b0:	83 c4 08             	add    $0x8,%esp
/u/s/h/shirui/private/cs537/p3a/p3/xv6-sp20/kernel/picirq.c:79
  1038b3:	6a 68                	push   $0x68
  1038b5:	68 a0 00 00 00       	push   $0xa0
  1038ba:	e8 bb fe ff ff       	call   10377a <outb>
  1038bf:	83 c4 08             	add    $0x8,%esp
/u/s/h/shirui/private/cs537/p3a/p3/xv6-sp20/kernel/picirq.c:80
  1038c2:	6a 0a                	push   $0xa
  1038c4:	68 a0 00 00 00       	push   $0xa0
  1038c9:	e8 ac fe ff ff       	call   10377a <outb>
  1038ce:	83 c4 08             	add    $0x8,%esp
/u/s/h/shirui/private/cs537/p3a/p3/xv6-sp20/kernel/picirq.c:82
  1038d1:	0f b7 05 30 b5 10 00 	movzwl 0x10b530,%eax
  1038d8:	66 83 f8 ff          	cmp    $0xffff,%ax
  1038dc:	74 13                	je     1038f1 <picinit+0xe6>
/u/s/h/shirui/private/cs537/p3a/p3/xv6-sp20/kernel/picirq.c:83
  1038de:	0f b7 05 30 b5 10 00 	movzwl 0x10b530,%eax
  1038e5:	0f b7 c0             	movzwl %ax,%eax
  1038e8:	50                   	push   %eax
  1038e9:	e8 ab fe ff ff       	call   103799 <picsetmask>
  1038ee:	83 c4 04             	add    $0x4,%esp
/u/s/h/shirui/private/cs537/p3a/p3/xv6-sp20/kernel/picirq.c:84
  1038f1:	90                   	nop
  1038f2:	c9                   	leave  
  1038f3:	c3                   	ret    

001038f4 <pipealloc>:
pipealloc():
/u/s/h/shirui/private/cs537/p3a/p3/xv6-sp20/kernel/pipe.c:23
  1038f4:	55                   	push   %ebp
  1038f5:	89 e5                	mov    %esp,%ebp
  1038f7:	83 ec 18             	sub    $0x18,%esp
/u/s/h/shirui/private/cs537/p3a/p3/xv6-sp20/kernel/pipe.c:26
  1038fa:	c7 45 f4 00 00 00 00 	movl   $0x0,-0xc(%ebp)
/u/s/h/shirui/private/cs537/p3a/p3/xv6-sp20/kernel/pipe.c:27
  103901:	8b 45 0c             	mov    0xc(%ebp),%eax
  103904:	c7 00 00 00 00 00    	movl   $0x0,(%eax)
  10390a:	8b 45 0c             	mov    0xc(%ebp),%eax
  10390d:	8b 10                	mov    (%eax),%edx
  10390f:	8b 45 08             	mov    0x8(%ebp),%eax
  103912:	89 10                	mov    %edx,(%eax)
/u/s/h/shirui/private/cs537/p3a/p3/xv6-sp20/kernel/pipe.c:28
  103914:	e8 48 d6 ff ff       	call   100f61 <filealloc>
  103919:	89 c2                	mov    %eax,%edx
  10391b:	8b 45 08             	mov    0x8(%ebp),%eax
  10391e:	89 10                	mov    %edx,(%eax)
  103920:	8b 45 08             	mov    0x8(%ebp),%eax
  103923:	8b 00                	mov    (%eax),%eax
  103925:	85 c0                	test   %eax,%eax
  103927:	0f 84 ca 00 00 00    	je     1039f7 <pipealloc+0x103>
/u/s/h/shirui/private/cs537/p3a/p3/xv6-sp20/kernel/pipe.c:28 (discriminator 1)
  10392d:	e8 2f d6 ff ff       	call   100f61 <filealloc>
  103932:	89 c2                	mov    %eax,%edx
  103934:	8b 45 0c             	mov    0xc(%ebp),%eax
  103937:	89 10                	mov    %edx,(%eax)
  103939:	8b 45 0c             	mov    0xc(%ebp),%eax
  10393c:	8b 00                	mov    (%eax),%eax
  10393e:	85 c0                	test   %eax,%eax
  103940:	0f 84 b1 00 00 00    	je     1039f7 <pipealloc+0x103>
/u/s/h/shirui/private/cs537/p3a/p3/xv6-sp20/kernel/pipe.c:30
  103946:	e8 59 f2 ff ff       	call   102ba4 <kalloc>
  10394b:	89 45 f4             	mov    %eax,-0xc(%ebp)
  10394e:	83 7d f4 00          	cmpl   $0x0,-0xc(%ebp)
  103952:	0f 84 a2 00 00 00    	je     1039fa <pipealloc+0x106>
/u/s/h/shirui/private/cs537/p3a/p3/xv6-sp20/kernel/pipe.c:32
  103958:	8b 45 f4             	mov    -0xc(%ebp),%eax
  10395b:	c7 80 3c 02 00 00 01 	movl   $0x1,0x23c(%eax)
  103962:	00 00 00 
/u/s/h/shirui/private/cs537/p3a/p3/xv6-sp20/kernel/pipe.c:33
  103965:	8b 45 f4             	mov    -0xc(%ebp),%eax
  103968:	c7 80 40 02 00 00 01 	movl   $0x1,0x240(%eax)
  10396f:	00 00 00 
/u/s/h/shirui/private/cs537/p3a/p3/xv6-sp20/kernel/pipe.c:34
  103972:	8b 45 f4             	mov    -0xc(%ebp),%eax
  103975:	c7 80 38 02 00 00 00 	movl   $0x0,0x238(%eax)
  10397c:	00 00 00 
/u/s/h/shirui/private/cs537/p3a/p3/xv6-sp20/kernel/pipe.c:35
  10397f:	8b 45 f4             	mov    -0xc(%ebp),%eax
  103982:	c7 80 34 02 00 00 00 	movl   $0x0,0x234(%eax)
  103989:	00 00 00 
/u/s/h/shirui/private/cs537/p3a/p3/xv6-sp20/kernel/pipe.c:36
  10398c:	8b 45 f4             	mov    -0xc(%ebp),%eax
  10398f:	83 ec 08             	sub    $0x8,%esp
  103992:	68 bc 81 10 00       	push   $0x1081bc
  103997:	50                   	push   %eax
  103998:	e8 c1 0e 00 00       	call   10485e <initlock>
  10399d:	83 c4 10             	add    $0x10,%esp
/u/s/h/shirui/private/cs537/p3a/p3/xv6-sp20/kernel/pipe.c:37
  1039a0:	8b 45 08             	mov    0x8(%ebp),%eax
  1039a3:	8b 00                	mov    (%eax),%eax
  1039a5:	c7 00 01 00 00 00    	movl   $0x1,(%eax)
/u/s/h/shirui/private/cs537/p3a/p3/xv6-sp20/kernel/pipe.c:38
  1039ab:	8b 45 08             	mov    0x8(%ebp),%eax
  1039ae:	8b 00                	mov    (%eax),%eax
  1039b0:	c6 40 08 01          	movb   $0x1,0x8(%eax)
/u/s/h/shirui/private/cs537/p3a/p3/xv6-sp20/kernel/pipe.c:39
  1039b4:	8b 45 08             	mov    0x8(%ebp),%eax
  1039b7:	8b 00                	mov    (%eax),%eax
  1039b9:	c6 40 09 00          	movb   $0x0,0x9(%eax)
/u/s/h/shirui/private/cs537/p3a/p3/xv6-sp20/kernel/pipe.c:40
  1039bd:	8b 45 08             	mov    0x8(%ebp),%eax
  1039c0:	8b 00                	mov    (%eax),%eax
  1039c2:	8b 55 f4             	mov    -0xc(%ebp),%edx
  1039c5:	89 50 0c             	mov    %edx,0xc(%eax)
/u/s/h/shirui/private/cs537/p3a/p3/xv6-sp20/kernel/pipe.c:41
  1039c8:	8b 45 0c             	mov    0xc(%ebp),%eax
  1039cb:	8b 00                	mov    (%eax),%eax
  1039cd:	c7 00 01 00 00 00    	movl   $0x1,(%eax)
/u/s/h/shirui/private/cs537/p3a/p3/xv6-sp20/kernel/pipe.c:42
  1039d3:	8b 45 0c             	mov    0xc(%ebp),%eax
  1039d6:	8b 00                	mov    (%eax),%eax
  1039d8:	c6 40 08 00          	movb   $0x0,0x8(%eax)
/u/s/h/shirui/private/cs537/p3a/p3/xv6-sp20/kernel/pipe.c:43
  1039dc:	8b 45 0c             	mov    0xc(%ebp),%eax
  1039df:	8b 00                	mov    (%eax),%eax
  1039e1:	c6 40 09 01          	movb   $0x1,0x9(%eax)
/u/s/h/shirui/private/cs537/p3a/p3/xv6-sp20/kernel/pipe.c:44
  1039e5:	8b 45 0c             	mov    0xc(%ebp),%eax
  1039e8:	8b 00                	mov    (%eax),%eax
  1039ea:	8b 55 f4             	mov    -0xc(%ebp),%edx
  1039ed:	89 50 0c             	mov    %edx,0xc(%eax)
/u/s/h/shirui/private/cs537/p3a/p3/xv6-sp20/kernel/pipe.c:45
  1039f0:	b8 00 00 00 00       	mov    $0x0,%eax
  1039f5:	eb 51                	jmp    103a48 <pipealloc+0x154>
/u/s/h/shirui/private/cs537/p3a/p3/xv6-sp20/kernel/pipe.c:47
  1039f7:	90                   	nop
  1039f8:	eb 01                	jmp    1039fb <pipealloc+0x107>
/u/s/h/shirui/private/cs537/p3a/p3/xv6-sp20/kernel/pipe.c:31
  1039fa:	90                   	nop
/u/s/h/shirui/private/cs537/p3a/p3/xv6-sp20/kernel/pipe.c:48
  1039fb:	83 7d f4 00          	cmpl   $0x0,-0xc(%ebp)
  1039ff:	74 0e                	je     103a0f <pipealloc+0x11b>
/u/s/h/shirui/private/cs537/p3a/p3/xv6-sp20/kernel/pipe.c:49
  103a01:	83 ec 0c             	sub    $0xc,%esp
  103a04:	ff 75 f4             	pushl  -0xc(%ebp)
  103a07:	e8 8e f0 ff ff       	call   102a9a <kfree>
  103a0c:	83 c4 10             	add    $0x10,%esp
/u/s/h/shirui/private/cs537/p3a/p3/xv6-sp20/kernel/pipe.c:50
  103a0f:	8b 45 08             	mov    0x8(%ebp),%eax
  103a12:	8b 00                	mov    (%eax),%eax
  103a14:	85 c0                	test   %eax,%eax
  103a16:	74 11                	je     103a29 <pipealloc+0x135>
/u/s/h/shirui/private/cs537/p3a/p3/xv6-sp20/kernel/pipe.c:51
  103a18:	8b 45 08             	mov    0x8(%ebp),%eax
  103a1b:	8b 00                	mov    (%eax),%eax
  103a1d:	83 ec 0c             	sub    $0xc,%esp
  103a20:	50                   	push   %eax
  103a21:	e8 f9 d5 ff ff       	call   10101f <fileclose>
  103a26:	83 c4 10             	add    $0x10,%esp
/u/s/h/shirui/private/cs537/p3a/p3/xv6-sp20/kernel/pipe.c:52
  103a29:	8b 45 0c             	mov    0xc(%ebp),%eax
  103a2c:	8b 00                	mov    (%eax),%eax
  103a2e:	85 c0                	test   %eax,%eax
  103a30:	74 11                	je     103a43 <pipealloc+0x14f>
/u/s/h/shirui/private/cs537/p3a/p3/xv6-sp20/kernel/pipe.c:53
  103a32:	8b 45 0c             	mov    0xc(%ebp),%eax
  103a35:	8b 00                	mov    (%eax),%eax
  103a37:	83 ec 0c             	sub    $0xc,%esp
  103a3a:	50                   	push   %eax
  103a3b:	e8 df d5 ff ff       	call   10101f <fileclose>
  103a40:	83 c4 10             	add    $0x10,%esp
/u/s/h/shirui/private/cs537/p3a/p3/xv6-sp20/kernel/pipe.c:54
  103a43:	b8 ff ff ff ff       	mov    $0xffffffff,%eax
/u/s/h/shirui/private/cs537/p3a/p3/xv6-sp20/kernel/pipe.c:55
  103a48:	c9                   	leave  
  103a49:	c3                   	ret    

00103a4a <pipeclose>:
pipeclose():
/u/s/h/shirui/private/cs537/p3a/p3/xv6-sp20/kernel/pipe.c:59
  103a4a:	55                   	push   %ebp
  103a4b:	89 e5                	mov    %esp,%ebp
  103a4d:	83 ec 08             	sub    $0x8,%esp
/u/s/h/shirui/private/cs537/p3a/p3/xv6-sp20/kernel/pipe.c:60
  103a50:	8b 45 08             	mov    0x8(%ebp),%eax
  103a53:	83 ec 0c             	sub    $0xc,%esp
  103a56:	50                   	push   %eax
  103a57:	e8 24 0e 00 00       	call   104880 <acquire>
  103a5c:	83 c4 10             	add    $0x10,%esp
/u/s/h/shirui/private/cs537/p3a/p3/xv6-sp20/kernel/pipe.c:61
  103a5f:	83 7d 0c 00          	cmpl   $0x0,0xc(%ebp)
  103a63:	74 23                	je     103a88 <pipeclose+0x3e>
/u/s/h/shirui/private/cs537/p3a/p3/xv6-sp20/kernel/pipe.c:62
  103a65:	8b 45 08             	mov    0x8(%ebp),%eax
  103a68:	c7 80 40 02 00 00 00 	movl   $0x0,0x240(%eax)
  103a6f:	00 00 00 
/u/s/h/shirui/private/cs537/p3a/p3/xv6-sp20/kernel/pipe.c:63
  103a72:	8b 45 08             	mov    0x8(%ebp),%eax
  103a75:	05 34 02 00 00       	add    $0x234,%eax
  103a7a:	83 ec 0c             	sub    $0xc,%esp
  103a7d:	50                   	push   %eax
  103a7e:	e8 ef 0b 00 00       	call   104672 <wakeup>
  103a83:	83 c4 10             	add    $0x10,%esp
  103a86:	eb 21                	jmp    103aa9 <pipeclose+0x5f>
/u/s/h/shirui/private/cs537/p3a/p3/xv6-sp20/kernel/pipe.c:65
  103a88:	8b 45 08             	mov    0x8(%ebp),%eax
  103a8b:	c7 80 3c 02 00 00 00 	movl   $0x0,0x23c(%eax)
  103a92:	00 00 00 
/u/s/h/shirui/private/cs537/p3a/p3/xv6-sp20/kernel/pipe.c:66
  103a95:	8b 45 08             	mov    0x8(%ebp),%eax
  103a98:	05 38 02 00 00       	add    $0x238,%eax
  103a9d:	83 ec 0c             	sub    $0xc,%esp
  103aa0:	50                   	push   %eax
  103aa1:	e8 cc 0b 00 00       	call   104672 <wakeup>
  103aa6:	83 c4 10             	add    $0x10,%esp
/u/s/h/shirui/private/cs537/p3a/p3/xv6-sp20/kernel/pipe.c:68
  103aa9:	8b 45 08             	mov    0x8(%ebp),%eax
  103aac:	8b 80 3c 02 00 00    	mov    0x23c(%eax),%eax
  103ab2:	85 c0                	test   %eax,%eax
  103ab4:	75 2c                	jne    103ae2 <pipeclose+0x98>
/u/s/h/shirui/private/cs537/p3a/p3/xv6-sp20/kernel/pipe.c:68 (discriminator 1)
  103ab6:	8b 45 08             	mov    0x8(%ebp),%eax
  103ab9:	8b 80 40 02 00 00    	mov    0x240(%eax),%eax
  103abf:	85 c0                	test   %eax,%eax
  103ac1:	75 1f                	jne    103ae2 <pipeclose+0x98>
/u/s/h/shirui/private/cs537/p3a/p3/xv6-sp20/kernel/pipe.c:69
  103ac3:	8b 45 08             	mov    0x8(%ebp),%eax
  103ac6:	83 ec 0c             	sub    $0xc,%esp
  103ac9:	50                   	push   %eax
  103aca:	e8 18 0e 00 00       	call   1048e7 <release>
  103acf:	83 c4 10             	add    $0x10,%esp
/u/s/h/shirui/private/cs537/p3a/p3/xv6-sp20/kernel/pipe.c:70
  103ad2:	83 ec 0c             	sub    $0xc,%esp
  103ad5:	ff 75 08             	pushl  0x8(%ebp)
  103ad8:	e8 bd ef ff ff       	call   102a9a <kfree>
  103add:	83 c4 10             	add    $0x10,%esp
  103ae0:	eb 0f                	jmp    103af1 <pipeclose+0xa7>
/u/s/h/shirui/private/cs537/p3a/p3/xv6-sp20/kernel/pipe.c:72
  103ae2:	8b 45 08             	mov    0x8(%ebp),%eax
  103ae5:	83 ec 0c             	sub    $0xc,%esp
  103ae8:	50                   	push   %eax
  103ae9:	e8 f9 0d 00 00       	call   1048e7 <release>
  103aee:	83 c4 10             	add    $0x10,%esp
/u/s/h/shirui/private/cs537/p3a/p3/xv6-sp20/kernel/pipe.c:73
  103af1:	90                   	nop
  103af2:	c9                   	leave  
  103af3:	c3                   	ret    

00103af4 <pipewrite>:
pipewrite():
/u/s/h/shirui/private/cs537/p3a/p3/xv6-sp20/kernel/pipe.c:77
  103af4:	55                   	push   %ebp
  103af5:	89 e5                	mov    %esp,%ebp
  103af7:	53                   	push   %ebx
  103af8:	83 ec 14             	sub    $0x14,%esp
/u/s/h/shirui/private/cs537/p3a/p3/xv6-sp20/kernel/pipe.c:80
  103afb:	8b 45 08             	mov    0x8(%ebp),%eax
  103afe:	83 ec 0c             	sub    $0xc,%esp
  103b01:	50                   	push   %eax
  103b02:	e8 79 0d 00 00       	call   104880 <acquire>
  103b07:	83 c4 10             	add    $0x10,%esp
/u/s/h/shirui/private/cs537/p3a/p3/xv6-sp20/kernel/pipe.c:81
  103b0a:	c7 45 f4 00 00 00 00 	movl   $0x0,-0xc(%ebp)
  103b11:	e9 ae 00 00 00       	jmp    103bc4 <pipewrite+0xd0>
/u/s/h/shirui/private/cs537/p3a/p3/xv6-sp20/kernel/pipe.c:83
  103b16:	8b 45 08             	mov    0x8(%ebp),%eax
  103b19:	8b 80 3c 02 00 00    	mov    0x23c(%eax),%eax
  103b1f:	85 c0                	test   %eax,%eax
  103b21:	74 0d                	je     103b30 <pipewrite+0x3c>
/u/s/h/shirui/private/cs537/p3a/p3/xv6-sp20/kernel/pipe.c:83 (discriminator 1)
  103b23:	65 a1 04 00 00 00    	mov    %gs:0x4,%eax
  103b29:	8b 40 24             	mov    0x24(%eax),%eax
  103b2c:	85 c0                	test   %eax,%eax
  103b2e:	74 19                	je     103b49 <pipewrite+0x55>
/u/s/h/shirui/private/cs537/p3a/p3/xv6-sp20/kernel/pipe.c:84
  103b30:	8b 45 08             	mov    0x8(%ebp),%eax
  103b33:	83 ec 0c             	sub    $0xc,%esp
  103b36:	50                   	push   %eax
  103b37:	e8 ab 0d 00 00       	call   1048e7 <release>
  103b3c:	83 c4 10             	add    $0x10,%esp
/u/s/h/shirui/private/cs537/p3a/p3/xv6-sp20/kernel/pipe.c:85
  103b3f:	b8 ff ff ff ff       	mov    $0xffffffff,%eax
  103b44:	e9 a9 00 00 00       	jmp    103bf2 <pipewrite+0xfe>
/u/s/h/shirui/private/cs537/p3a/p3/xv6-sp20/kernel/pipe.c:87
  103b49:	8b 45 08             	mov    0x8(%ebp),%eax
  103b4c:	05 34 02 00 00       	add    $0x234,%eax
  103b51:	83 ec 0c             	sub    $0xc,%esp
  103b54:	50                   	push   %eax
  103b55:	e8 18 0b 00 00       	call   104672 <wakeup>
  103b5a:	83 c4 10             	add    $0x10,%esp
/u/s/h/shirui/private/cs537/p3a/p3/xv6-sp20/kernel/pipe.c:88
  103b5d:	8b 45 08             	mov    0x8(%ebp),%eax
  103b60:	8b 55 08             	mov    0x8(%ebp),%edx
  103b63:	81 c2 38 02 00 00    	add    $0x238,%edx
  103b69:	83 ec 08             	sub    $0x8,%esp
  103b6c:	50                   	push   %eax
  103b6d:	52                   	push   %edx
  103b6e:	e8 14 0a 00 00       	call   104587 <sleep>
  103b73:	83 c4 10             	add    $0x10,%esp
/u/s/h/shirui/private/cs537/p3a/p3/xv6-sp20/kernel/pipe.c:82
  103b76:	8b 45 08             	mov    0x8(%ebp),%eax
  103b79:	8b 90 38 02 00 00    	mov    0x238(%eax),%edx
  103b7f:	8b 45 08             	mov    0x8(%ebp),%eax
  103b82:	8b 80 34 02 00 00    	mov    0x234(%eax),%eax
  103b88:	05 00 02 00 00       	add    $0x200,%eax
  103b8d:	39 c2                	cmp    %eax,%edx
  103b8f:	74 85                	je     103b16 <pipewrite+0x22>
/u/s/h/shirui/private/cs537/p3a/p3/xv6-sp20/kernel/pipe.c:90 (discriminator 2)
  103b91:	8b 55 f4             	mov    -0xc(%ebp),%edx
  103b94:	8b 45 0c             	mov    0xc(%ebp),%eax
  103b97:	8d 1c 02             	lea    (%edx,%eax,1),%ebx
  103b9a:	8b 45 08             	mov    0x8(%ebp),%eax
  103b9d:	8b 80 38 02 00 00    	mov    0x238(%eax),%eax
  103ba3:	8d 48 01             	lea    0x1(%eax),%ecx
  103ba6:	8b 55 08             	mov    0x8(%ebp),%edx
  103ba9:	89 8a 38 02 00 00    	mov    %ecx,0x238(%edx)
  103baf:	25 ff 01 00 00       	and    $0x1ff,%eax
  103bb4:	89 c1                	mov    %eax,%ecx
  103bb6:	0f b6 13             	movzbl (%ebx),%edx
  103bb9:	8b 45 08             	mov    0x8(%ebp),%eax
  103bbc:	88 54 08 34          	mov    %dl,0x34(%eax,%ecx,1)
/u/s/h/shirui/private/cs537/p3a/p3/xv6-sp20/kernel/pipe.c:81 (discriminator 2)
  103bc0:	83 45 f4 01          	addl   $0x1,-0xc(%ebp)
/u/s/h/shirui/private/cs537/p3a/p3/xv6-sp20/kernel/pipe.c:81 (discriminator 1)
  103bc4:	8b 45 f4             	mov    -0xc(%ebp),%eax
  103bc7:	3b 45 10             	cmp    0x10(%ebp),%eax
  103bca:	7c aa                	jl     103b76 <pipewrite+0x82>
/u/s/h/shirui/private/cs537/p3a/p3/xv6-sp20/kernel/pipe.c:92
  103bcc:	8b 45 08             	mov    0x8(%ebp),%eax
  103bcf:	05 34 02 00 00       	add    $0x234,%eax
  103bd4:	83 ec 0c             	sub    $0xc,%esp
  103bd7:	50                   	push   %eax
  103bd8:	e8 95 0a 00 00       	call   104672 <wakeup>
  103bdd:	83 c4 10             	add    $0x10,%esp
/u/s/h/shirui/private/cs537/p3a/p3/xv6-sp20/kernel/pipe.c:93
  103be0:	8b 45 08             	mov    0x8(%ebp),%eax
  103be3:	83 ec 0c             	sub    $0xc,%esp
  103be6:	50                   	push   %eax
  103be7:	e8 fb 0c 00 00       	call   1048e7 <release>
  103bec:	83 c4 10             	add    $0x10,%esp
/u/s/h/shirui/private/cs537/p3a/p3/xv6-sp20/kernel/pipe.c:94
  103bef:	8b 45 10             	mov    0x10(%ebp),%eax
/u/s/h/shirui/private/cs537/p3a/p3/xv6-sp20/kernel/pipe.c:95
  103bf2:	8b 5d fc             	mov    -0x4(%ebp),%ebx
  103bf5:	c9                   	leave  
  103bf6:	c3                   	ret    

00103bf7 <piperead>:
piperead():
/u/s/h/shirui/private/cs537/p3a/p3/xv6-sp20/kernel/pipe.c:99
  103bf7:	55                   	push   %ebp
  103bf8:	89 e5                	mov    %esp,%ebp
  103bfa:	83 ec 18             	sub    $0x18,%esp
/u/s/h/shirui/private/cs537/p3a/p3/xv6-sp20/kernel/pipe.c:102
  103bfd:	8b 45 08             	mov    0x8(%ebp),%eax
  103c00:	83 ec 0c             	sub    $0xc,%esp
  103c03:	50                   	push   %eax
  103c04:	e8 77 0c 00 00       	call   104880 <acquire>
  103c09:	83 c4 10             	add    $0x10,%esp
/u/s/h/shirui/private/cs537/p3a/p3/xv6-sp20/kernel/pipe.c:103
  103c0c:	eb 3f                	jmp    103c4d <piperead+0x56>
/u/s/h/shirui/private/cs537/p3a/p3/xv6-sp20/kernel/pipe.c:104
  103c0e:	65 a1 04 00 00 00    	mov    %gs:0x4,%eax
  103c14:	8b 40 24             	mov    0x24(%eax),%eax
  103c17:	85 c0                	test   %eax,%eax
  103c19:	74 19                	je     103c34 <piperead+0x3d>
/u/s/h/shirui/private/cs537/p3a/p3/xv6-sp20/kernel/pipe.c:105
  103c1b:	8b 45 08             	mov    0x8(%ebp),%eax
  103c1e:	83 ec 0c             	sub    $0xc,%esp
  103c21:	50                   	push   %eax
  103c22:	e8 c0 0c 00 00       	call   1048e7 <release>
  103c27:	83 c4 10             	add    $0x10,%esp
/u/s/h/shirui/private/cs537/p3a/p3/xv6-sp20/kernel/pipe.c:106
  103c2a:	b8 ff ff ff ff       	mov    $0xffffffff,%eax
  103c2f:	e9 be 00 00 00       	jmp    103cf2 <piperead+0xfb>
/u/s/h/shirui/private/cs537/p3a/p3/xv6-sp20/kernel/pipe.c:108
  103c34:	8b 45 08             	mov    0x8(%ebp),%eax
  103c37:	8b 55 08             	mov    0x8(%ebp),%edx
  103c3a:	81 c2 34 02 00 00    	add    $0x234,%edx
  103c40:	83 ec 08             	sub    $0x8,%esp
  103c43:	50                   	push   %eax
  103c44:	52                   	push   %edx
  103c45:	e8 3d 09 00 00       	call   104587 <sleep>
  103c4a:	83 c4 10             	add    $0x10,%esp
/u/s/h/shirui/private/cs537/p3a/p3/xv6-sp20/kernel/pipe.c:103
  103c4d:	8b 45 08             	mov    0x8(%ebp),%eax
  103c50:	8b 90 34 02 00 00    	mov    0x234(%eax),%edx
  103c56:	8b 45 08             	mov    0x8(%ebp),%eax
  103c59:	8b 80 38 02 00 00    	mov    0x238(%eax),%eax
  103c5f:	39 c2                	cmp    %eax,%edx
  103c61:	75 0d                	jne    103c70 <piperead+0x79>
/u/s/h/shirui/private/cs537/p3a/p3/xv6-sp20/kernel/pipe.c:103 (discriminator 1)
  103c63:	8b 45 08             	mov    0x8(%ebp),%eax
  103c66:	8b 80 40 02 00 00    	mov    0x240(%eax),%eax
  103c6c:	85 c0                	test   %eax,%eax
  103c6e:	75 9e                	jne    103c0e <piperead+0x17>
/u/s/h/shirui/private/cs537/p3a/p3/xv6-sp20/kernel/pipe.c:110
  103c70:	c7 45 f4 00 00 00 00 	movl   $0x0,-0xc(%ebp)
  103c77:	eb 48                	jmp    103cc1 <piperead+0xca>
/u/s/h/shirui/private/cs537/p3a/p3/xv6-sp20/kernel/pipe.c:111
  103c79:	8b 45 08             	mov    0x8(%ebp),%eax
  103c7c:	8b 90 34 02 00 00    	mov    0x234(%eax),%edx
  103c82:	8b 45 08             	mov    0x8(%ebp),%eax
  103c85:	8b 80 38 02 00 00    	mov    0x238(%eax),%eax
  103c8b:	39 c2                	cmp    %eax,%edx
  103c8d:	74 3c                	je     103ccb <piperead+0xd4>
/u/s/h/shirui/private/cs537/p3a/p3/xv6-sp20/kernel/pipe.c:113 (discriminator 2)
  103c8f:	8b 45 08             	mov    0x8(%ebp),%eax
  103c92:	8b 80 34 02 00 00    	mov    0x234(%eax),%eax
  103c98:	8d 48 01             	lea    0x1(%eax),%ecx
  103c9b:	8b 55 08             	mov    0x8(%ebp),%edx
  103c9e:	89 8a 34 02 00 00    	mov    %ecx,0x234(%edx)
  103ca4:	25 ff 01 00 00       	and    $0x1ff,%eax
  103ca9:	89 c1                	mov    %eax,%ecx
  103cab:	8b 55 f4             	mov    -0xc(%ebp),%edx
  103cae:	8b 45 0c             	mov    0xc(%ebp),%eax
  103cb1:	01 c2                	add    %eax,%edx
  103cb3:	8b 45 08             	mov    0x8(%ebp),%eax
  103cb6:	0f b6 44 08 34       	movzbl 0x34(%eax,%ecx,1),%eax
  103cbb:	88 02                	mov    %al,(%edx)
/u/s/h/shirui/private/cs537/p3a/p3/xv6-sp20/kernel/pipe.c:110 (discriminator 2)
  103cbd:	83 45 f4 01          	addl   $0x1,-0xc(%ebp)
/u/s/h/shirui/private/cs537/p3a/p3/xv6-sp20/kernel/pipe.c:110 (discriminator 1)
  103cc1:	8b 45 f4             	mov    -0xc(%ebp),%eax
  103cc4:	3b 45 10             	cmp    0x10(%ebp),%eax
  103cc7:	7c b0                	jl     103c79 <piperead+0x82>
  103cc9:	eb 01                	jmp    103ccc <piperead+0xd5>
/u/s/h/shirui/private/cs537/p3a/p3/xv6-sp20/kernel/pipe.c:112
  103ccb:	90                   	nop
/u/s/h/shirui/private/cs537/p3a/p3/xv6-sp20/kernel/pipe.c:115
  103ccc:	8b 45 08             	mov    0x8(%ebp),%eax
  103ccf:	05 38 02 00 00       	add    $0x238,%eax
  103cd4:	83 ec 0c             	sub    $0xc,%esp
  103cd7:	50                   	push   %eax
  103cd8:	e8 95 09 00 00       	call   104672 <wakeup>
  103cdd:	83 c4 10             	add    $0x10,%esp
/u/s/h/shirui/private/cs537/p3a/p3/xv6-sp20/kernel/pipe.c:116
  103ce0:	8b 45 08             	mov    0x8(%ebp),%eax
  103ce3:	83 ec 0c             	sub    $0xc,%esp
  103ce6:	50                   	push   %eax
  103ce7:	e8 fb 0b 00 00       	call   1048e7 <release>
  103cec:	83 c4 10             	add    $0x10,%esp
/u/s/h/shirui/private/cs537/p3a/p3/xv6-sp20/kernel/pipe.c:117
  103cef:	8b 45 f4             	mov    -0xc(%ebp),%eax
/u/s/h/shirui/private/cs537/p3a/p3/xv6-sp20/kernel/pipe.c:118
  103cf2:	c9                   	leave  
  103cf3:	c3                   	ret    

00103cf4 <readeflags>:
readeflags():
/u/s/h/shirui/private/cs537/p3a/p3/xv6-sp20/include/x86.h:89
  103cf4:	55                   	push   %ebp
  103cf5:	89 e5                	mov    %esp,%ebp
  103cf7:	83 ec 10             	sub    $0x10,%esp
/u/s/h/shirui/private/cs537/p3a/p3/xv6-sp20/include/x86.h:91
  103cfa:	9c                   	pushf  
  103cfb:	58                   	pop    %eax
  103cfc:	89 45 fc             	mov    %eax,-0x4(%ebp)
/u/s/h/shirui/private/cs537/p3a/p3/xv6-sp20/include/x86.h:92
  103cff:	8b 45 fc             	mov    -0x4(%ebp),%eax
/u/s/h/shirui/private/cs537/p3a/p3/xv6-sp20/include/x86.h:93
  103d02:	c9                   	leave  
  103d03:	c3                   	ret    

00103d04 <sti>:
sti():
/u/s/h/shirui/private/cs537/p3a/p3/xv6-sp20/include/x86.h:125
  103d04:	55                   	push   %ebp
  103d05:	89 e5                	mov    %esp,%ebp
/u/s/h/shirui/private/cs537/p3a/p3/xv6-sp20/include/x86.h:126
  103d07:	fb                   	sti    
/u/s/h/shirui/private/cs537/p3a/p3/xv6-sp20/include/x86.h:127
  103d08:	90                   	nop
  103d09:	5d                   	pop    %ebp
  103d0a:	c3                   	ret    

00103d0b <pinit>:
pinit():
/u/s/h/shirui/private/cs537/p3a/p3/xv6-sp20/kernel/proc.c:24
  103d0b:	55                   	push   %ebp
  103d0c:	89 e5                	mov    %esp,%ebp
  103d0e:	83 ec 08             	sub    $0x8,%esp
/u/s/h/shirui/private/cs537/p3a/p3/xv6-sp20/kernel/proc.c:25
  103d11:	83 ec 08             	sub    $0x8,%esp
  103d14:	68 c1 81 10 00       	push   $0x1081c1
  103d19:	68 e0 03 11 00       	push   $0x1103e0
  103d1e:	e8 3b 0b 00 00       	call   10485e <initlock>
  103d23:	83 c4 10             	add    $0x10,%esp
/u/s/h/shirui/private/cs537/p3a/p3/xv6-sp20/kernel/proc.c:26
  103d26:	90                   	nop
  103d27:	c9                   	leave  
  103d28:	c3                   	ret    

00103d29 <allocproc>:
allocproc():
/u/s/h/shirui/private/cs537/p3a/p3/xv6-sp20/kernel/proc.c:34
  103d29:	55                   	push   %ebp
  103d2a:	89 e5                	mov    %esp,%ebp
  103d2c:	83 ec 18             	sub    $0x18,%esp
/u/s/h/shirui/private/cs537/p3a/p3/xv6-sp20/kernel/proc.c:38
  103d2f:	83 ec 0c             	sub    $0xc,%esp
  103d32:	68 e0 03 11 00       	push   $0x1103e0
  103d37:	e8 44 0b 00 00       	call   104880 <acquire>
  103d3c:	83 c4 10             	add    $0x10,%esp
/u/s/h/shirui/private/cs537/p3a/p3/xv6-sp20/kernel/proc.c:39
  103d3f:	c7 45 f4 14 04 11 00 	movl   $0x110414,-0xc(%ebp)
  103d46:	eb 0e                	jmp    103d56 <allocproc+0x2d>
/u/s/h/shirui/private/cs537/p3a/p3/xv6-sp20/kernel/proc.c:40
  103d48:	8b 45 f4             	mov    -0xc(%ebp),%eax
  103d4b:	8b 40 0c             	mov    0xc(%eax),%eax
  103d4e:	85 c0                	test   %eax,%eax
  103d50:	74 27                	je     103d79 <allocproc+0x50>
/u/s/h/shirui/private/cs537/p3a/p3/xv6-sp20/kernel/proc.c:39 (discriminator 2)
  103d52:	83 45 f4 7c          	addl   $0x7c,-0xc(%ebp)
/u/s/h/shirui/private/cs537/p3a/p3/xv6-sp20/kernel/proc.c:39 (discriminator 1)
  103d56:	81 7d f4 14 23 11 00 	cmpl   $0x112314,-0xc(%ebp)
  103d5d:	72 e9                	jb     103d48 <allocproc+0x1f>
/u/s/h/shirui/private/cs537/p3a/p3/xv6-sp20/kernel/proc.c:42
  103d5f:	83 ec 0c             	sub    $0xc,%esp
  103d62:	68 e0 03 11 00       	push   $0x1103e0
  103d67:	e8 7b 0b 00 00       	call   1048e7 <release>
  103d6c:	83 c4 10             	add    $0x10,%esp
/u/s/h/shirui/private/cs537/p3a/p3/xv6-sp20/kernel/proc.c:43
  103d6f:	b8 00 00 00 00       	mov    $0x0,%eax
  103d74:	e9 b4 00 00 00       	jmp    103e2d <allocproc+0x104>
/u/s/h/shirui/private/cs537/p3a/p3/xv6-sp20/kernel/proc.c:41
  103d79:	90                   	nop
/u/s/h/shirui/private/cs537/p3a/p3/xv6-sp20/kernel/proc.c:46
  103d7a:	8b 45 f4             	mov    -0xc(%ebp),%eax
  103d7d:	c7 40 0c 01 00 00 00 	movl   $0x1,0xc(%eax)
/u/s/h/shirui/private/cs537/p3a/p3/xv6-sp20/kernel/proc.c:47
  103d84:	a1 34 b5 10 00       	mov    0x10b534,%eax
  103d89:	8d 50 01             	lea    0x1(%eax),%edx
  103d8c:	89 15 34 b5 10 00    	mov    %edx,0x10b534
  103d92:	8b 55 f4             	mov    -0xc(%ebp),%edx
  103d95:	89 42 10             	mov    %eax,0x10(%edx)
/u/s/h/shirui/private/cs537/p3a/p3/xv6-sp20/kernel/proc.c:48
  103d98:	83 ec 0c             	sub    $0xc,%esp
  103d9b:	68 e0 03 11 00       	push   $0x1103e0
  103da0:	e8 42 0b 00 00       	call   1048e7 <release>
  103da5:	83 c4 10             	add    $0x10,%esp
/u/s/h/shirui/private/cs537/p3a/p3/xv6-sp20/kernel/proc.c:51
  103da8:	e8 f7 ed ff ff       	call   102ba4 <kalloc>
  103dad:	89 c2                	mov    %eax,%edx
  103daf:	8b 45 f4             	mov    -0xc(%ebp),%eax
  103db2:	89 50 08             	mov    %edx,0x8(%eax)
  103db5:	8b 45 f4             	mov    -0xc(%ebp),%eax
  103db8:	8b 40 08             	mov    0x8(%eax),%eax
  103dbb:	85 c0                	test   %eax,%eax
  103dbd:	75 11                	jne    103dd0 <allocproc+0xa7>
/u/s/h/shirui/private/cs537/p3a/p3/xv6-sp20/kernel/proc.c:52
  103dbf:	8b 45 f4             	mov    -0xc(%ebp),%eax
  103dc2:	c7 40 0c 00 00 00 00 	movl   $0x0,0xc(%eax)
/u/s/h/shirui/private/cs537/p3a/p3/xv6-sp20/kernel/proc.c:53
  103dc9:	b8 00 00 00 00       	mov    $0x0,%eax
  103dce:	eb 5d                	jmp    103e2d <allocproc+0x104>
/u/s/h/shirui/private/cs537/p3a/p3/xv6-sp20/kernel/proc.c:55
  103dd0:	8b 45 f4             	mov    -0xc(%ebp),%eax
  103dd3:	8b 40 08             	mov    0x8(%eax),%eax
  103dd6:	05 00 10 00 00       	add    $0x1000,%eax
  103ddb:	89 45 f0             	mov    %eax,-0x10(%ebp)
/u/s/h/shirui/private/cs537/p3a/p3/xv6-sp20/kernel/proc.c:58
  103dde:	83 6d f0 4c          	subl   $0x4c,-0x10(%ebp)
/u/s/h/shirui/private/cs537/p3a/p3/xv6-sp20/kernel/proc.c:59
  103de2:	8b 45 f4             	mov    -0xc(%ebp),%eax
  103de5:	8b 55 f0             	mov    -0x10(%ebp),%edx
  103de8:	89 50 18             	mov    %edx,0x18(%eax)
/u/s/h/shirui/private/cs537/p3a/p3/xv6-sp20/kernel/proc.c:63
  103deb:	83 6d f0 04          	subl   $0x4,-0x10(%ebp)
/u/s/h/shirui/private/cs537/p3a/p3/xv6-sp20/kernel/proc.c:64
  103def:	ba f1 5e 10 00       	mov    $0x105ef1,%edx
  103df4:	8b 45 f0             	mov    -0x10(%ebp),%eax
  103df7:	89 10                	mov    %edx,(%eax)
/u/s/h/shirui/private/cs537/p3a/p3/xv6-sp20/kernel/proc.c:66
  103df9:	83 6d f0 14          	subl   $0x14,-0x10(%ebp)
/u/s/h/shirui/private/cs537/p3a/p3/xv6-sp20/kernel/proc.c:67
  103dfd:	8b 45 f4             	mov    -0xc(%ebp),%eax
  103e00:	8b 55 f0             	mov    -0x10(%ebp),%edx
  103e03:	89 50 1c             	mov    %edx,0x1c(%eax)
/u/s/h/shirui/private/cs537/p3a/p3/xv6-sp20/kernel/proc.c:68
  103e06:	8b 45 f4             	mov    -0xc(%ebp),%eax
  103e09:	8b 40 1c             	mov    0x1c(%eax),%eax
  103e0c:	83 ec 04             	sub    $0x4,%esp
  103e0f:	6a 14                	push   $0x14
  103e11:	6a 00                	push   $0x0
  103e13:	50                   	push   %eax
  103e14:	e8 a4 0c 00 00       	call   104abd <memset>
  103e19:	83 c4 10             	add    $0x10,%esp
/u/s/h/shirui/private/cs537/p3a/p3/xv6-sp20/kernel/proc.c:69
  103e1c:	8b 45 f4             	mov    -0xc(%ebp),%eax
  103e1f:	8b 40 1c             	mov    0x1c(%eax),%eax
  103e22:	ba 6e 45 10 00       	mov    $0x10456e,%edx
  103e27:	89 50 10             	mov    %edx,0x10(%eax)
/u/s/h/shirui/private/cs537/p3a/p3/xv6-sp20/kernel/proc.c:71
  103e2a:	8b 45 f4             	mov    -0xc(%ebp),%eax
/u/s/h/shirui/private/cs537/p3a/p3/xv6-sp20/kernel/proc.c:72
  103e2d:	c9                   	leave  
  103e2e:	c3                   	ret    

00103e2f <userinit>:
userinit():
/u/s/h/shirui/private/cs537/p3a/p3/xv6-sp20/kernel/proc.c:77
  103e2f:	55                   	push   %ebp
  103e30:	89 e5                	mov    %esp,%ebp
  103e32:	83 ec 18             	sub    $0x18,%esp
/u/s/h/shirui/private/cs537/p3a/p3/xv6-sp20/kernel/proc.c:81
  103e35:	e8 ef fe ff ff       	call   103d29 <allocproc>
  103e3a:	89 45 f4             	mov    %eax,-0xc(%ebp)
/u/s/h/shirui/private/cs537/p3a/p3/xv6-sp20/kernel/proc.c:82
  103e3d:	83 ec 0c             	sub    $0xc,%esp
  103e40:	68 e0 03 11 00       	push   $0x1103e0
  103e45:	e8 36 0a 00 00       	call   104880 <acquire>
  103e4a:	83 c4 10             	add    $0x10,%esp
/u/s/h/shirui/private/cs537/p3a/p3/xv6-sp20/kernel/proc.c:83
  103e4d:	8b 45 f4             	mov    -0xc(%ebp),%eax
  103e50:	a3 68 bb 10 00       	mov    %eax,0x10bb68
/u/s/h/shirui/private/cs537/p3a/p3/xv6-sp20/kernel/proc.c:84
  103e55:	e8 7e 39 00 00       	call   1077d8 <setupkvm>
  103e5a:	89 c2                	mov    %eax,%edx
  103e5c:	8b 45 f4             	mov    -0xc(%ebp),%eax
  103e5f:	89 50 04             	mov    %edx,0x4(%eax)
  103e62:	8b 45 f4             	mov    -0xc(%ebp),%eax
  103e65:	8b 40 04             	mov    0x4(%eax),%eax
  103e68:	85 c0                	test   %eax,%eax
  103e6a:	75 0d                	jne    103e79 <userinit+0x4a>
/u/s/h/shirui/private/cs537/p3a/p3/xv6-sp20/kernel/proc.c:85
  103e6c:	83 ec 0c             	sub    $0xc,%esp
  103e6f:	68 c8 81 10 00       	push   $0x1081c8
  103e74:	e8 ff c6 ff ff       	call   100578 <panic>
/u/s/h/shirui/private/cs537/p3a/p3/xv6-sp20/kernel/proc.c:86
  103e79:	ba 2c 00 00 00       	mov    $0x2c,%edx
  103e7e:	8b 45 f4             	mov    -0xc(%ebp),%eax
  103e81:	8b 40 04             	mov    0x4(%eax),%eax
  103e84:	83 ec 04             	sub    $0x4,%esp
  103e87:	52                   	push   %edx
  103e88:	68 10 ba 10 00       	push   $0x10ba10
  103e8d:	50                   	push   %eax
  103e8e:	e8 84 3b 00 00       	call   107a17 <inituvm>
  103e93:	83 c4 10             	add    $0x10,%esp
/u/s/h/shirui/private/cs537/p3a/p3/xv6-sp20/kernel/proc.c:87
  103e96:	8b 45 f4             	mov    -0xc(%ebp),%eax
  103e99:	c7 00 00 10 00 00    	movl   $0x1000,(%eax)
/u/s/h/shirui/private/cs537/p3a/p3/xv6-sp20/kernel/proc.c:88
  103e9f:	8b 45 f4             	mov    -0xc(%ebp),%eax
  103ea2:	8b 40 18             	mov    0x18(%eax),%eax
  103ea5:	83 ec 04             	sub    $0x4,%esp
  103ea8:	6a 4c                	push   $0x4c
  103eaa:	6a 00                	push   $0x0
  103eac:	50                   	push   %eax
  103ead:	e8 0b 0c 00 00       	call   104abd <memset>
  103eb2:	83 c4 10             	add    $0x10,%esp
/u/s/h/shirui/private/cs537/p3a/p3/xv6-sp20/kernel/proc.c:89
  103eb5:	8b 45 f4             	mov    -0xc(%ebp),%eax
  103eb8:	8b 40 18             	mov    0x18(%eax),%eax
  103ebb:	66 c7 40 3c 23 00    	movw   $0x23,0x3c(%eax)
/u/s/h/shirui/private/cs537/p3a/p3/xv6-sp20/kernel/proc.c:90
  103ec1:	8b 45 f4             	mov    -0xc(%ebp),%eax
  103ec4:	8b 40 18             	mov    0x18(%eax),%eax
  103ec7:	66 c7 40 2c 2b 00    	movw   $0x2b,0x2c(%eax)
/u/s/h/shirui/private/cs537/p3a/p3/xv6-sp20/kernel/proc.c:91
  103ecd:	8b 45 f4             	mov    -0xc(%ebp),%eax
  103ed0:	8b 50 18             	mov    0x18(%eax),%edx
  103ed3:	8b 45 f4             	mov    -0xc(%ebp),%eax
  103ed6:	8b 40 18             	mov    0x18(%eax),%eax
  103ed9:	0f b7 52 2c          	movzwl 0x2c(%edx),%edx
  103edd:	66 89 50 28          	mov    %dx,0x28(%eax)
/u/s/h/shirui/private/cs537/p3a/p3/xv6-sp20/kernel/proc.c:92
  103ee1:	8b 45 f4             	mov    -0xc(%ebp),%eax
  103ee4:	8b 50 18             	mov    0x18(%eax),%edx
  103ee7:	8b 45 f4             	mov    -0xc(%ebp),%eax
  103eea:	8b 40 18             	mov    0x18(%eax),%eax
  103eed:	0f b7 52 2c          	movzwl 0x2c(%edx),%edx
  103ef1:	66 89 50 48          	mov    %dx,0x48(%eax)
/u/s/h/shirui/private/cs537/p3a/p3/xv6-sp20/kernel/proc.c:93
  103ef5:	8b 45 f4             	mov    -0xc(%ebp),%eax
  103ef8:	8b 40 18             	mov    0x18(%eax),%eax
  103efb:	c7 40 40 00 02 00 00 	movl   $0x200,0x40(%eax)
/u/s/h/shirui/private/cs537/p3a/p3/xv6-sp20/kernel/proc.c:94
  103f02:	8b 45 f4             	mov    -0xc(%ebp),%eax
  103f05:	8b 40 18             	mov    0x18(%eax),%eax
  103f08:	c7 40 44 00 10 00 00 	movl   $0x1000,0x44(%eax)
/u/s/h/shirui/private/cs537/p3a/p3/xv6-sp20/kernel/proc.c:95
  103f0f:	8b 45 f4             	mov    -0xc(%ebp),%eax
  103f12:	8b 40 18             	mov    0x18(%eax),%eax
  103f15:	c7 40 38 00 00 00 00 	movl   $0x0,0x38(%eax)
/u/s/h/shirui/private/cs537/p3a/p3/xv6-sp20/kernel/proc.c:97
  103f1c:	8b 45 f4             	mov    -0xc(%ebp),%eax
  103f1f:	83 c0 6c             	add    $0x6c,%eax
  103f22:	83 ec 04             	sub    $0x4,%esp
  103f25:	6a 10                	push   $0x10
  103f27:	68 e1 81 10 00       	push   $0x1081e1
  103f2c:	50                   	push   %eax
  103f2d:	e8 41 0d 00 00       	call   104c73 <safestrcpy>
  103f32:	83 c4 10             	add    $0x10,%esp
/u/s/h/shirui/private/cs537/p3a/p3/xv6-sp20/kernel/proc.c:98
  103f35:	83 ec 0c             	sub    $0xc,%esp
  103f38:	68 ea 81 10 00       	push   $0x1081ea
  103f3d:	e8 23 e5 ff ff       	call   102465 <namei>
  103f42:	83 c4 10             	add    $0x10,%esp
  103f45:	89 c2                	mov    %eax,%edx
  103f47:	8b 45 f4             	mov    -0xc(%ebp),%eax
  103f4a:	89 50 68             	mov    %edx,0x68(%eax)
/u/s/h/shirui/private/cs537/p3a/p3/xv6-sp20/kernel/proc.c:100
  103f4d:	8b 45 f4             	mov    -0xc(%ebp),%eax
  103f50:	c7 40 0c 03 00 00 00 	movl   $0x3,0xc(%eax)
/u/s/h/shirui/private/cs537/p3a/p3/xv6-sp20/kernel/proc.c:101
  103f57:	83 ec 0c             	sub    $0xc,%esp
  103f5a:	68 e0 03 11 00       	push   $0x1103e0
  103f5f:	e8 83 09 00 00       	call   1048e7 <release>
  103f64:	83 c4 10             	add    $0x10,%esp
/u/s/h/shirui/private/cs537/p3a/p3/xv6-sp20/kernel/proc.c:102
  103f67:	90                   	nop
  103f68:	c9                   	leave  
  103f69:	c3                   	ret    

00103f6a <growproc>:
growproc():
/u/s/h/shirui/private/cs537/p3a/p3/xv6-sp20/kernel/proc.c:108
  103f6a:	55                   	push   %ebp
  103f6b:	89 e5                	mov    %esp,%ebp
  103f6d:	83 ec 18             	sub    $0x18,%esp
/u/s/h/shirui/private/cs537/p3a/p3/xv6-sp20/kernel/proc.c:111
  103f70:	65 a1 04 00 00 00    	mov    %gs:0x4,%eax
  103f76:	8b 00                	mov    (%eax),%eax
  103f78:	89 45 f4             	mov    %eax,-0xc(%ebp)
/u/s/h/shirui/private/cs537/p3a/p3/xv6-sp20/kernel/proc.c:112
  103f7b:	83 7d 08 00          	cmpl   $0x0,0x8(%ebp)
  103f7f:	7e 31                	jle    103fb2 <growproc+0x48>
/u/s/h/shirui/private/cs537/p3a/p3/xv6-sp20/kernel/proc.c:113
  103f81:	8b 55 08             	mov    0x8(%ebp),%edx
  103f84:	8b 45 f4             	mov    -0xc(%ebp),%eax
  103f87:	01 c2                	add    %eax,%edx
  103f89:	65 a1 04 00 00 00    	mov    %gs:0x4,%eax
  103f8f:	8b 40 04             	mov    0x4(%eax),%eax
  103f92:	83 ec 04             	sub    $0x4,%esp
  103f95:	52                   	push   %edx
  103f96:	ff 75 f4             	pushl  -0xc(%ebp)
  103f99:	50                   	push   %eax
  103f9a:	e8 aa 3b 00 00       	call   107b49 <allocuvm>
  103f9f:	83 c4 10             	add    $0x10,%esp
  103fa2:	89 45 f4             	mov    %eax,-0xc(%ebp)
  103fa5:	83 7d f4 00          	cmpl   $0x0,-0xc(%ebp)
  103fa9:	75 3e                	jne    103fe9 <growproc+0x7f>
/u/s/h/shirui/private/cs537/p3a/p3/xv6-sp20/kernel/proc.c:114
  103fab:	b8 ff ff ff ff       	mov    $0xffffffff,%eax
  103fb0:	eb 59                	jmp    10400b <growproc+0xa1>
/u/s/h/shirui/private/cs537/p3a/p3/xv6-sp20/kernel/proc.c:115
  103fb2:	83 7d 08 00          	cmpl   $0x0,0x8(%ebp)
  103fb6:	79 31                	jns    103fe9 <growproc+0x7f>
/u/s/h/shirui/private/cs537/p3a/p3/xv6-sp20/kernel/proc.c:116
  103fb8:	8b 55 08             	mov    0x8(%ebp),%edx
  103fbb:	8b 45 f4             	mov    -0xc(%ebp),%eax
  103fbe:	01 c2                	add    %eax,%edx
  103fc0:	65 a1 04 00 00 00    	mov    %gs:0x4,%eax
  103fc6:	8b 40 04             	mov    0x4(%eax),%eax
  103fc9:	83 ec 04             	sub    $0x4,%esp
  103fcc:	52                   	push   %edx
  103fcd:	ff 75 f4             	pushl  -0xc(%ebp)
  103fd0:	50                   	push   %eax
  103fd1:	e8 2d 3c 00 00       	call   107c03 <deallocuvm>
  103fd6:	83 c4 10             	add    $0x10,%esp
  103fd9:	89 45 f4             	mov    %eax,-0xc(%ebp)
  103fdc:	83 7d f4 00          	cmpl   $0x0,-0xc(%ebp)
  103fe0:	75 07                	jne    103fe9 <growproc+0x7f>
/u/s/h/shirui/private/cs537/p3a/p3/xv6-sp20/kernel/proc.c:117
  103fe2:	b8 ff ff ff ff       	mov    $0xffffffff,%eax
  103fe7:	eb 22                	jmp    10400b <growproc+0xa1>
/u/s/h/shirui/private/cs537/p3a/p3/xv6-sp20/kernel/proc.c:119
  103fe9:	65 a1 04 00 00 00    	mov    %gs:0x4,%eax
  103fef:	8b 55 f4             	mov    -0xc(%ebp),%edx
  103ff2:	89 10                	mov    %edx,(%eax)
/u/s/h/shirui/private/cs537/p3a/p3/xv6-sp20/kernel/proc.c:120
  103ff4:	65 a1 04 00 00 00    	mov    %gs:0x4,%eax
  103ffa:	83 ec 0c             	sub    $0xc,%esp
  103ffd:	50                   	push   %eax
  103ffe:	e8 ac 38 00 00       	call   1078af <switchuvm>
  104003:	83 c4 10             	add    $0x10,%esp
/u/s/h/shirui/private/cs537/p3a/p3/xv6-sp20/kernel/proc.c:121
  104006:	b8 00 00 00 00       	mov    $0x0,%eax
/u/s/h/shirui/private/cs537/p3a/p3/xv6-sp20/kernel/proc.c:122
  10400b:	c9                   	leave  
  10400c:	c3                   	ret    

0010400d <fork>:
fork():
/u/s/h/shirui/private/cs537/p3a/p3/xv6-sp20/kernel/proc.c:129
  10400d:	55                   	push   %ebp
  10400e:	89 e5                	mov    %esp,%ebp
  104010:	57                   	push   %edi
  104011:	56                   	push   %esi
  104012:	53                   	push   %ebx
  104013:	83 ec 1c             	sub    $0x1c,%esp
/u/s/h/shirui/private/cs537/p3a/p3/xv6-sp20/kernel/proc.c:134
  104016:	e8 0e fd ff ff       	call   103d29 <allocproc>
  10401b:	89 45 e0             	mov    %eax,-0x20(%ebp)
  10401e:	83 7d e0 00          	cmpl   $0x0,-0x20(%ebp)
  104022:	75 0a                	jne    10402e <fork+0x21>
/u/s/h/shirui/private/cs537/p3a/p3/xv6-sp20/kernel/proc.c:135
  104024:	b8 ff ff ff ff       	mov    $0xffffffff,%eax
  104029:	e9 4a 01 00 00       	jmp    104178 <fork+0x16b>
/u/s/h/shirui/private/cs537/p3a/p3/xv6-sp20/kernel/proc.c:138
  10402e:	65 a1 04 00 00 00    	mov    %gs:0x4,%eax
  104034:	8b 10                	mov    (%eax),%edx
  104036:	65 a1 04 00 00 00    	mov    %gs:0x4,%eax
  10403c:	8b 40 04             	mov    0x4(%eax),%eax
  10403f:	83 ec 08             	sub    $0x8,%esp
  104042:	52                   	push   %edx
  104043:	50                   	push   %eax
  104044:	e8 e6 3c 00 00       	call   107d2f <copyuvm>
  104049:	83 c4 10             	add    $0x10,%esp
  10404c:	89 c2                	mov    %eax,%edx
  10404e:	8b 45 e0             	mov    -0x20(%ebp),%eax
  104051:	89 50 04             	mov    %edx,0x4(%eax)
  104054:	8b 45 e0             	mov    -0x20(%ebp),%eax
  104057:	8b 40 04             	mov    0x4(%eax),%eax
  10405a:	85 c0                	test   %eax,%eax
  10405c:	75 30                	jne    10408e <fork+0x81>
/u/s/h/shirui/private/cs537/p3a/p3/xv6-sp20/kernel/proc.c:139
  10405e:	8b 45 e0             	mov    -0x20(%ebp),%eax
  104061:	8b 40 08             	mov    0x8(%eax),%eax
  104064:	83 ec 0c             	sub    $0xc,%esp
  104067:	50                   	push   %eax
  104068:	e8 2d ea ff ff       	call   102a9a <kfree>
  10406d:	83 c4 10             	add    $0x10,%esp
/u/s/h/shirui/private/cs537/p3a/p3/xv6-sp20/kernel/proc.c:140
  104070:	8b 45 e0             	mov    -0x20(%ebp),%eax
  104073:	c7 40 08 00 00 00 00 	movl   $0x0,0x8(%eax)
/u/s/h/shirui/private/cs537/p3a/p3/xv6-sp20/kernel/proc.c:141
  10407a:	8b 45 e0             	mov    -0x20(%ebp),%eax
  10407d:	c7 40 0c 00 00 00 00 	movl   $0x0,0xc(%eax)
/u/s/h/shirui/private/cs537/p3a/p3/xv6-sp20/kernel/proc.c:142
  104084:	b8 ff ff ff ff       	mov    $0xffffffff,%eax
  104089:	e9 ea 00 00 00       	jmp    104178 <fork+0x16b>
/u/s/h/shirui/private/cs537/p3a/p3/xv6-sp20/kernel/proc.c:144
  10408e:	65 a1 04 00 00 00    	mov    %gs:0x4,%eax
  104094:	8b 10                	mov    (%eax),%edx
  104096:	8b 45 e0             	mov    -0x20(%ebp),%eax
  104099:	89 10                	mov    %edx,(%eax)
/u/s/h/shirui/private/cs537/p3a/p3/xv6-sp20/kernel/proc.c:145
  10409b:	65 8b 15 04 00 00 00 	mov    %gs:0x4,%edx
  1040a2:	8b 45 e0             	mov    -0x20(%ebp),%eax
  1040a5:	89 50 14             	mov    %edx,0x14(%eax)
/u/s/h/shirui/private/cs537/p3a/p3/xv6-sp20/kernel/proc.c:146
  1040a8:	65 a1 04 00 00 00    	mov    %gs:0x4,%eax
  1040ae:	8b 48 18             	mov    0x18(%eax),%ecx
  1040b1:	8b 45 e0             	mov    -0x20(%ebp),%eax
  1040b4:	8b 40 18             	mov    0x18(%eax),%eax
  1040b7:	89 c2                	mov    %eax,%edx
  1040b9:	89 cb                	mov    %ecx,%ebx
  1040bb:	b8 13 00 00 00       	mov    $0x13,%eax
  1040c0:	89 d7                	mov    %edx,%edi
  1040c2:	89 de                	mov    %ebx,%esi
  1040c4:	89 c1                	mov    %eax,%ecx
  1040c6:	f3 a5                	rep movsl %ds:(%esi),%es:(%edi)
/u/s/h/shirui/private/cs537/p3a/p3/xv6-sp20/kernel/proc.c:149
  1040c8:	8b 45 e0             	mov    -0x20(%ebp),%eax
  1040cb:	8b 40 18             	mov    0x18(%eax),%eax
  1040ce:	c7 40 1c 00 00 00 00 	movl   $0x0,0x1c(%eax)
/u/s/h/shirui/private/cs537/p3a/p3/xv6-sp20/kernel/proc.c:151
  1040d5:	c7 45 e4 00 00 00 00 	movl   $0x0,-0x1c(%ebp)
  1040dc:	eb 43                	jmp    104121 <fork+0x114>
/u/s/h/shirui/private/cs537/p3a/p3/xv6-sp20/kernel/proc.c:152
  1040de:	65 a1 04 00 00 00    	mov    %gs:0x4,%eax
  1040e4:	8b 55 e4             	mov    -0x1c(%ebp),%edx
  1040e7:	83 c2 08             	add    $0x8,%edx
  1040ea:	8b 44 90 08          	mov    0x8(%eax,%edx,4),%eax
  1040ee:	85 c0                	test   %eax,%eax
  1040f0:	74 2b                	je     10411d <fork+0x110>
/u/s/h/shirui/private/cs537/p3a/p3/xv6-sp20/kernel/proc.c:153
  1040f2:	65 a1 04 00 00 00    	mov    %gs:0x4,%eax
  1040f8:	8b 55 e4             	mov    -0x1c(%ebp),%edx
  1040fb:	83 c2 08             	add    $0x8,%edx
  1040fe:	8b 44 90 08          	mov    0x8(%eax,%edx,4),%eax
  104102:	83 ec 0c             	sub    $0xc,%esp
  104105:	50                   	push   %eax
  104106:	e8 c3 ce ff ff       	call   100fce <filedup>
  10410b:	83 c4 10             	add    $0x10,%esp
  10410e:	89 c1                	mov    %eax,%ecx
  104110:	8b 45 e0             	mov    -0x20(%ebp),%eax
  104113:	8b 55 e4             	mov    -0x1c(%ebp),%edx
  104116:	83 c2 08             	add    $0x8,%edx
  104119:	89 4c 90 08          	mov    %ecx,0x8(%eax,%edx,4)
/u/s/h/shirui/private/cs537/p3a/p3/xv6-sp20/kernel/proc.c:151 (discriminator 2)
  10411d:	83 45 e4 01          	addl   $0x1,-0x1c(%ebp)
/u/s/h/shirui/private/cs537/p3a/p3/xv6-sp20/kernel/proc.c:151 (discriminator 1)
  104121:	83 7d e4 0f          	cmpl   $0xf,-0x1c(%ebp)
  104125:	7e b7                	jle    1040de <fork+0xd1>
/u/s/h/shirui/private/cs537/p3a/p3/xv6-sp20/kernel/proc.c:154
  104127:	65 a1 04 00 00 00    	mov    %gs:0x4,%eax
  10412d:	8b 40 68             	mov    0x68(%eax),%eax
  104130:	83 ec 0c             	sub    $0xc,%esp
  104133:	50                   	push   %eax
  104134:	e8 dc d6 ff ff       	call   101815 <idup>
  104139:	83 c4 10             	add    $0x10,%esp
  10413c:	89 c2                	mov    %eax,%edx
  10413e:	8b 45 e0             	mov    -0x20(%ebp),%eax
  104141:	89 50 68             	mov    %edx,0x68(%eax)
/u/s/h/shirui/private/cs537/p3a/p3/xv6-sp20/kernel/proc.c:156
  104144:	8b 45 e0             	mov    -0x20(%ebp),%eax
  104147:	8b 40 10             	mov    0x10(%eax),%eax
  10414a:	89 45 dc             	mov    %eax,-0x24(%ebp)
/u/s/h/shirui/private/cs537/p3a/p3/xv6-sp20/kernel/proc.c:157
  10414d:	8b 45 e0             	mov    -0x20(%ebp),%eax
  104150:	c7 40 0c 03 00 00 00 	movl   $0x3,0xc(%eax)
/u/s/h/shirui/private/cs537/p3a/p3/xv6-sp20/kernel/proc.c:158
  104157:	65 a1 04 00 00 00    	mov    %gs:0x4,%eax
  10415d:	8d 50 6c             	lea    0x6c(%eax),%edx
  104160:	8b 45 e0             	mov    -0x20(%ebp),%eax
  104163:	83 c0 6c             	add    $0x6c,%eax
  104166:	83 ec 04             	sub    $0x4,%esp
  104169:	6a 10                	push   $0x10
  10416b:	52                   	push   %edx
  10416c:	50                   	push   %eax
  10416d:	e8 01 0b 00 00       	call   104c73 <safestrcpy>
  104172:	83 c4 10             	add    $0x10,%esp
/u/s/h/shirui/private/cs537/p3a/p3/xv6-sp20/kernel/proc.c:159
  104175:	8b 45 dc             	mov    -0x24(%ebp),%eax
/u/s/h/shirui/private/cs537/p3a/p3/xv6-sp20/kernel/proc.c:160
  104178:	8d 65 f4             	lea    -0xc(%ebp),%esp
  10417b:	5b                   	pop    %ebx
  10417c:	5e                   	pop    %esi
  10417d:	5f                   	pop    %edi
  10417e:	5d                   	pop    %ebp
  10417f:	c3                   	ret    

00104180 <exit>:
exit():
/u/s/h/shirui/private/cs537/p3a/p3/xv6-sp20/kernel/proc.c:167
  104180:	55                   	push   %ebp
  104181:	89 e5                	mov    %esp,%ebp
  104183:	83 ec 18             	sub    $0x18,%esp
/u/s/h/shirui/private/cs537/p3a/p3/xv6-sp20/kernel/proc.c:171
  104186:	65 8b 15 04 00 00 00 	mov    %gs:0x4,%edx
  10418d:	a1 68 bb 10 00       	mov    0x10bb68,%eax
  104192:	39 c2                	cmp    %eax,%edx
  104194:	75 0d                	jne    1041a3 <exit+0x23>
/u/s/h/shirui/private/cs537/p3a/p3/xv6-sp20/kernel/proc.c:172
  104196:	83 ec 0c             	sub    $0xc,%esp
  104199:	68 ec 81 10 00       	push   $0x1081ec
  10419e:	e8 d5 c3 ff ff       	call   100578 <panic>
/u/s/h/shirui/private/cs537/p3a/p3/xv6-sp20/kernel/proc.c:175
  1041a3:	c7 45 f0 00 00 00 00 	movl   $0x0,-0x10(%ebp)
  1041aa:	eb 48                	jmp    1041f4 <exit+0x74>
/u/s/h/shirui/private/cs537/p3a/p3/xv6-sp20/kernel/proc.c:176
  1041ac:	65 a1 04 00 00 00    	mov    %gs:0x4,%eax
  1041b2:	8b 55 f0             	mov    -0x10(%ebp),%edx
  1041b5:	83 c2 08             	add    $0x8,%edx
  1041b8:	8b 44 90 08          	mov    0x8(%eax,%edx,4),%eax
  1041bc:	85 c0                	test   %eax,%eax
  1041be:	74 30                	je     1041f0 <exit+0x70>
/u/s/h/shirui/private/cs537/p3a/p3/xv6-sp20/kernel/proc.c:177
  1041c0:	65 a1 04 00 00 00    	mov    %gs:0x4,%eax
  1041c6:	8b 55 f0             	mov    -0x10(%ebp),%edx
  1041c9:	83 c2 08             	add    $0x8,%edx
  1041cc:	8b 44 90 08          	mov    0x8(%eax,%edx,4),%eax
  1041d0:	83 ec 0c             	sub    $0xc,%esp
  1041d3:	50                   	push   %eax
  1041d4:	e8 46 ce ff ff       	call   10101f <fileclose>
  1041d9:	83 c4 10             	add    $0x10,%esp
/u/s/h/shirui/private/cs537/p3a/p3/xv6-sp20/kernel/proc.c:178
  1041dc:	65 a1 04 00 00 00    	mov    %gs:0x4,%eax
  1041e2:	8b 55 f0             	mov    -0x10(%ebp),%edx
  1041e5:	83 c2 08             	add    $0x8,%edx
  1041e8:	c7 44 90 08 00 00 00 	movl   $0x0,0x8(%eax,%edx,4)
  1041ef:	00 
/u/s/h/shirui/private/cs537/p3a/p3/xv6-sp20/kernel/proc.c:175 (discriminator 2)
  1041f0:	83 45 f0 01          	addl   $0x1,-0x10(%ebp)
/u/s/h/shirui/private/cs537/p3a/p3/xv6-sp20/kernel/proc.c:175 (discriminator 1)
  1041f4:	83 7d f0 0f          	cmpl   $0xf,-0x10(%ebp)
  1041f8:	7e b2                	jle    1041ac <exit+0x2c>
/u/s/h/shirui/private/cs537/p3a/p3/xv6-sp20/kernel/proc.c:182
  1041fa:	65 a1 04 00 00 00    	mov    %gs:0x4,%eax
  104200:	8b 40 68             	mov    0x68(%eax),%eax
  104203:	83 ec 0c             	sub    $0xc,%esp
  104206:	50                   	push   %eax
  104207:	e8 0d d8 ff ff       	call   101a19 <iput>
  10420c:	83 c4 10             	add    $0x10,%esp
/u/s/h/shirui/private/cs537/p3a/p3/xv6-sp20/kernel/proc.c:183
  10420f:	65 a1 04 00 00 00    	mov    %gs:0x4,%eax
  104215:	c7 40 68 00 00 00 00 	movl   $0x0,0x68(%eax)
/u/s/h/shirui/private/cs537/p3a/p3/xv6-sp20/kernel/proc.c:185
  10421c:	83 ec 0c             	sub    $0xc,%esp
  10421f:	68 e0 03 11 00       	push   $0x1103e0
  104224:	e8 57 06 00 00       	call   104880 <acquire>
  104229:	83 c4 10             	add    $0x10,%esp
/u/s/h/shirui/private/cs537/p3a/p3/xv6-sp20/kernel/proc.c:188
  10422c:	65 a1 04 00 00 00    	mov    %gs:0x4,%eax
  104232:	8b 40 14             	mov    0x14(%eax),%eax
  104235:	83 ec 0c             	sub    $0xc,%esp
  104238:	50                   	push   %eax
  104239:	e8 f5 03 00 00       	call   104633 <wakeup1>
  10423e:	83 c4 10             	add    $0x10,%esp
/u/s/h/shirui/private/cs537/p3a/p3/xv6-sp20/kernel/proc.c:191
  104241:	c7 45 f4 14 04 11 00 	movl   $0x110414,-0xc(%ebp)
  104248:	eb 3c                	jmp    104286 <exit+0x106>
/u/s/h/shirui/private/cs537/p3a/p3/xv6-sp20/kernel/proc.c:192
  10424a:	8b 45 f4             	mov    -0xc(%ebp),%eax
  10424d:	8b 50 14             	mov    0x14(%eax),%edx
  104250:	65 a1 04 00 00 00    	mov    %gs:0x4,%eax
  104256:	39 c2                	cmp    %eax,%edx
  104258:	75 28                	jne    104282 <exit+0x102>
/u/s/h/shirui/private/cs537/p3a/p3/xv6-sp20/kernel/proc.c:193
  10425a:	8b 15 68 bb 10 00    	mov    0x10bb68,%edx
  104260:	8b 45 f4             	mov    -0xc(%ebp),%eax
  104263:	89 50 14             	mov    %edx,0x14(%eax)
/u/s/h/shirui/private/cs537/p3a/p3/xv6-sp20/kernel/proc.c:194
  104266:	8b 45 f4             	mov    -0xc(%ebp),%eax
  104269:	8b 40 0c             	mov    0xc(%eax),%eax
  10426c:	83 f8 05             	cmp    $0x5,%eax
  10426f:	75 11                	jne    104282 <exit+0x102>
/u/s/h/shirui/private/cs537/p3a/p3/xv6-sp20/kernel/proc.c:195
  104271:	a1 68 bb 10 00       	mov    0x10bb68,%eax
  104276:	83 ec 0c             	sub    $0xc,%esp
  104279:	50                   	push   %eax
  10427a:	e8 b4 03 00 00       	call   104633 <wakeup1>
  10427f:	83 c4 10             	add    $0x10,%esp
/u/s/h/shirui/private/cs537/p3a/p3/xv6-sp20/kernel/proc.c:191 (discriminator 2)
  104282:	83 45 f4 7c          	addl   $0x7c,-0xc(%ebp)
/u/s/h/shirui/private/cs537/p3a/p3/xv6-sp20/kernel/proc.c:191 (discriminator 1)
  104286:	81 7d f4 14 23 11 00 	cmpl   $0x112314,-0xc(%ebp)
  10428d:	72 bb                	jb     10424a <exit+0xca>
/u/s/h/shirui/private/cs537/p3a/p3/xv6-sp20/kernel/proc.c:200
  10428f:	65 a1 04 00 00 00    	mov    %gs:0x4,%eax
  104295:	c7 40 0c 05 00 00 00 	movl   $0x5,0xc(%eax)
/u/s/h/shirui/private/cs537/p3a/p3/xv6-sp20/kernel/proc.c:201
  10429c:	e8 d6 01 00 00       	call   104477 <sched>
/u/s/h/shirui/private/cs537/p3a/p3/xv6-sp20/kernel/proc.c:202
  1042a1:	83 ec 0c             	sub    $0xc,%esp
  1042a4:	68 f9 81 10 00       	push   $0x1081f9
  1042a9:	e8 ca c2 ff ff       	call   100578 <panic>

001042ae <wait>:
wait():
/u/s/h/shirui/private/cs537/p3a/p3/xv6-sp20/kernel/proc.c:209
  1042ae:	55                   	push   %ebp
  1042af:	89 e5                	mov    %esp,%ebp
  1042b1:	83 ec 18             	sub    $0x18,%esp
/u/s/h/shirui/private/cs537/p3a/p3/xv6-sp20/kernel/proc.c:213
  1042b4:	83 ec 0c             	sub    $0xc,%esp
  1042b7:	68 e0 03 11 00       	push   $0x1103e0
  1042bc:	e8 bf 05 00 00       	call   104880 <acquire>
  1042c1:	83 c4 10             	add    $0x10,%esp
/u/s/h/shirui/private/cs537/p3a/p3/xv6-sp20/kernel/proc.c:216
  1042c4:	c7 45 f0 00 00 00 00 	movl   $0x0,-0x10(%ebp)
/u/s/h/shirui/private/cs537/p3a/p3/xv6-sp20/kernel/proc.c:217
  1042cb:	c7 45 f4 14 04 11 00 	movl   $0x110414,-0xc(%ebp)
  1042d2:	e9 a6 00 00 00       	jmp    10437d <wait+0xcf>
/u/s/h/shirui/private/cs537/p3a/p3/xv6-sp20/kernel/proc.c:218
  1042d7:	8b 45 f4             	mov    -0xc(%ebp),%eax
  1042da:	8b 50 14             	mov    0x14(%eax),%edx
  1042dd:	65 a1 04 00 00 00    	mov    %gs:0x4,%eax
  1042e3:	39 c2                	cmp    %eax,%edx
  1042e5:	0f 85 8d 00 00 00    	jne    104378 <wait+0xca>
/u/s/h/shirui/private/cs537/p3a/p3/xv6-sp20/kernel/proc.c:220
  1042eb:	c7 45 f0 01 00 00 00 	movl   $0x1,-0x10(%ebp)
/u/s/h/shirui/private/cs537/p3a/p3/xv6-sp20/kernel/proc.c:221
  1042f2:	8b 45 f4             	mov    -0xc(%ebp),%eax
  1042f5:	8b 40 0c             	mov    0xc(%eax),%eax
  1042f8:	83 f8 05             	cmp    $0x5,%eax
  1042fb:	75 7c                	jne    104379 <wait+0xcb>
/u/s/h/shirui/private/cs537/p3a/p3/xv6-sp20/kernel/proc.c:223
  1042fd:	8b 45 f4             	mov    -0xc(%ebp),%eax
  104300:	8b 40 10             	mov    0x10(%eax),%eax
  104303:	89 45 ec             	mov    %eax,-0x14(%ebp)
/u/s/h/shirui/private/cs537/p3a/p3/xv6-sp20/kernel/proc.c:224
  104306:	8b 45 f4             	mov    -0xc(%ebp),%eax
  104309:	8b 40 08             	mov    0x8(%eax),%eax
  10430c:	83 ec 0c             	sub    $0xc,%esp
  10430f:	50                   	push   %eax
  104310:	e8 85 e7 ff ff       	call   102a9a <kfree>
  104315:	83 c4 10             	add    $0x10,%esp
/u/s/h/shirui/private/cs537/p3a/p3/xv6-sp20/kernel/proc.c:225
  104318:	8b 45 f4             	mov    -0xc(%ebp),%eax
  10431b:	c7 40 08 00 00 00 00 	movl   $0x0,0x8(%eax)
/u/s/h/shirui/private/cs537/p3a/p3/xv6-sp20/kernel/proc.c:226
  104322:	8b 45 f4             	mov    -0xc(%ebp),%eax
  104325:	8b 40 04             	mov    0x4(%eax),%eax
  104328:	83 ec 0c             	sub    $0xc,%esp
  10432b:	50                   	push   %eax
  10432c:	e8 6f 39 00 00       	call   107ca0 <freevm>
  104331:	83 c4 10             	add    $0x10,%esp
/u/s/h/shirui/private/cs537/p3a/p3/xv6-sp20/kernel/proc.c:227
  104334:	8b 45 f4             	mov    -0xc(%ebp),%eax
  104337:	c7 40 0c 00 00 00 00 	movl   $0x0,0xc(%eax)
/u/s/h/shirui/private/cs537/p3a/p3/xv6-sp20/kernel/proc.c:228
  10433e:	8b 45 f4             	mov    -0xc(%ebp),%eax
  104341:	c7 40 10 00 00 00 00 	movl   $0x0,0x10(%eax)
/u/s/h/shirui/private/cs537/p3a/p3/xv6-sp20/kernel/proc.c:229
  104348:	8b 45 f4             	mov    -0xc(%ebp),%eax
  10434b:	c7 40 14 00 00 00 00 	movl   $0x0,0x14(%eax)
/u/s/h/shirui/private/cs537/p3a/p3/xv6-sp20/kernel/proc.c:230
  104352:	8b 45 f4             	mov    -0xc(%ebp),%eax
  104355:	c6 40 6c 00          	movb   $0x0,0x6c(%eax)
/u/s/h/shirui/private/cs537/p3a/p3/xv6-sp20/kernel/proc.c:231
  104359:	8b 45 f4             	mov    -0xc(%ebp),%eax
  10435c:	c7 40 24 00 00 00 00 	movl   $0x0,0x24(%eax)
/u/s/h/shirui/private/cs537/p3a/p3/xv6-sp20/kernel/proc.c:232
  104363:	83 ec 0c             	sub    $0xc,%esp
  104366:	68 e0 03 11 00       	push   $0x1103e0
  10436b:	e8 77 05 00 00       	call   1048e7 <release>
  104370:	83 c4 10             	add    $0x10,%esp
/u/s/h/shirui/private/cs537/p3a/p3/xv6-sp20/kernel/proc.c:233
  104373:	8b 45 ec             	mov    -0x14(%ebp),%eax
  104376:	eb 58                	jmp    1043d0 <wait+0x122>
/u/s/h/shirui/private/cs537/p3a/p3/xv6-sp20/kernel/proc.c:219
  104378:	90                   	nop
/u/s/h/shirui/private/cs537/p3a/p3/xv6-sp20/kernel/proc.c:217 (discriminator 2)
  104379:	83 45 f4 7c          	addl   $0x7c,-0xc(%ebp)
/u/s/h/shirui/private/cs537/p3a/p3/xv6-sp20/kernel/proc.c:217 (discriminator 1)
  10437d:	81 7d f4 14 23 11 00 	cmpl   $0x112314,-0xc(%ebp)
  104384:	0f 82 4d ff ff ff    	jb     1042d7 <wait+0x29>
/u/s/h/shirui/private/cs537/p3a/p3/xv6-sp20/kernel/proc.c:238
  10438a:	83 7d f0 00          	cmpl   $0x0,-0x10(%ebp)
  10438e:	74 0d                	je     10439d <wait+0xef>
/u/s/h/shirui/private/cs537/p3a/p3/xv6-sp20/kernel/proc.c:238 (discriminator 1)
  104390:	65 a1 04 00 00 00    	mov    %gs:0x4,%eax
  104396:	8b 40 24             	mov    0x24(%eax),%eax
  104399:	85 c0                	test   %eax,%eax
  10439b:	74 17                	je     1043b4 <wait+0x106>
/u/s/h/shirui/private/cs537/p3a/p3/xv6-sp20/kernel/proc.c:239
  10439d:	83 ec 0c             	sub    $0xc,%esp
  1043a0:	68 e0 03 11 00       	push   $0x1103e0
  1043a5:	e8 3d 05 00 00       	call   1048e7 <release>
  1043aa:	83 c4 10             	add    $0x10,%esp
/u/s/h/shirui/private/cs537/p3a/p3/xv6-sp20/kernel/proc.c:240
  1043ad:	b8 ff ff ff ff       	mov    $0xffffffff,%eax
  1043b2:	eb 1c                	jmp    1043d0 <wait+0x122>
/u/s/h/shirui/private/cs537/p3a/p3/xv6-sp20/kernel/proc.c:244
  1043b4:	65 a1 04 00 00 00    	mov    %gs:0x4,%eax
  1043ba:	83 ec 08             	sub    $0x8,%esp
  1043bd:	68 e0 03 11 00       	push   $0x1103e0
  1043c2:	50                   	push   %eax
  1043c3:	e8 bf 01 00 00       	call   104587 <sleep>
  1043c8:	83 c4 10             	add    $0x10,%esp
/u/s/h/shirui/private/cs537/p3a/p3/xv6-sp20/kernel/proc.c:216
  1043cb:	e9 f4 fe ff ff       	jmp    1042c4 <wait+0x16>
/u/s/h/shirui/private/cs537/p3a/p3/xv6-sp20/kernel/proc.c:246
  1043d0:	c9                   	leave  
  1043d1:	c3                   	ret    

001043d2 <scheduler>:
scheduler():
/u/s/h/shirui/private/cs537/p3a/p3/xv6-sp20/kernel/proc.c:257
  1043d2:	55                   	push   %ebp
  1043d3:	89 e5                	mov    %esp,%ebp
  1043d5:	83 ec 18             	sub    $0x18,%esp
/u/s/h/shirui/private/cs537/p3a/p3/xv6-sp20/kernel/proc.c:262
  1043d8:	e8 27 f9 ff ff       	call   103d04 <sti>
/u/s/h/shirui/private/cs537/p3a/p3/xv6-sp20/kernel/proc.c:265
  1043dd:	83 ec 0c             	sub    $0xc,%esp
  1043e0:	68 e0 03 11 00       	push   $0x1103e0
  1043e5:	e8 96 04 00 00       	call   104880 <acquire>
  1043ea:	83 c4 10             	add    $0x10,%esp
/u/s/h/shirui/private/cs537/p3a/p3/xv6-sp20/kernel/proc.c:266
  1043ed:	c7 45 f4 14 04 11 00 	movl   $0x110414,-0xc(%ebp)
  1043f4:	eb 63                	jmp    104459 <scheduler+0x87>
/u/s/h/shirui/private/cs537/p3a/p3/xv6-sp20/kernel/proc.c:267
  1043f6:	8b 45 f4             	mov    -0xc(%ebp),%eax
  1043f9:	8b 40 0c             	mov    0xc(%eax),%eax
  1043fc:	83 f8 03             	cmp    $0x3,%eax
  1043ff:	75 53                	jne    104454 <scheduler+0x82>
/u/s/h/shirui/private/cs537/p3a/p3/xv6-sp20/kernel/proc.c:273
  104401:	8b 45 f4             	mov    -0xc(%ebp),%eax
  104404:	65 a3 04 00 00 00    	mov    %eax,%gs:0x4
/u/s/h/shirui/private/cs537/p3a/p3/xv6-sp20/kernel/proc.c:274
  10440a:	83 ec 0c             	sub    $0xc,%esp
  10440d:	ff 75 f4             	pushl  -0xc(%ebp)
  104410:	e8 9a 34 00 00       	call   1078af <switchuvm>
  104415:	83 c4 10             	add    $0x10,%esp
/u/s/h/shirui/private/cs537/p3a/p3/xv6-sp20/kernel/proc.c:275
  104418:	8b 45 f4             	mov    -0xc(%ebp),%eax
  10441b:	c7 40 0c 04 00 00 00 	movl   $0x4,0xc(%eax)
/u/s/h/shirui/private/cs537/p3a/p3/xv6-sp20/kernel/proc.c:276
  104422:	65 a1 04 00 00 00    	mov    %gs:0x4,%eax
  104428:	8b 40 1c             	mov    0x1c(%eax),%eax
  10442b:	65 8b 15 00 00 00 00 	mov    %gs:0x0,%edx
  104432:	83 c2 04             	add    $0x4,%edx
  104435:	83 ec 08             	sub    $0x8,%esp
  104438:	50                   	push   %eax
  104439:	52                   	push   %edx
  10443a:	e8 a5 08 00 00       	call   104ce4 <swtch>
  10443f:	83 c4 10             	add    $0x10,%esp
/u/s/h/shirui/private/cs537/p3a/p3/xv6-sp20/kernel/proc.c:277
  104442:	e8 54 34 00 00       	call   10789b <switchkvm>
/u/s/h/shirui/private/cs537/p3a/p3/xv6-sp20/kernel/proc.c:281
  104447:	65 c7 05 04 00 00 00 	movl   $0x0,%gs:0x4
  10444e:	00 00 00 00 
  104452:	eb 01                	jmp    104455 <scheduler+0x83>
/u/s/h/shirui/private/cs537/p3a/p3/xv6-sp20/kernel/proc.c:268
  104454:	90                   	nop
/u/s/h/shirui/private/cs537/p3a/p3/xv6-sp20/kernel/proc.c:266 (discriminator 2)
  104455:	83 45 f4 7c          	addl   $0x7c,-0xc(%ebp)
/u/s/h/shirui/private/cs537/p3a/p3/xv6-sp20/kernel/proc.c:266 (discriminator 1)
  104459:	81 7d f4 14 23 11 00 	cmpl   $0x112314,-0xc(%ebp)
  104460:	72 94                	jb     1043f6 <scheduler+0x24>
/u/s/h/shirui/private/cs537/p3a/p3/xv6-sp20/kernel/proc.c:283
  104462:	83 ec 0c             	sub    $0xc,%esp
  104465:	68 e0 03 11 00       	push   $0x1103e0
  10446a:	e8 78 04 00 00       	call   1048e7 <release>
  10446f:	83 c4 10             	add    $0x10,%esp
/u/s/h/shirui/private/cs537/p3a/p3/xv6-sp20/kernel/proc.c:262
  104472:	e9 61 ff ff ff       	jmp    1043d8 <scheduler+0x6>

00104477 <sched>:
sched():
/u/s/h/shirui/private/cs537/p3a/p3/xv6-sp20/kernel/proc.c:292
  104477:	55                   	push   %ebp
  104478:	89 e5                	mov    %esp,%ebp
  10447a:	83 ec 18             	sub    $0x18,%esp
/u/s/h/shirui/private/cs537/p3a/p3/xv6-sp20/kernel/proc.c:295
  10447d:	83 ec 0c             	sub    $0xc,%esp
  104480:	68 e0 03 11 00       	push   $0x1103e0
  104485:	e8 29 05 00 00       	call   1049b3 <holding>
  10448a:	83 c4 10             	add    $0x10,%esp
  10448d:	85 c0                	test   %eax,%eax
  10448f:	75 0d                	jne    10449e <sched+0x27>
/u/s/h/shirui/private/cs537/p3a/p3/xv6-sp20/kernel/proc.c:296
  104491:	83 ec 0c             	sub    $0xc,%esp
  104494:	68 05 82 10 00       	push   $0x108205
  104499:	e8 da c0 ff ff       	call   100578 <panic>
/u/s/h/shirui/private/cs537/p3a/p3/xv6-sp20/kernel/proc.c:297
  10449e:	65 a1 00 00 00 00    	mov    %gs:0x0,%eax
  1044a4:	8b 80 ac 00 00 00    	mov    0xac(%eax),%eax
  1044aa:	83 f8 01             	cmp    $0x1,%eax
  1044ad:	74 0d                	je     1044bc <sched+0x45>
/u/s/h/shirui/private/cs537/p3a/p3/xv6-sp20/kernel/proc.c:298
  1044af:	83 ec 0c             	sub    $0xc,%esp
  1044b2:	68 17 82 10 00       	push   $0x108217
  1044b7:	e8 bc c0 ff ff       	call   100578 <panic>
/u/s/h/shirui/private/cs537/p3a/p3/xv6-sp20/kernel/proc.c:299
  1044bc:	65 a1 04 00 00 00    	mov    %gs:0x4,%eax
  1044c2:	8b 40 0c             	mov    0xc(%eax),%eax
  1044c5:	83 f8 04             	cmp    $0x4,%eax
  1044c8:	75 0d                	jne    1044d7 <sched+0x60>
/u/s/h/shirui/private/cs537/p3a/p3/xv6-sp20/kernel/proc.c:300
  1044ca:	83 ec 0c             	sub    $0xc,%esp
  1044cd:	68 23 82 10 00       	push   $0x108223
  1044d2:	e8 a1 c0 ff ff       	call   100578 <panic>
/u/s/h/shirui/private/cs537/p3a/p3/xv6-sp20/kernel/proc.c:301
  1044d7:	e8 18 f8 ff ff       	call   103cf4 <readeflags>
  1044dc:	25 00 02 00 00       	and    $0x200,%eax
  1044e1:	85 c0                	test   %eax,%eax
  1044e3:	74 0d                	je     1044f2 <sched+0x7b>
/u/s/h/shirui/private/cs537/p3a/p3/xv6-sp20/kernel/proc.c:302
  1044e5:	83 ec 0c             	sub    $0xc,%esp
  1044e8:	68 31 82 10 00       	push   $0x108231
  1044ed:	e8 86 c0 ff ff       	call   100578 <panic>
/u/s/h/shirui/private/cs537/p3a/p3/xv6-sp20/kernel/proc.c:303
  1044f2:	65 a1 00 00 00 00    	mov    %gs:0x0,%eax
  1044f8:	8b 80 b0 00 00 00    	mov    0xb0(%eax),%eax
  1044fe:	89 45 f4             	mov    %eax,-0xc(%ebp)
/u/s/h/shirui/private/cs537/p3a/p3/xv6-sp20/kernel/proc.c:304
  104501:	65 a1 00 00 00 00    	mov    %gs:0x0,%eax
  104507:	8b 40 04             	mov    0x4(%eax),%eax
  10450a:	65 8b 15 04 00 00 00 	mov    %gs:0x4,%edx
  104511:	83 c2 1c             	add    $0x1c,%edx
  104514:	83 ec 08             	sub    $0x8,%esp
  104517:	50                   	push   %eax
  104518:	52                   	push   %edx
  104519:	e8 c6 07 00 00       	call   104ce4 <swtch>
  10451e:	83 c4 10             	add    $0x10,%esp
/u/s/h/shirui/private/cs537/p3a/p3/xv6-sp20/kernel/proc.c:305
  104521:	65 a1 00 00 00 00    	mov    %gs:0x0,%eax
  104527:	8b 55 f4             	mov    -0xc(%ebp),%edx
  10452a:	89 90 b0 00 00 00    	mov    %edx,0xb0(%eax)
/u/s/h/shirui/private/cs537/p3a/p3/xv6-sp20/kernel/proc.c:306
  104530:	90                   	nop
  104531:	c9                   	leave  
  104532:	c3                   	ret    

00104533 <yield>:
yield():
/u/s/h/shirui/private/cs537/p3a/p3/xv6-sp20/kernel/proc.c:311
  104533:	55                   	push   %ebp
  104534:	89 e5                	mov    %esp,%ebp
  104536:	83 ec 08             	sub    $0x8,%esp
/u/s/h/shirui/private/cs537/p3a/p3/xv6-sp20/kernel/proc.c:312
  104539:	83 ec 0c             	sub    $0xc,%esp
  10453c:	68 e0 03 11 00       	push   $0x1103e0
  104541:	e8 3a 03 00 00       	call   104880 <acquire>
  104546:	83 c4 10             	add    $0x10,%esp
/u/s/h/shirui/private/cs537/p3a/p3/xv6-sp20/kernel/proc.c:313
  104549:	65 a1 04 00 00 00    	mov    %gs:0x4,%eax
  10454f:	c7 40 0c 03 00 00 00 	movl   $0x3,0xc(%eax)
/u/s/h/shirui/private/cs537/p3a/p3/xv6-sp20/kernel/proc.c:314
  104556:	e8 1c ff ff ff       	call   104477 <sched>
/u/s/h/shirui/private/cs537/p3a/p3/xv6-sp20/kernel/proc.c:315
  10455b:	83 ec 0c             	sub    $0xc,%esp
  10455e:	68 e0 03 11 00       	push   $0x1103e0
  104563:	e8 7f 03 00 00       	call   1048e7 <release>
  104568:	83 c4 10             	add    $0x10,%esp
/u/s/h/shirui/private/cs537/p3a/p3/xv6-sp20/kernel/proc.c:316
  10456b:	90                   	nop
  10456c:	c9                   	leave  
  10456d:	c3                   	ret    

0010456e <forkret>:
forkret():
/u/s/h/shirui/private/cs537/p3a/p3/xv6-sp20/kernel/proc.c:322
  10456e:	55                   	push   %ebp
  10456f:	89 e5                	mov    %esp,%ebp
  104571:	83 ec 08             	sub    $0x8,%esp
/u/s/h/shirui/private/cs537/p3a/p3/xv6-sp20/kernel/proc.c:324
  104574:	83 ec 0c             	sub    $0xc,%esp
  104577:	68 e0 03 11 00       	push   $0x1103e0
  10457c:	e8 66 03 00 00       	call   1048e7 <release>
  104581:	83 c4 10             	add    $0x10,%esp
/u/s/h/shirui/private/cs537/p3a/p3/xv6-sp20/kernel/proc.c:327
  104584:	90                   	nop
  104585:	c9                   	leave  
  104586:	c3                   	ret    

00104587 <sleep>:
sleep():
/u/s/h/shirui/private/cs537/p3a/p3/xv6-sp20/kernel/proc.c:333
  104587:	55                   	push   %ebp
  104588:	89 e5                	mov    %esp,%ebp
  10458a:	83 ec 08             	sub    $0x8,%esp
/u/s/h/shirui/private/cs537/p3a/p3/xv6-sp20/kernel/proc.c:334
  10458d:	65 a1 04 00 00 00    	mov    %gs:0x4,%eax
  104593:	85 c0                	test   %eax,%eax
  104595:	75 0d                	jne    1045a4 <sleep+0x1d>
/u/s/h/shirui/private/cs537/p3a/p3/xv6-sp20/kernel/proc.c:335
  104597:	83 ec 0c             	sub    $0xc,%esp
  10459a:	68 45 82 10 00       	push   $0x108245
  10459f:	e8 d4 bf ff ff       	call   100578 <panic>
/u/s/h/shirui/private/cs537/p3a/p3/xv6-sp20/kernel/proc.c:337
  1045a4:	83 7d 0c 00          	cmpl   $0x0,0xc(%ebp)
  1045a8:	75 0d                	jne    1045b7 <sleep+0x30>
/u/s/h/shirui/private/cs537/p3a/p3/xv6-sp20/kernel/proc.c:338
  1045aa:	83 ec 0c             	sub    $0xc,%esp
  1045ad:	68 4b 82 10 00       	push   $0x10824b
  1045b2:	e8 c1 bf ff ff       	call   100578 <panic>
/u/s/h/shirui/private/cs537/p3a/p3/xv6-sp20/kernel/proc.c:346
  1045b7:	81 7d 0c e0 03 11 00 	cmpl   $0x1103e0,0xc(%ebp)
  1045be:	74 1e                	je     1045de <sleep+0x57>
/u/s/h/shirui/private/cs537/p3a/p3/xv6-sp20/kernel/proc.c:347
  1045c0:	83 ec 0c             	sub    $0xc,%esp
  1045c3:	68 e0 03 11 00       	push   $0x1103e0
  1045c8:	e8 b3 02 00 00       	call   104880 <acquire>
  1045cd:	83 c4 10             	add    $0x10,%esp
/u/s/h/shirui/private/cs537/p3a/p3/xv6-sp20/kernel/proc.c:348
  1045d0:	83 ec 0c             	sub    $0xc,%esp
  1045d3:	ff 75 0c             	pushl  0xc(%ebp)
  1045d6:	e8 0c 03 00 00       	call   1048e7 <release>
  1045db:	83 c4 10             	add    $0x10,%esp
/u/s/h/shirui/private/cs537/p3a/p3/xv6-sp20/kernel/proc.c:352
  1045de:	65 a1 04 00 00 00    	mov    %gs:0x4,%eax
  1045e4:	8b 55 08             	mov    0x8(%ebp),%edx
  1045e7:	89 50 20             	mov    %edx,0x20(%eax)
/u/s/h/shirui/private/cs537/p3a/p3/xv6-sp20/kernel/proc.c:353
  1045ea:	65 a1 04 00 00 00    	mov    %gs:0x4,%eax
  1045f0:	c7 40 0c 02 00 00 00 	movl   $0x2,0xc(%eax)
/u/s/h/shirui/private/cs537/p3a/p3/xv6-sp20/kernel/proc.c:354
  1045f7:	e8 7b fe ff ff       	call   104477 <sched>
/u/s/h/shirui/private/cs537/p3a/p3/xv6-sp20/kernel/proc.c:357
  1045fc:	65 a1 04 00 00 00    	mov    %gs:0x4,%eax
  104602:	c7 40 20 00 00 00 00 	movl   $0x0,0x20(%eax)
/u/s/h/shirui/private/cs537/p3a/p3/xv6-sp20/kernel/proc.c:360
  104609:	81 7d 0c e0 03 11 00 	cmpl   $0x1103e0,0xc(%ebp)
  104610:	74 1e                	je     104630 <sleep+0xa9>
/u/s/h/shirui/private/cs537/p3a/p3/xv6-sp20/kernel/proc.c:361
  104612:	83 ec 0c             	sub    $0xc,%esp
  104615:	68 e0 03 11 00       	push   $0x1103e0
  10461a:	e8 c8 02 00 00       	call   1048e7 <release>
  10461f:	83 c4 10             	add    $0x10,%esp
/u/s/h/shirui/private/cs537/p3a/p3/xv6-sp20/kernel/proc.c:362
  104622:	83 ec 0c             	sub    $0xc,%esp
  104625:	ff 75 0c             	pushl  0xc(%ebp)
  104628:	e8 53 02 00 00       	call   104880 <acquire>
  10462d:	83 c4 10             	add    $0x10,%esp
/u/s/h/shirui/private/cs537/p3a/p3/xv6-sp20/kernel/proc.c:364
  104630:	90                   	nop
  104631:	c9                   	leave  
  104632:	c3                   	ret    

00104633 <wakeup1>:
wakeup1():
/u/s/h/shirui/private/cs537/p3a/p3/xv6-sp20/kernel/proc.c:370
  104633:	55                   	push   %ebp
  104634:	89 e5                	mov    %esp,%ebp
  104636:	83 ec 10             	sub    $0x10,%esp
/u/s/h/shirui/private/cs537/p3a/p3/xv6-sp20/kernel/proc.c:373
  104639:	c7 45 fc 14 04 11 00 	movl   $0x110414,-0x4(%ebp)
  104640:	eb 24                	jmp    104666 <wakeup1+0x33>
/u/s/h/shirui/private/cs537/p3a/p3/xv6-sp20/kernel/proc.c:374
  104642:	8b 45 fc             	mov    -0x4(%ebp),%eax
  104645:	8b 40 0c             	mov    0xc(%eax),%eax
  104648:	83 f8 02             	cmp    $0x2,%eax
  10464b:	75 15                	jne    104662 <wakeup1+0x2f>
/u/s/h/shirui/private/cs537/p3a/p3/xv6-sp20/kernel/proc.c:374 (discriminator 1)
  10464d:	8b 45 fc             	mov    -0x4(%ebp),%eax
  104650:	8b 40 20             	mov    0x20(%eax),%eax
  104653:	39 45 08             	cmp    %eax,0x8(%ebp)
  104656:	75 0a                	jne    104662 <wakeup1+0x2f>
/u/s/h/shirui/private/cs537/p3a/p3/xv6-sp20/kernel/proc.c:375
  104658:	8b 45 fc             	mov    -0x4(%ebp),%eax
  10465b:	c7 40 0c 03 00 00 00 	movl   $0x3,0xc(%eax)
/u/s/h/shirui/private/cs537/p3a/p3/xv6-sp20/kernel/proc.c:373 (discriminator 2)
  104662:	83 45 fc 7c          	addl   $0x7c,-0x4(%ebp)
/u/s/h/shirui/private/cs537/p3a/p3/xv6-sp20/kernel/proc.c:373 (discriminator 1)
  104666:	81 7d fc 14 23 11 00 	cmpl   $0x112314,-0x4(%ebp)
  10466d:	72 d3                	jb     104642 <wakeup1+0xf>
/u/s/h/shirui/private/cs537/p3a/p3/xv6-sp20/kernel/proc.c:376
  10466f:	90                   	nop
  104670:	c9                   	leave  
  104671:	c3                   	ret    

00104672 <wakeup>:
wakeup():
/u/s/h/shirui/private/cs537/p3a/p3/xv6-sp20/kernel/proc.c:381
  104672:	55                   	push   %ebp
  104673:	89 e5                	mov    %esp,%ebp
  104675:	83 ec 08             	sub    $0x8,%esp
/u/s/h/shirui/private/cs537/p3a/p3/xv6-sp20/kernel/proc.c:382
  104678:	83 ec 0c             	sub    $0xc,%esp
  10467b:	68 e0 03 11 00       	push   $0x1103e0
  104680:	e8 fb 01 00 00       	call   104880 <acquire>
  104685:	83 c4 10             	add    $0x10,%esp
/u/s/h/shirui/private/cs537/p3a/p3/xv6-sp20/kernel/proc.c:383
  104688:	83 ec 0c             	sub    $0xc,%esp
  10468b:	ff 75 08             	pushl  0x8(%ebp)
  10468e:	e8 a0 ff ff ff       	call   104633 <wakeup1>
  104693:	83 c4 10             	add    $0x10,%esp
/u/s/h/shirui/private/cs537/p3a/p3/xv6-sp20/kernel/proc.c:384
  104696:	83 ec 0c             	sub    $0xc,%esp
  104699:	68 e0 03 11 00       	push   $0x1103e0
  10469e:	e8 44 02 00 00       	call   1048e7 <release>
  1046a3:	83 c4 10             	add    $0x10,%esp
/u/s/h/shirui/private/cs537/p3a/p3/xv6-sp20/kernel/proc.c:385
  1046a6:	90                   	nop
  1046a7:	c9                   	leave  
  1046a8:	c3                   	ret    

001046a9 <kill>:
kill():
/u/s/h/shirui/private/cs537/p3a/p3/xv6-sp20/kernel/proc.c:392
  1046a9:	55                   	push   %ebp
  1046aa:	89 e5                	mov    %esp,%ebp
  1046ac:	83 ec 18             	sub    $0x18,%esp
/u/s/h/shirui/private/cs537/p3a/p3/xv6-sp20/kernel/proc.c:395
  1046af:	83 ec 0c             	sub    $0xc,%esp
  1046b2:	68 e0 03 11 00       	push   $0x1103e0
  1046b7:	e8 c4 01 00 00       	call   104880 <acquire>
  1046bc:	83 c4 10             	add    $0x10,%esp
/u/s/h/shirui/private/cs537/p3a/p3/xv6-sp20/kernel/proc.c:396
  1046bf:	c7 45 f4 14 04 11 00 	movl   $0x110414,-0xc(%ebp)
  1046c6:	eb 45                	jmp    10470d <kill+0x64>
/u/s/h/shirui/private/cs537/p3a/p3/xv6-sp20/kernel/proc.c:397
  1046c8:	8b 45 f4             	mov    -0xc(%ebp),%eax
  1046cb:	8b 40 10             	mov    0x10(%eax),%eax
  1046ce:	39 45 08             	cmp    %eax,0x8(%ebp)
  1046d1:	75 36                	jne    104709 <kill+0x60>
/u/s/h/shirui/private/cs537/p3a/p3/xv6-sp20/kernel/proc.c:398
  1046d3:	8b 45 f4             	mov    -0xc(%ebp),%eax
  1046d6:	c7 40 24 01 00 00 00 	movl   $0x1,0x24(%eax)
/u/s/h/shirui/private/cs537/p3a/p3/xv6-sp20/kernel/proc.c:400
  1046dd:	8b 45 f4             	mov    -0xc(%ebp),%eax
  1046e0:	8b 40 0c             	mov    0xc(%eax),%eax
  1046e3:	83 f8 02             	cmp    $0x2,%eax
  1046e6:	75 0a                	jne    1046f2 <kill+0x49>
/u/s/h/shirui/private/cs537/p3a/p3/xv6-sp20/kernel/proc.c:401
  1046e8:	8b 45 f4             	mov    -0xc(%ebp),%eax
  1046eb:	c7 40 0c 03 00 00 00 	movl   $0x3,0xc(%eax)
/u/s/h/shirui/private/cs537/p3a/p3/xv6-sp20/kernel/proc.c:402
  1046f2:	83 ec 0c             	sub    $0xc,%esp
  1046f5:	68 e0 03 11 00       	push   $0x1103e0
  1046fa:	e8 e8 01 00 00       	call   1048e7 <release>
  1046ff:	83 c4 10             	add    $0x10,%esp
/u/s/h/shirui/private/cs537/p3a/p3/xv6-sp20/kernel/proc.c:403
  104702:	b8 00 00 00 00       	mov    $0x0,%eax
  104707:	eb 22                	jmp    10472b <kill+0x82>
/u/s/h/shirui/private/cs537/p3a/p3/xv6-sp20/kernel/proc.c:396 (discriminator 2)
  104709:	83 45 f4 7c          	addl   $0x7c,-0xc(%ebp)
/u/s/h/shirui/private/cs537/p3a/p3/xv6-sp20/kernel/proc.c:396 (discriminator 1)
  10470d:	81 7d f4 14 23 11 00 	cmpl   $0x112314,-0xc(%ebp)
  104714:	72 b2                	jb     1046c8 <kill+0x1f>
/u/s/h/shirui/private/cs537/p3a/p3/xv6-sp20/kernel/proc.c:406
  104716:	83 ec 0c             	sub    $0xc,%esp
  104719:	68 e0 03 11 00       	push   $0x1103e0
  10471e:	e8 c4 01 00 00       	call   1048e7 <release>
  104723:	83 c4 10             	add    $0x10,%esp
/u/s/h/shirui/private/cs537/p3a/p3/xv6-sp20/kernel/proc.c:407
  104726:	b8 ff ff ff ff       	mov    $0xffffffff,%eax
/u/s/h/shirui/private/cs537/p3a/p3/xv6-sp20/kernel/proc.c:408
  10472b:	c9                   	leave  
  10472c:	c3                   	ret    

0010472d <procdump>:
procdump():
/u/s/h/shirui/private/cs537/p3a/p3/xv6-sp20/kernel/proc.c:415
  10472d:	55                   	push   %ebp
  10472e:	89 e5                	mov    %esp,%ebp
  104730:	83 ec 48             	sub    $0x48,%esp
/u/s/h/shirui/private/cs537/p3a/p3/xv6-sp20/kernel/proc.c:429
  104733:	c7 45 f0 14 04 11 00 	movl   $0x110414,-0x10(%ebp)
  10473a:	e9 d7 00 00 00       	jmp    104816 <procdump+0xe9>
/u/s/h/shirui/private/cs537/p3a/p3/xv6-sp20/kernel/proc.c:430
  10473f:	8b 45 f0             	mov    -0x10(%ebp),%eax
  104742:	8b 40 0c             	mov    0xc(%eax),%eax
  104745:	85 c0                	test   %eax,%eax
  104747:	0f 84 c4 00 00 00    	je     104811 <procdump+0xe4>
/u/s/h/shirui/private/cs537/p3a/p3/xv6-sp20/kernel/proc.c:432
  10474d:	8b 45 f0             	mov    -0x10(%ebp),%eax
  104750:	8b 40 0c             	mov    0xc(%eax),%eax
  104753:	83 f8 05             	cmp    $0x5,%eax
  104756:	77 23                	ja     10477b <procdump+0x4e>
/u/s/h/shirui/private/cs537/p3a/p3/xv6-sp20/kernel/proc.c:432 (discriminator 1)
  104758:	8b 45 f0             	mov    -0x10(%ebp),%eax
  10475b:	8b 40 0c             	mov    0xc(%eax),%eax
  10475e:	8b 04 85 38 b5 10 00 	mov    0x10b538(,%eax,4),%eax
  104765:	85 c0                	test   %eax,%eax
  104767:	74 12                	je     10477b <procdump+0x4e>
/u/s/h/shirui/private/cs537/p3a/p3/xv6-sp20/kernel/proc.c:433
  104769:	8b 45 f0             	mov    -0x10(%ebp),%eax
  10476c:	8b 40 0c             	mov    0xc(%eax),%eax
  10476f:	8b 04 85 38 b5 10 00 	mov    0x10b538(,%eax,4),%eax
  104776:	89 45 ec             	mov    %eax,-0x14(%ebp)
  104779:	eb 07                	jmp    104782 <procdump+0x55>
/u/s/h/shirui/private/cs537/p3a/p3/xv6-sp20/kernel/proc.c:435
  10477b:	c7 45 ec 5c 82 10 00 	movl   $0x10825c,-0x14(%ebp)
/u/s/h/shirui/private/cs537/p3a/p3/xv6-sp20/kernel/proc.c:436
  104782:	8b 45 f0             	mov    -0x10(%ebp),%eax
  104785:	8d 50 6c             	lea    0x6c(%eax),%edx
  104788:	8b 45 f0             	mov    -0x10(%ebp),%eax
  10478b:	8b 40 10             	mov    0x10(%eax),%eax
  10478e:	52                   	push   %edx
  10478f:	ff 75 ec             	pushl  -0x14(%ebp)
  104792:	50                   	push   %eax
  104793:	68 60 82 10 00       	push   $0x108260
  104798:	e8 4f bc ff ff       	call   1003ec <cprintf>
  10479d:	83 c4 10             	add    $0x10,%esp
/u/s/h/shirui/private/cs537/p3a/p3/xv6-sp20/kernel/proc.c:437
  1047a0:	8b 45 f0             	mov    -0x10(%ebp),%eax
  1047a3:	8b 40 0c             	mov    0xc(%eax),%eax
  1047a6:	83 f8 02             	cmp    $0x2,%eax
  1047a9:	75 54                	jne    1047ff <procdump+0xd2>
/u/s/h/shirui/private/cs537/p3a/p3/xv6-sp20/kernel/proc.c:438
  1047ab:	8b 45 f0             	mov    -0x10(%ebp),%eax
  1047ae:	8b 40 1c             	mov    0x1c(%eax),%eax
  1047b1:	8b 40 0c             	mov    0xc(%eax),%eax
  1047b4:	83 c0 08             	add    $0x8,%eax
  1047b7:	89 c2                	mov    %eax,%edx
  1047b9:	83 ec 08             	sub    $0x8,%esp
  1047bc:	8d 45 c4             	lea    -0x3c(%ebp),%eax
  1047bf:	50                   	push   %eax
  1047c0:	52                   	push   %edx
  1047c1:	e8 73 01 00 00       	call   104939 <getcallerpcs>
  1047c6:	83 c4 10             	add    $0x10,%esp
/u/s/h/shirui/private/cs537/p3a/p3/xv6-sp20/kernel/proc.c:439
  1047c9:	c7 45 f4 00 00 00 00 	movl   $0x0,-0xc(%ebp)
  1047d0:	eb 1c                	jmp    1047ee <procdump+0xc1>
/u/s/h/shirui/private/cs537/p3a/p3/xv6-sp20/kernel/proc.c:440 (discriminator 4)
  1047d2:	8b 45 f4             	mov    -0xc(%ebp),%eax
  1047d5:	8b 44 85 c4          	mov    -0x3c(%ebp,%eax,4),%eax
  1047d9:	83 ec 08             	sub    $0x8,%esp
  1047dc:	50                   	push   %eax
  1047dd:	68 69 82 10 00       	push   $0x108269
  1047e2:	e8 05 bc ff ff       	call   1003ec <cprintf>
  1047e7:	83 c4 10             	add    $0x10,%esp
/u/s/h/shirui/private/cs537/p3a/p3/xv6-sp20/kernel/proc.c:439 (discriminator 4)
  1047ea:	83 45 f4 01          	addl   $0x1,-0xc(%ebp)
/u/s/h/shirui/private/cs537/p3a/p3/xv6-sp20/kernel/proc.c:439 (discriminator 1)
  1047ee:	83 7d f4 09          	cmpl   $0x9,-0xc(%ebp)
  1047f2:	7f 0b                	jg     1047ff <procdump+0xd2>
/u/s/h/shirui/private/cs537/p3a/p3/xv6-sp20/kernel/proc.c:439 (discriminator 3)
  1047f4:	8b 45 f4             	mov    -0xc(%ebp),%eax
  1047f7:	8b 44 85 c4          	mov    -0x3c(%ebp,%eax,4),%eax
  1047fb:	85 c0                	test   %eax,%eax
  1047fd:	75 d3                	jne    1047d2 <procdump+0xa5>
/u/s/h/shirui/private/cs537/p3a/p3/xv6-sp20/kernel/proc.c:442
  1047ff:	83 ec 0c             	sub    $0xc,%esp
  104802:	68 6d 82 10 00       	push   $0x10826d
  104807:	e8 e0 bb ff ff       	call   1003ec <cprintf>
  10480c:	83 c4 10             	add    $0x10,%esp
  10480f:	eb 01                	jmp    104812 <procdump+0xe5>
/u/s/h/shirui/private/cs537/p3a/p3/xv6-sp20/kernel/proc.c:431
  104811:	90                   	nop
/u/s/h/shirui/private/cs537/p3a/p3/xv6-sp20/kernel/proc.c:429 (discriminator 2)
  104812:	83 45 f0 7c          	addl   $0x7c,-0x10(%ebp)
/u/s/h/shirui/private/cs537/p3a/p3/xv6-sp20/kernel/proc.c:429 (discriminator 1)
  104816:	81 7d f0 14 23 11 00 	cmpl   $0x112314,-0x10(%ebp)
  10481d:	0f 82 1c ff ff ff    	jb     10473f <procdump+0x12>
/u/s/h/shirui/private/cs537/p3a/p3/xv6-sp20/kernel/proc.c:444
  104823:	90                   	nop
  104824:	c9                   	leave  
  104825:	c3                   	ret    

00104826 <readeflags>:
readeflags():
/u/s/h/shirui/private/cs537/p3a/p3/xv6-sp20/include/x86.h:89
  104826:	55                   	push   %ebp
  104827:	89 e5                	mov    %esp,%ebp
  104829:	83 ec 10             	sub    $0x10,%esp
/u/s/h/shirui/private/cs537/p3a/p3/xv6-sp20/include/x86.h:91
  10482c:	9c                   	pushf  
  10482d:	58                   	pop    %eax
  10482e:	89 45 fc             	mov    %eax,-0x4(%ebp)
/u/s/h/shirui/private/cs537/p3a/p3/xv6-sp20/include/x86.h:92
  104831:	8b 45 fc             	mov    -0x4(%ebp),%eax
/u/s/h/shirui/private/cs537/p3a/p3/xv6-sp20/include/x86.h:93
  104834:	c9                   	leave  
  104835:	c3                   	ret    

00104836 <cli>:
cli():
/u/s/h/shirui/private/cs537/p3a/p3/xv6-sp20/include/x86.h:119
  104836:	55                   	push   %ebp
  104837:	89 e5                	mov    %esp,%ebp
/u/s/h/shirui/private/cs537/p3a/p3/xv6-sp20/include/x86.h:120
  104839:	fa                   	cli    
/u/s/h/shirui/private/cs537/p3a/p3/xv6-sp20/include/x86.h:121
  10483a:	90                   	nop
  10483b:	5d                   	pop    %ebp
  10483c:	c3                   	ret    

0010483d <sti>:
sti():
/u/s/h/shirui/private/cs537/p3a/p3/xv6-sp20/include/x86.h:125
  10483d:	55                   	push   %ebp
  10483e:	89 e5                	mov    %esp,%ebp
/u/s/h/shirui/private/cs537/p3a/p3/xv6-sp20/include/x86.h:126
  104840:	fb                   	sti    
/u/s/h/shirui/private/cs537/p3a/p3/xv6-sp20/include/x86.h:127
  104841:	90                   	nop
  104842:	5d                   	pop    %ebp
  104843:	c3                   	ret    

00104844 <xchg>:
xchg():
/u/s/h/shirui/private/cs537/p3a/p3/xv6-sp20/include/x86.h:131
  104844:	55                   	push   %ebp
  104845:	89 e5                	mov    %esp,%ebp
  104847:	83 ec 10             	sub    $0x10,%esp
/u/s/h/shirui/private/cs537/p3a/p3/xv6-sp20/include/x86.h:135
  10484a:	8b 55 08             	mov    0x8(%ebp),%edx
  10484d:	8b 45 0c             	mov    0xc(%ebp),%eax
  104850:	8b 4d 08             	mov    0x8(%ebp),%ecx
  104853:	f0 87 02             	lock xchg %eax,(%edx)
  104856:	89 45 fc             	mov    %eax,-0x4(%ebp)
/u/s/h/shirui/private/cs537/p3a/p3/xv6-sp20/include/x86.h:139
  104859:	8b 45 fc             	mov    -0x4(%ebp),%eax
/u/s/h/shirui/private/cs537/p3a/p3/xv6-sp20/include/x86.h:140
  10485c:	c9                   	leave  
  10485d:	c3                   	ret    

0010485e <initlock>:
initlock():
/u/s/h/shirui/private/cs537/p3a/p3/xv6-sp20/kernel/spinlock.c:13
  10485e:	55                   	push   %ebp
  10485f:	89 e5                	mov    %esp,%ebp
/u/s/h/shirui/private/cs537/p3a/p3/xv6-sp20/kernel/spinlock.c:14
  104861:	8b 45 08             	mov    0x8(%ebp),%eax
  104864:	8b 55 0c             	mov    0xc(%ebp),%edx
  104867:	89 50 04             	mov    %edx,0x4(%eax)
/u/s/h/shirui/private/cs537/p3a/p3/xv6-sp20/kernel/spinlock.c:15
  10486a:	8b 45 08             	mov    0x8(%ebp),%eax
  10486d:	c7 00 00 00 00 00    	movl   $0x0,(%eax)
/u/s/h/shirui/private/cs537/p3a/p3/xv6-sp20/kernel/spinlock.c:16
  104873:	8b 45 08             	mov    0x8(%ebp),%eax
  104876:	c7 40 08 00 00 00 00 	movl   $0x0,0x8(%eax)
/u/s/h/shirui/private/cs537/p3a/p3/xv6-sp20/kernel/spinlock.c:17
  10487d:	90                   	nop
  10487e:	5d                   	pop    %ebp
  10487f:	c3                   	ret    

00104880 <acquire>:
acquire():
/u/s/h/shirui/private/cs537/p3a/p3/xv6-sp20/kernel/spinlock.c:25
  104880:	55                   	push   %ebp
  104881:	89 e5                	mov    %esp,%ebp
  104883:	83 ec 08             	sub    $0x8,%esp
/u/s/h/shirui/private/cs537/p3a/p3/xv6-sp20/kernel/spinlock.c:26
  104886:	e8 52 01 00 00       	call   1049dd <pushcli>
/u/s/h/shirui/private/cs537/p3a/p3/xv6-sp20/kernel/spinlock.c:27
  10488b:	8b 45 08             	mov    0x8(%ebp),%eax
  10488e:	83 ec 0c             	sub    $0xc,%esp
  104891:	50                   	push   %eax
  104892:	e8 1c 01 00 00       	call   1049b3 <holding>
  104897:	83 c4 10             	add    $0x10,%esp
  10489a:	85 c0                	test   %eax,%eax
  10489c:	74 0d                	je     1048ab <acquire+0x2b>
/u/s/h/shirui/private/cs537/p3a/p3/xv6-sp20/kernel/spinlock.c:28
  10489e:	83 ec 0c             	sub    $0xc,%esp
  1048a1:	68 99 82 10 00       	push   $0x108299
  1048a6:	e8 cd bc ff ff       	call   100578 <panic>
/u/s/h/shirui/private/cs537/p3a/p3/xv6-sp20/kernel/spinlock.c:33
  1048ab:	90                   	nop
/u/s/h/shirui/private/cs537/p3a/p3/xv6-sp20/kernel/spinlock.c:33 (discriminator 1)
  1048ac:	8b 45 08             	mov    0x8(%ebp),%eax
  1048af:	83 ec 08             	sub    $0x8,%esp
  1048b2:	6a 01                	push   $0x1
  1048b4:	50                   	push   %eax
  1048b5:	e8 8a ff ff ff       	call   104844 <xchg>
  1048ba:	83 c4 10             	add    $0x10,%esp
  1048bd:	85 c0                	test   %eax,%eax
  1048bf:	75 eb                	jne    1048ac <acquire+0x2c>
/u/s/h/shirui/private/cs537/p3a/p3/xv6-sp20/kernel/spinlock.c:37
  1048c1:	8b 45 08             	mov    0x8(%ebp),%eax
  1048c4:	65 8b 15 00 00 00 00 	mov    %gs:0x0,%edx
  1048cb:	89 50 08             	mov    %edx,0x8(%eax)
/u/s/h/shirui/private/cs537/p3a/p3/xv6-sp20/kernel/spinlock.c:38
  1048ce:	8b 45 08             	mov    0x8(%ebp),%eax
  1048d1:	83 c0 0c             	add    $0xc,%eax
  1048d4:	83 ec 08             	sub    $0x8,%esp
  1048d7:	50                   	push   %eax
  1048d8:	8d 45 08             	lea    0x8(%ebp),%eax
  1048db:	50                   	push   %eax
  1048dc:	e8 58 00 00 00       	call   104939 <getcallerpcs>
  1048e1:	83 c4 10             	add    $0x10,%esp
/u/s/h/shirui/private/cs537/p3a/p3/xv6-sp20/kernel/spinlock.c:39
  1048e4:	90                   	nop
  1048e5:	c9                   	leave  
  1048e6:	c3                   	ret    

001048e7 <release>:
release():
/u/s/h/shirui/private/cs537/p3a/p3/xv6-sp20/kernel/spinlock.c:44
  1048e7:	55                   	push   %ebp
  1048e8:	89 e5                	mov    %esp,%ebp
  1048ea:	83 ec 08             	sub    $0x8,%esp
/u/s/h/shirui/private/cs537/p3a/p3/xv6-sp20/kernel/spinlock.c:45
  1048ed:	83 ec 0c             	sub    $0xc,%esp
  1048f0:	ff 75 08             	pushl  0x8(%ebp)
  1048f3:	e8 bb 00 00 00       	call   1049b3 <holding>
  1048f8:	83 c4 10             	add    $0x10,%esp
  1048fb:	85 c0                	test   %eax,%eax
  1048fd:	75 0d                	jne    10490c <release+0x25>
/u/s/h/shirui/private/cs537/p3a/p3/xv6-sp20/kernel/spinlock.c:46
  1048ff:	83 ec 0c             	sub    $0xc,%esp
  104902:	68 a1 82 10 00       	push   $0x1082a1
  104907:	e8 6c bc ff ff       	call   100578 <panic>
/u/s/h/shirui/private/cs537/p3a/p3/xv6-sp20/kernel/spinlock.c:48
  10490c:	8b 45 08             	mov    0x8(%ebp),%eax
  10490f:	c7 40 0c 00 00 00 00 	movl   $0x0,0xc(%eax)
/u/s/h/shirui/private/cs537/p3a/p3/xv6-sp20/kernel/spinlock.c:49
  104916:	8b 45 08             	mov    0x8(%ebp),%eax
  104919:	c7 40 08 00 00 00 00 	movl   $0x0,0x8(%eax)
/u/s/h/shirui/private/cs537/p3a/p3/xv6-sp20/kernel/spinlock.c:60
  104920:	8b 45 08             	mov    0x8(%ebp),%eax
  104923:	83 ec 08             	sub    $0x8,%esp
  104926:	6a 00                	push   $0x0
  104928:	50                   	push   %eax
  104929:	e8 16 ff ff ff       	call   104844 <xchg>
  10492e:	83 c4 10             	add    $0x10,%esp
/u/s/h/shirui/private/cs537/p3a/p3/xv6-sp20/kernel/spinlock.c:62
  104931:	e8 ec 00 00 00       	call   104a22 <popcli>
/u/s/h/shirui/private/cs537/p3a/p3/xv6-sp20/kernel/spinlock.c:63
  104936:	90                   	nop
  104937:	c9                   	leave  
  104938:	c3                   	ret    

00104939 <getcallerpcs>:
getcallerpcs():
/u/s/h/shirui/private/cs537/p3a/p3/xv6-sp20/kernel/spinlock.c:68
  104939:	55                   	push   %ebp
  10493a:	89 e5                	mov    %esp,%ebp
  10493c:	83 ec 10             	sub    $0x10,%esp
/u/s/h/shirui/private/cs537/p3a/p3/xv6-sp20/kernel/spinlock.c:72
  10493f:	8b 45 08             	mov    0x8(%ebp),%eax
  104942:	83 e8 08             	sub    $0x8,%eax
  104945:	89 45 fc             	mov    %eax,-0x4(%ebp)
/u/s/h/shirui/private/cs537/p3a/p3/xv6-sp20/kernel/spinlock.c:73
  104948:	c7 45 f8 00 00 00 00 	movl   $0x0,-0x8(%ebp)
  10494f:	eb 38                	jmp    104989 <getcallerpcs+0x50>
/u/s/h/shirui/private/cs537/p3a/p3/xv6-sp20/kernel/spinlock.c:74
  104951:	83 7d fc 00          	cmpl   $0x0,-0x4(%ebp)
  104955:	74 53                	je     1049aa <getcallerpcs+0x71>
/u/s/h/shirui/private/cs537/p3a/p3/xv6-sp20/kernel/spinlock.c:74 (discriminator 1)
  104957:	81 7d fc ff ff 0f 00 	cmpl   $0xfffff,-0x4(%ebp)
  10495e:	76 4a                	jbe    1049aa <getcallerpcs+0x71>
/u/s/h/shirui/private/cs537/p3a/p3/xv6-sp20/kernel/spinlock.c:74 (discriminator 2)
  104960:	83 7d fc ff          	cmpl   $0xffffffff,-0x4(%ebp)
  104964:	74 44                	je     1049aa <getcallerpcs+0x71>
/u/s/h/shirui/private/cs537/p3a/p3/xv6-sp20/kernel/spinlock.c:76 (discriminator 2)
  104966:	8b 45 f8             	mov    -0x8(%ebp),%eax
  104969:	8d 14 85 00 00 00 00 	lea    0x0(,%eax,4),%edx
  104970:	8b 45 0c             	mov    0xc(%ebp),%eax
  104973:	01 c2                	add    %eax,%edx
  104975:	8b 45 fc             	mov    -0x4(%ebp),%eax
  104978:	8b 40 04             	mov    0x4(%eax),%eax
  10497b:	89 02                	mov    %eax,(%edx)
/u/s/h/shirui/private/cs537/p3a/p3/xv6-sp20/kernel/spinlock.c:77 (discriminator 2)
  10497d:	8b 45 fc             	mov    -0x4(%ebp),%eax
  104980:	8b 00                	mov    (%eax),%eax
  104982:	89 45 fc             	mov    %eax,-0x4(%ebp)
/u/s/h/shirui/private/cs537/p3a/p3/xv6-sp20/kernel/spinlock.c:73 (discriminator 2)
  104985:	83 45 f8 01          	addl   $0x1,-0x8(%ebp)
/u/s/h/shirui/private/cs537/p3a/p3/xv6-sp20/kernel/spinlock.c:73 (discriminator 1)
  104989:	83 7d f8 09          	cmpl   $0x9,-0x8(%ebp)
  10498d:	7e c2                	jle    104951 <getcallerpcs+0x18>
/u/s/h/shirui/private/cs537/p3a/p3/xv6-sp20/kernel/spinlock.c:79
  10498f:	eb 19                	jmp    1049aa <getcallerpcs+0x71>
/u/s/h/shirui/private/cs537/p3a/p3/xv6-sp20/kernel/spinlock.c:80 (discriminator 2)
  104991:	8b 45 f8             	mov    -0x8(%ebp),%eax
  104994:	8d 14 85 00 00 00 00 	lea    0x0(,%eax,4),%edx
  10499b:	8b 45 0c             	mov    0xc(%ebp),%eax
  10499e:	01 d0                	add    %edx,%eax
  1049a0:	c7 00 00 00 00 00    	movl   $0x0,(%eax)
/u/s/h/shirui/private/cs537/p3a/p3/xv6-sp20/kernel/spinlock.c:79 (discriminator 2)
  1049a6:	83 45 f8 01          	addl   $0x1,-0x8(%ebp)
/u/s/h/shirui/private/cs537/p3a/p3/xv6-sp20/kernel/spinlock.c:79 (discriminator 1)
  1049aa:	83 7d f8 09          	cmpl   $0x9,-0x8(%ebp)
  1049ae:	7e e1                	jle    104991 <getcallerpcs+0x58>
/u/s/h/shirui/private/cs537/p3a/p3/xv6-sp20/kernel/spinlock.c:81
  1049b0:	90                   	nop
  1049b1:	c9                   	leave  
  1049b2:	c3                   	ret    

001049b3 <holding>:
holding():
/u/s/h/shirui/private/cs537/p3a/p3/xv6-sp20/kernel/spinlock.c:86
  1049b3:	55                   	push   %ebp
  1049b4:	89 e5                	mov    %esp,%ebp
/u/s/h/shirui/private/cs537/p3a/p3/xv6-sp20/kernel/spinlock.c:87
  1049b6:	8b 45 08             	mov    0x8(%ebp),%eax
  1049b9:	8b 00                	mov    (%eax),%eax
  1049bb:	85 c0                	test   %eax,%eax
  1049bd:	74 17                	je     1049d6 <holding+0x23>
/u/s/h/shirui/private/cs537/p3a/p3/xv6-sp20/kernel/spinlock.c:87 (discriminator 1)
  1049bf:	8b 45 08             	mov    0x8(%ebp),%eax
  1049c2:	8b 50 08             	mov    0x8(%eax),%edx
  1049c5:	65 a1 00 00 00 00    	mov    %gs:0x0,%eax
  1049cb:	39 c2                	cmp    %eax,%edx
  1049cd:	75 07                	jne    1049d6 <holding+0x23>
/u/s/h/shirui/private/cs537/p3a/p3/xv6-sp20/kernel/spinlock.c:87 (discriminator 3)
  1049cf:	b8 01 00 00 00       	mov    $0x1,%eax
  1049d4:	eb 05                	jmp    1049db <holding+0x28>
/u/s/h/shirui/private/cs537/p3a/p3/xv6-sp20/kernel/spinlock.c:87 (discriminator 4)
  1049d6:	b8 00 00 00 00       	mov    $0x0,%eax
/u/s/h/shirui/private/cs537/p3a/p3/xv6-sp20/kernel/spinlock.c:88 (discriminator 7)
  1049db:	5d                   	pop    %ebp
  1049dc:	c3                   	ret    

001049dd <pushcli>:
pushcli():
/u/s/h/shirui/private/cs537/p3a/p3/xv6-sp20/kernel/spinlock.c:97
  1049dd:	55                   	push   %ebp
  1049de:	89 e5                	mov    %esp,%ebp
  1049e0:	83 ec 10             	sub    $0x10,%esp
/u/s/h/shirui/private/cs537/p3a/p3/xv6-sp20/kernel/spinlock.c:100
  1049e3:	e8 3e fe ff ff       	call   104826 <readeflags>
  1049e8:	89 45 fc             	mov    %eax,-0x4(%ebp)
/u/s/h/shirui/private/cs537/p3a/p3/xv6-sp20/kernel/spinlock.c:101
  1049eb:	e8 46 fe ff ff       	call   104836 <cli>
/u/s/h/shirui/private/cs537/p3a/p3/xv6-sp20/kernel/spinlock.c:102
  1049f0:	65 8b 15 00 00 00 00 	mov    %gs:0x0,%edx
  1049f7:	8b 82 ac 00 00 00    	mov    0xac(%edx),%eax
  1049fd:	8d 48 01             	lea    0x1(%eax),%ecx
  104a00:	89 8a ac 00 00 00    	mov    %ecx,0xac(%edx)
  104a06:	85 c0                	test   %eax,%eax
  104a08:	75 15                	jne    104a1f <pushcli+0x42>
/u/s/h/shirui/private/cs537/p3a/p3/xv6-sp20/kernel/spinlock.c:103
  104a0a:	65 a1 00 00 00 00    	mov    %gs:0x0,%eax
  104a10:	8b 55 fc             	mov    -0x4(%ebp),%edx
  104a13:	81 e2 00 02 00 00    	and    $0x200,%edx
  104a19:	89 90 b0 00 00 00    	mov    %edx,0xb0(%eax)
/u/s/h/shirui/private/cs537/p3a/p3/xv6-sp20/kernel/spinlock.c:104
  104a1f:	90                   	nop
  104a20:	c9                   	leave  
  104a21:	c3                   	ret    

00104a22 <popcli>:
popcli():
/u/s/h/shirui/private/cs537/p3a/p3/xv6-sp20/kernel/spinlock.c:108
  104a22:	55                   	push   %ebp
  104a23:	89 e5                	mov    %esp,%ebp
  104a25:	83 ec 08             	sub    $0x8,%esp
/u/s/h/shirui/private/cs537/p3a/p3/xv6-sp20/kernel/spinlock.c:109
  104a28:	e8 f9 fd ff ff       	call   104826 <readeflags>
  104a2d:	25 00 02 00 00       	and    $0x200,%eax
  104a32:	85 c0                	test   %eax,%eax
  104a34:	74 0d                	je     104a43 <popcli+0x21>
/u/s/h/shirui/private/cs537/p3a/p3/xv6-sp20/kernel/spinlock.c:110
  104a36:	83 ec 0c             	sub    $0xc,%esp
  104a39:	68 a9 82 10 00       	push   $0x1082a9
  104a3e:	e8 35 bb ff ff       	call   100578 <panic>
/u/s/h/shirui/private/cs537/p3a/p3/xv6-sp20/kernel/spinlock.c:111
  104a43:	65 a1 00 00 00 00    	mov    %gs:0x0,%eax
  104a49:	8b 90 ac 00 00 00    	mov    0xac(%eax),%edx
  104a4f:	83 ea 01             	sub    $0x1,%edx
  104a52:	89 90 ac 00 00 00    	mov    %edx,0xac(%eax)
  104a58:	8b 80 ac 00 00 00    	mov    0xac(%eax),%eax
  104a5e:	85 c0                	test   %eax,%eax
  104a60:	79 0d                	jns    104a6f <popcli+0x4d>
/u/s/h/shirui/private/cs537/p3a/p3/xv6-sp20/kernel/spinlock.c:112
  104a62:	83 ec 0c             	sub    $0xc,%esp
  104a65:	68 c0 82 10 00       	push   $0x1082c0
  104a6a:	e8 09 bb ff ff       	call   100578 <panic>
/u/s/h/shirui/private/cs537/p3a/p3/xv6-sp20/kernel/spinlock.c:113
  104a6f:	65 a1 00 00 00 00    	mov    %gs:0x0,%eax
  104a75:	8b 80 ac 00 00 00    	mov    0xac(%eax),%eax
  104a7b:	85 c0                	test   %eax,%eax
  104a7d:	75 15                	jne    104a94 <popcli+0x72>
/u/s/h/shirui/private/cs537/p3a/p3/xv6-sp20/kernel/spinlock.c:113 (discriminator 1)
  104a7f:	65 a1 00 00 00 00    	mov    %gs:0x0,%eax
  104a85:	8b 80 b0 00 00 00    	mov    0xb0(%eax),%eax
  104a8b:	85 c0                	test   %eax,%eax
  104a8d:	74 05                	je     104a94 <popcli+0x72>
/u/s/h/shirui/private/cs537/p3a/p3/xv6-sp20/kernel/spinlock.c:114
  104a8f:	e8 a9 fd ff ff       	call   10483d <sti>
/u/s/h/shirui/private/cs537/p3a/p3/xv6-sp20/kernel/spinlock.c:115
  104a94:	90                   	nop
  104a95:	c9                   	leave  
  104a96:	c3                   	ret    

00104a97 <stosb>:
stosb():
/u/s/h/shirui/private/cs537/p3a/p3/xv6-sp20/include/x86.h:46
  104a97:	55                   	push   %ebp
  104a98:	89 e5                	mov    %esp,%ebp
  104a9a:	57                   	push   %edi
  104a9b:	53                   	push   %ebx
/u/s/h/shirui/private/cs537/p3a/p3/xv6-sp20/include/x86.h:47
  104a9c:	8b 4d 08             	mov    0x8(%ebp),%ecx
  104a9f:	8b 55 10             	mov    0x10(%ebp),%edx
  104aa2:	8b 45 0c             	mov    0xc(%ebp),%eax
  104aa5:	89 cb                	mov    %ecx,%ebx
  104aa7:	89 df                	mov    %ebx,%edi
  104aa9:	89 d1                	mov    %edx,%ecx
  104aab:	fc                   	cld    
  104aac:	f3 aa                	rep stos %al,%es:(%edi)
  104aae:	89 ca                	mov    %ecx,%edx
  104ab0:	89 fb                	mov    %edi,%ebx
  104ab2:	89 5d 08             	mov    %ebx,0x8(%ebp)
  104ab5:	89 55 10             	mov    %edx,0x10(%ebp)
/u/s/h/shirui/private/cs537/p3a/p3/xv6-sp20/include/x86.h:51
  104ab8:	90                   	nop
  104ab9:	5b                   	pop    %ebx
  104aba:	5f                   	pop    %edi
  104abb:	5d                   	pop    %ebp
  104abc:	c3                   	ret    

00104abd <memset>:
memset():
/u/s/h/shirui/private/cs537/p3a/p3/xv6-sp20/kernel/string.c:6
  104abd:	55                   	push   %ebp
  104abe:	89 e5                	mov    %esp,%ebp
/u/s/h/shirui/private/cs537/p3a/p3/xv6-sp20/kernel/string.c:7
  104ac0:	8b 45 10             	mov    0x10(%ebp),%eax
  104ac3:	50                   	push   %eax
  104ac4:	ff 75 0c             	pushl  0xc(%ebp)
  104ac7:	ff 75 08             	pushl  0x8(%ebp)
  104aca:	e8 c8 ff ff ff       	call   104a97 <stosb>
  104acf:	83 c4 0c             	add    $0xc,%esp
/u/s/h/shirui/private/cs537/p3a/p3/xv6-sp20/kernel/string.c:8
  104ad2:	8b 45 08             	mov    0x8(%ebp),%eax
/u/s/h/shirui/private/cs537/p3a/p3/xv6-sp20/kernel/string.c:9
  104ad5:	c9                   	leave  
  104ad6:	c3                   	ret    

00104ad7 <memcmp>:
memcmp():
/u/s/h/shirui/private/cs537/p3a/p3/xv6-sp20/kernel/string.c:13
  104ad7:	55                   	push   %ebp
  104ad8:	89 e5                	mov    %esp,%ebp
  104ada:	83 ec 10             	sub    $0x10,%esp
/u/s/h/shirui/private/cs537/p3a/p3/xv6-sp20/kernel/string.c:16
  104add:	8b 45 08             	mov    0x8(%ebp),%eax
  104ae0:	89 45 fc             	mov    %eax,-0x4(%ebp)
/u/s/h/shirui/private/cs537/p3a/p3/xv6-sp20/kernel/string.c:17
  104ae3:	8b 45 0c             	mov    0xc(%ebp),%eax
  104ae6:	89 45 f8             	mov    %eax,-0x8(%ebp)
/u/s/h/shirui/private/cs537/p3a/p3/xv6-sp20/kernel/string.c:18
  104ae9:	eb 30                	jmp    104b1b <memcmp+0x44>
/u/s/h/shirui/private/cs537/p3a/p3/xv6-sp20/kernel/string.c:19
  104aeb:	8b 45 fc             	mov    -0x4(%ebp),%eax
  104aee:	0f b6 10             	movzbl (%eax),%edx
  104af1:	8b 45 f8             	mov    -0x8(%ebp),%eax
  104af4:	0f b6 00             	movzbl (%eax),%eax
  104af7:	38 c2                	cmp    %al,%dl
  104af9:	74 18                	je     104b13 <memcmp+0x3c>
/u/s/h/shirui/private/cs537/p3a/p3/xv6-sp20/kernel/string.c:20
  104afb:	8b 45 fc             	mov    -0x4(%ebp),%eax
  104afe:	0f b6 00             	movzbl (%eax),%eax
  104b01:	0f b6 d0             	movzbl %al,%edx
  104b04:	8b 45 f8             	mov    -0x8(%ebp),%eax
  104b07:	0f b6 00             	movzbl (%eax),%eax
  104b0a:	0f b6 c0             	movzbl %al,%eax
  104b0d:	29 c2                	sub    %eax,%edx
  104b0f:	89 d0                	mov    %edx,%eax
  104b11:	eb 1a                	jmp    104b2d <memcmp+0x56>
/u/s/h/shirui/private/cs537/p3a/p3/xv6-sp20/kernel/string.c:21
  104b13:	83 45 fc 01          	addl   $0x1,-0x4(%ebp)
  104b17:	83 45 f8 01          	addl   $0x1,-0x8(%ebp)
/u/s/h/shirui/private/cs537/p3a/p3/xv6-sp20/kernel/string.c:18
  104b1b:	8b 45 10             	mov    0x10(%ebp),%eax
  104b1e:	8d 50 ff             	lea    -0x1(%eax),%edx
  104b21:	89 55 10             	mov    %edx,0x10(%ebp)
  104b24:	85 c0                	test   %eax,%eax
  104b26:	75 c3                	jne    104aeb <memcmp+0x14>
/u/s/h/shirui/private/cs537/p3a/p3/xv6-sp20/kernel/string.c:24
  104b28:	b8 00 00 00 00       	mov    $0x0,%eax
/u/s/h/shirui/private/cs537/p3a/p3/xv6-sp20/kernel/string.c:25
  104b2d:	c9                   	leave  
  104b2e:	c3                   	ret    

00104b2f <memmove>:
memmove():
/u/s/h/shirui/private/cs537/p3a/p3/xv6-sp20/kernel/string.c:29
  104b2f:	55                   	push   %ebp
  104b30:	89 e5                	mov    %esp,%ebp
  104b32:	83 ec 10             	sub    $0x10,%esp
/u/s/h/shirui/private/cs537/p3a/p3/xv6-sp20/kernel/string.c:33
  104b35:	8b 45 0c             	mov    0xc(%ebp),%eax
  104b38:	89 45 fc             	mov    %eax,-0x4(%ebp)
/u/s/h/shirui/private/cs537/p3a/p3/xv6-sp20/kernel/string.c:34
  104b3b:	8b 45 08             	mov    0x8(%ebp),%eax
  104b3e:	89 45 f8             	mov    %eax,-0x8(%ebp)
/u/s/h/shirui/private/cs537/p3a/p3/xv6-sp20/kernel/string.c:35
  104b41:	8b 45 fc             	mov    -0x4(%ebp),%eax
  104b44:	3b 45 f8             	cmp    -0x8(%ebp),%eax
  104b47:	73 54                	jae    104b9d <memmove+0x6e>
/u/s/h/shirui/private/cs537/p3a/p3/xv6-sp20/kernel/string.c:35 (discriminator 1)
  104b49:	8b 55 fc             	mov    -0x4(%ebp),%edx
  104b4c:	8b 45 10             	mov    0x10(%ebp),%eax
  104b4f:	01 d0                	add    %edx,%eax
  104b51:	39 45 f8             	cmp    %eax,-0x8(%ebp)
  104b54:	73 47                	jae    104b9d <memmove+0x6e>
/u/s/h/shirui/private/cs537/p3a/p3/xv6-sp20/kernel/string.c:36
  104b56:	8b 45 10             	mov    0x10(%ebp),%eax
  104b59:	01 45 fc             	add    %eax,-0x4(%ebp)
/u/s/h/shirui/private/cs537/p3a/p3/xv6-sp20/kernel/string.c:37
  104b5c:	8b 45 10             	mov    0x10(%ebp),%eax
  104b5f:	01 45 f8             	add    %eax,-0x8(%ebp)
/u/s/h/shirui/private/cs537/p3a/p3/xv6-sp20/kernel/string.c:38
  104b62:	eb 13                	jmp    104b77 <memmove+0x48>
/u/s/h/shirui/private/cs537/p3a/p3/xv6-sp20/kernel/string.c:39
  104b64:	83 6d fc 01          	subl   $0x1,-0x4(%ebp)
  104b68:	83 6d f8 01          	subl   $0x1,-0x8(%ebp)
  104b6c:	8b 45 fc             	mov    -0x4(%ebp),%eax
  104b6f:	0f b6 10             	movzbl (%eax),%edx
  104b72:	8b 45 f8             	mov    -0x8(%ebp),%eax
  104b75:	88 10                	mov    %dl,(%eax)
/u/s/h/shirui/private/cs537/p3a/p3/xv6-sp20/kernel/string.c:38
  104b77:	8b 45 10             	mov    0x10(%ebp),%eax
  104b7a:	8d 50 ff             	lea    -0x1(%eax),%edx
  104b7d:	89 55 10             	mov    %edx,0x10(%ebp)
  104b80:	85 c0                	test   %eax,%eax
  104b82:	75 e0                	jne    104b64 <memmove+0x35>
/u/s/h/shirui/private/cs537/p3a/p3/xv6-sp20/kernel/string.c:35
  104b84:	eb 24                	jmp    104baa <memmove+0x7b>
/u/s/h/shirui/private/cs537/p3a/p3/xv6-sp20/kernel/string.c:42
  104b86:	8b 55 fc             	mov    -0x4(%ebp),%edx
  104b89:	8d 42 01             	lea    0x1(%edx),%eax
  104b8c:	89 45 fc             	mov    %eax,-0x4(%ebp)
  104b8f:	8b 45 f8             	mov    -0x8(%ebp),%eax
  104b92:	8d 48 01             	lea    0x1(%eax),%ecx
  104b95:	89 4d f8             	mov    %ecx,-0x8(%ebp)
  104b98:	0f b6 12             	movzbl (%edx),%edx
  104b9b:	88 10                	mov    %dl,(%eax)
/u/s/h/shirui/private/cs537/p3a/p3/xv6-sp20/kernel/string.c:41
  104b9d:	8b 45 10             	mov    0x10(%ebp),%eax
  104ba0:	8d 50 ff             	lea    -0x1(%eax),%edx
  104ba3:	89 55 10             	mov    %edx,0x10(%ebp)
  104ba6:	85 c0                	test   %eax,%eax
  104ba8:	75 dc                	jne    104b86 <memmove+0x57>
/u/s/h/shirui/private/cs537/p3a/p3/xv6-sp20/kernel/string.c:44
  104baa:	8b 45 08             	mov    0x8(%ebp),%eax
/u/s/h/shirui/private/cs537/p3a/p3/xv6-sp20/kernel/string.c:45
  104bad:	c9                   	leave  
  104bae:	c3                   	ret    

00104baf <memcpy>:
memcpy():
/u/s/h/shirui/private/cs537/p3a/p3/xv6-sp20/kernel/string.c:50
  104baf:	55                   	push   %ebp
  104bb0:	89 e5                	mov    %esp,%ebp
/u/s/h/shirui/private/cs537/p3a/p3/xv6-sp20/kernel/string.c:51
  104bb2:	ff 75 10             	pushl  0x10(%ebp)
  104bb5:	ff 75 0c             	pushl  0xc(%ebp)
  104bb8:	ff 75 08             	pushl  0x8(%ebp)
  104bbb:	e8 6f ff ff ff       	call   104b2f <memmove>
  104bc0:	83 c4 0c             	add    $0xc,%esp
/u/s/h/shirui/private/cs537/p3a/p3/xv6-sp20/kernel/string.c:52
  104bc3:	c9                   	leave  
  104bc4:	c3                   	ret    

00104bc5 <strncmp>:
strncmp():
/u/s/h/shirui/private/cs537/p3a/p3/xv6-sp20/kernel/string.c:56
  104bc5:	55                   	push   %ebp
  104bc6:	89 e5                	mov    %esp,%ebp
/u/s/h/shirui/private/cs537/p3a/p3/xv6-sp20/kernel/string.c:57
  104bc8:	eb 0c                	jmp    104bd6 <strncmp+0x11>
/u/s/h/shirui/private/cs537/p3a/p3/xv6-sp20/kernel/string.c:58
  104bca:	83 6d 10 01          	subl   $0x1,0x10(%ebp)
  104bce:	83 45 08 01          	addl   $0x1,0x8(%ebp)
  104bd2:	83 45 0c 01          	addl   $0x1,0xc(%ebp)
/u/s/h/shirui/private/cs537/p3a/p3/xv6-sp20/kernel/string.c:57
  104bd6:	83 7d 10 00          	cmpl   $0x0,0x10(%ebp)
  104bda:	74 1a                	je     104bf6 <strncmp+0x31>
/u/s/h/shirui/private/cs537/p3a/p3/xv6-sp20/kernel/string.c:57 (discriminator 1)
  104bdc:	8b 45 08             	mov    0x8(%ebp),%eax
  104bdf:	0f b6 00             	movzbl (%eax),%eax
  104be2:	84 c0                	test   %al,%al
  104be4:	74 10                	je     104bf6 <strncmp+0x31>
/u/s/h/shirui/private/cs537/p3a/p3/xv6-sp20/kernel/string.c:57 (discriminator 2)
  104be6:	8b 45 08             	mov    0x8(%ebp),%eax
  104be9:	0f b6 10             	movzbl (%eax),%edx
  104bec:	8b 45 0c             	mov    0xc(%ebp),%eax
  104bef:	0f b6 00             	movzbl (%eax),%eax
  104bf2:	38 c2                	cmp    %al,%dl
  104bf4:	74 d4                	je     104bca <strncmp+0x5>
/u/s/h/shirui/private/cs537/p3a/p3/xv6-sp20/kernel/string.c:59
  104bf6:	83 7d 10 00          	cmpl   $0x0,0x10(%ebp)
  104bfa:	75 07                	jne    104c03 <strncmp+0x3e>
/u/s/h/shirui/private/cs537/p3a/p3/xv6-sp20/kernel/string.c:60
  104bfc:	b8 00 00 00 00       	mov    $0x0,%eax
  104c01:	eb 16                	jmp    104c19 <strncmp+0x54>
/u/s/h/shirui/private/cs537/p3a/p3/xv6-sp20/kernel/string.c:61
  104c03:	8b 45 08             	mov    0x8(%ebp),%eax
  104c06:	0f b6 00             	movzbl (%eax),%eax
  104c09:	0f b6 d0             	movzbl %al,%edx
  104c0c:	8b 45 0c             	mov    0xc(%ebp),%eax
  104c0f:	0f b6 00             	movzbl (%eax),%eax
  104c12:	0f b6 c0             	movzbl %al,%eax
  104c15:	29 c2                	sub    %eax,%edx
  104c17:	89 d0                	mov    %edx,%eax
/u/s/h/shirui/private/cs537/p3a/p3/xv6-sp20/kernel/string.c:62
  104c19:	5d                   	pop    %ebp
  104c1a:	c3                   	ret    

00104c1b <strncpy>:
strncpy():
/u/s/h/shirui/private/cs537/p3a/p3/xv6-sp20/kernel/string.c:66
  104c1b:	55                   	push   %ebp
  104c1c:	89 e5                	mov    %esp,%ebp
  104c1e:	83 ec 10             	sub    $0x10,%esp
/u/s/h/shirui/private/cs537/p3a/p3/xv6-sp20/kernel/string.c:69
  104c21:	8b 45 08             	mov    0x8(%ebp),%eax
  104c24:	89 45 fc             	mov    %eax,-0x4(%ebp)
/u/s/h/shirui/private/cs537/p3a/p3/xv6-sp20/kernel/string.c:70
  104c27:	90                   	nop
/u/s/h/shirui/private/cs537/p3a/p3/xv6-sp20/kernel/string.c:70 (discriminator 2)
  104c28:	8b 45 10             	mov    0x10(%ebp),%eax
  104c2b:	8d 50 ff             	lea    -0x1(%eax),%edx
  104c2e:	89 55 10             	mov    %edx,0x10(%ebp)
  104c31:	85 c0                	test   %eax,%eax
  104c33:	7e 2c                	jle    104c61 <strncpy+0x46>
/u/s/h/shirui/private/cs537/p3a/p3/xv6-sp20/kernel/string.c:70 (discriminator 1)
  104c35:	8b 55 0c             	mov    0xc(%ebp),%edx
  104c38:	8d 42 01             	lea    0x1(%edx),%eax
  104c3b:	89 45 0c             	mov    %eax,0xc(%ebp)
  104c3e:	8b 45 08             	mov    0x8(%ebp),%eax
  104c41:	8d 48 01             	lea    0x1(%eax),%ecx
  104c44:	89 4d 08             	mov    %ecx,0x8(%ebp)
  104c47:	0f b6 12             	movzbl (%edx),%edx
  104c4a:	88 10                	mov    %dl,(%eax)
  104c4c:	0f b6 00             	movzbl (%eax),%eax
  104c4f:	84 c0                	test   %al,%al
  104c51:	75 d5                	jne    104c28 <strncpy+0xd>
/u/s/h/shirui/private/cs537/p3a/p3/xv6-sp20/kernel/string.c:72
  104c53:	eb 0c                	jmp    104c61 <strncpy+0x46>
/u/s/h/shirui/private/cs537/p3a/p3/xv6-sp20/kernel/string.c:73
  104c55:	8b 45 08             	mov    0x8(%ebp),%eax
  104c58:	8d 50 01             	lea    0x1(%eax),%edx
  104c5b:	89 55 08             	mov    %edx,0x8(%ebp)
  104c5e:	c6 00 00             	movb   $0x0,(%eax)
/u/s/h/shirui/private/cs537/p3a/p3/xv6-sp20/kernel/string.c:72
  104c61:	8b 45 10             	mov    0x10(%ebp),%eax
  104c64:	8d 50 ff             	lea    -0x1(%eax),%edx
  104c67:	89 55 10             	mov    %edx,0x10(%ebp)
  104c6a:	85 c0                	test   %eax,%eax
  104c6c:	7f e7                	jg     104c55 <strncpy+0x3a>
/u/s/h/shirui/private/cs537/p3a/p3/xv6-sp20/kernel/string.c:74
  104c6e:	8b 45 fc             	mov    -0x4(%ebp),%eax
/u/s/h/shirui/private/cs537/p3a/p3/xv6-sp20/kernel/string.c:75
  104c71:	c9                   	leave  
  104c72:	c3                   	ret    

00104c73 <safestrcpy>:
safestrcpy():
/u/s/h/shirui/private/cs537/p3a/p3/xv6-sp20/kernel/string.c:80
  104c73:	55                   	push   %ebp
  104c74:	89 e5                	mov    %esp,%ebp
  104c76:	83 ec 10             	sub    $0x10,%esp
/u/s/h/shirui/private/cs537/p3a/p3/xv6-sp20/kernel/string.c:83
  104c79:	8b 45 08             	mov    0x8(%ebp),%eax
  104c7c:	89 45 fc             	mov    %eax,-0x4(%ebp)
/u/s/h/shirui/private/cs537/p3a/p3/xv6-sp20/kernel/string.c:84
  104c7f:	83 7d 10 00          	cmpl   $0x0,0x10(%ebp)
  104c83:	7f 05                	jg     104c8a <safestrcpy+0x17>
/u/s/h/shirui/private/cs537/p3a/p3/xv6-sp20/kernel/string.c:85
  104c85:	8b 45 fc             	mov    -0x4(%ebp),%eax
  104c88:	eb 31                	jmp    104cbb <safestrcpy+0x48>
/u/s/h/shirui/private/cs537/p3a/p3/xv6-sp20/kernel/string.c:86 (discriminator 2)
  104c8a:	83 6d 10 01          	subl   $0x1,0x10(%ebp)
  104c8e:	83 7d 10 00          	cmpl   $0x0,0x10(%ebp)
  104c92:	7e 1e                	jle    104cb2 <safestrcpy+0x3f>
/u/s/h/shirui/private/cs537/p3a/p3/xv6-sp20/kernel/string.c:86 (discriminator 1)
  104c94:	8b 55 0c             	mov    0xc(%ebp),%edx
  104c97:	8d 42 01             	lea    0x1(%edx),%eax
  104c9a:	89 45 0c             	mov    %eax,0xc(%ebp)
  104c9d:	8b 45 08             	mov    0x8(%ebp),%eax
  104ca0:	8d 48 01             	lea    0x1(%eax),%ecx
  104ca3:	89 4d 08             	mov    %ecx,0x8(%ebp)
  104ca6:	0f b6 12             	movzbl (%edx),%edx
  104ca9:	88 10                	mov    %dl,(%eax)
  104cab:	0f b6 00             	movzbl (%eax),%eax
  104cae:	84 c0                	test   %al,%al
  104cb0:	75 d8                	jne    104c8a <safestrcpy+0x17>
/u/s/h/shirui/private/cs537/p3a/p3/xv6-sp20/kernel/string.c:88
  104cb2:	8b 45 08             	mov    0x8(%ebp),%eax
  104cb5:	c6 00 00             	movb   $0x0,(%eax)
/u/s/h/shirui/private/cs537/p3a/p3/xv6-sp20/kernel/string.c:89
  104cb8:	8b 45 fc             	mov    -0x4(%ebp),%eax
/u/s/h/shirui/private/cs537/p3a/p3/xv6-sp20/kernel/string.c:90
  104cbb:	c9                   	leave  
  104cbc:	c3                   	ret    

00104cbd <strlen>:
strlen():
/u/s/h/shirui/private/cs537/p3a/p3/xv6-sp20/kernel/string.c:94
  104cbd:	55                   	push   %ebp
  104cbe:	89 e5                	mov    %esp,%ebp
  104cc0:	83 ec 10             	sub    $0x10,%esp
/u/s/h/shirui/private/cs537/p3a/p3/xv6-sp20/kernel/string.c:97
  104cc3:	c7 45 fc 00 00 00 00 	movl   $0x0,-0x4(%ebp)
  104cca:	eb 04                	jmp    104cd0 <strlen+0x13>
/u/s/h/shirui/private/cs537/p3a/p3/xv6-sp20/kernel/string.c:97 (discriminator 3)
  104ccc:	83 45 fc 01          	addl   $0x1,-0x4(%ebp)
/u/s/h/shirui/private/cs537/p3a/p3/xv6-sp20/kernel/string.c:97 (discriminator 1)
  104cd0:	8b 55 fc             	mov    -0x4(%ebp),%edx
  104cd3:	8b 45 08             	mov    0x8(%ebp),%eax
  104cd6:	01 d0                	add    %edx,%eax
  104cd8:	0f b6 00             	movzbl (%eax),%eax
  104cdb:	84 c0                	test   %al,%al
  104cdd:	75 ed                	jne    104ccc <strlen+0xf>
/u/s/h/shirui/private/cs537/p3a/p3/xv6-sp20/kernel/string.c:99
  104cdf:	8b 45 fc             	mov    -0x4(%ebp),%eax
/u/s/h/shirui/private/cs537/p3a/p3/xv6-sp20/kernel/string.c:100
  104ce2:	c9                   	leave  
  104ce3:	c3                   	ret    

00104ce4 <swtch>:
swtch():
/u/s/h/shirui/private/cs537/p3a/p3/xv6-sp20/kernel/swtch.S:10
  104ce4:	8b 44 24 04          	mov    0x4(%esp),%eax
/u/s/h/shirui/private/cs537/p3a/p3/xv6-sp20/kernel/swtch.S:11
  104ce8:	8b 54 24 08          	mov    0x8(%esp),%edx
/u/s/h/shirui/private/cs537/p3a/p3/xv6-sp20/kernel/swtch.S:14
  104cec:	55                   	push   %ebp
/u/s/h/shirui/private/cs537/p3a/p3/xv6-sp20/kernel/swtch.S:15
  104ced:	53                   	push   %ebx
/u/s/h/shirui/private/cs537/p3a/p3/xv6-sp20/kernel/swtch.S:16
  104cee:	56                   	push   %esi
/u/s/h/shirui/private/cs537/p3a/p3/xv6-sp20/kernel/swtch.S:17
  104cef:	57                   	push   %edi
/u/s/h/shirui/private/cs537/p3a/p3/xv6-sp20/kernel/swtch.S:20
  104cf0:	89 20                	mov    %esp,(%eax)
/u/s/h/shirui/private/cs537/p3a/p3/xv6-sp20/kernel/swtch.S:21
  104cf2:	89 d4                	mov    %edx,%esp
/u/s/h/shirui/private/cs537/p3a/p3/xv6-sp20/kernel/swtch.S:24
  104cf4:	5f                   	pop    %edi
/u/s/h/shirui/private/cs537/p3a/p3/xv6-sp20/kernel/swtch.S:25
  104cf5:	5e                   	pop    %esi
/u/s/h/shirui/private/cs537/p3a/p3/xv6-sp20/kernel/swtch.S:26
  104cf6:	5b                   	pop    %ebx
/u/s/h/shirui/private/cs537/p3a/p3/xv6-sp20/kernel/swtch.S:27
  104cf7:	5d                   	pop    %ebp
/u/s/h/shirui/private/cs537/p3a/p3/xv6-sp20/kernel/swtch.S:28
  104cf8:	c3                   	ret    

00104cf9 <fetchint>:
fetchint():
/u/s/h/shirui/private/cs537/p3a/p3/xv6-sp20/kernel/syscall.c:20
  104cf9:	55                   	push   %ebp
  104cfa:	89 e5                	mov    %esp,%ebp
/u/s/h/shirui/private/cs537/p3a/p3/xv6-sp20/kernel/syscall.c:21
  104cfc:	8b 45 08             	mov    0x8(%ebp),%eax
  104cff:	8b 00                	mov    (%eax),%eax
  104d01:	39 45 0c             	cmp    %eax,0xc(%ebp)
  104d04:	73 0f                	jae    104d15 <fetchint+0x1c>
/u/s/h/shirui/private/cs537/p3a/p3/xv6-sp20/kernel/syscall.c:21 (discriminator 1)
  104d06:	8b 45 0c             	mov    0xc(%ebp),%eax
  104d09:	8d 50 04             	lea    0x4(%eax),%edx
  104d0c:	8b 45 08             	mov    0x8(%ebp),%eax
  104d0f:	8b 00                	mov    (%eax),%eax
  104d11:	39 c2                	cmp    %eax,%edx
  104d13:	76 07                	jbe    104d1c <fetchint+0x23>
/u/s/h/shirui/private/cs537/p3a/p3/xv6-sp20/kernel/syscall.c:22
  104d15:	b8 ff ff ff ff       	mov    $0xffffffff,%eax
  104d1a:	eb 0f                	jmp    104d2b <fetchint+0x32>
/u/s/h/shirui/private/cs537/p3a/p3/xv6-sp20/kernel/syscall.c:23
  104d1c:	8b 45 0c             	mov    0xc(%ebp),%eax
  104d1f:	8b 10                	mov    (%eax),%edx
  104d21:	8b 45 10             	mov    0x10(%ebp),%eax
  104d24:	89 10                	mov    %edx,(%eax)
/u/s/h/shirui/private/cs537/p3a/p3/xv6-sp20/kernel/syscall.c:24
  104d26:	b8 00 00 00 00       	mov    $0x0,%eax
/u/s/h/shirui/private/cs537/p3a/p3/xv6-sp20/kernel/syscall.c:25
  104d2b:	5d                   	pop    %ebp
  104d2c:	c3                   	ret    

00104d2d <fetchstr>:
fetchstr():
/u/s/h/shirui/private/cs537/p3a/p3/xv6-sp20/kernel/syscall.c:32
  104d2d:	55                   	push   %ebp
  104d2e:	89 e5                	mov    %esp,%ebp
  104d30:	83 ec 10             	sub    $0x10,%esp
/u/s/h/shirui/private/cs537/p3a/p3/xv6-sp20/kernel/syscall.c:35
  104d33:	8b 45 08             	mov    0x8(%ebp),%eax
  104d36:	8b 00                	mov    (%eax),%eax
  104d38:	39 45 0c             	cmp    %eax,0xc(%ebp)
  104d3b:	72 07                	jb     104d44 <fetchstr+0x17>
/u/s/h/shirui/private/cs537/p3a/p3/xv6-sp20/kernel/syscall.c:36
  104d3d:	b8 ff ff ff ff       	mov    $0xffffffff,%eax
  104d42:	eb 43                	jmp    104d87 <fetchstr+0x5a>
/u/s/h/shirui/private/cs537/p3a/p3/xv6-sp20/kernel/syscall.c:37
  104d44:	8b 55 0c             	mov    0xc(%ebp),%edx
  104d47:	8b 45 10             	mov    0x10(%ebp),%eax
  104d4a:	89 10                	mov    %edx,(%eax)
/u/s/h/shirui/private/cs537/p3a/p3/xv6-sp20/kernel/syscall.c:38
  104d4c:	8b 45 08             	mov    0x8(%ebp),%eax
  104d4f:	8b 00                	mov    (%eax),%eax
  104d51:	89 45 f8             	mov    %eax,-0x8(%ebp)
/u/s/h/shirui/private/cs537/p3a/p3/xv6-sp20/kernel/syscall.c:39
  104d54:	8b 45 10             	mov    0x10(%ebp),%eax
  104d57:	8b 00                	mov    (%eax),%eax
  104d59:	89 45 fc             	mov    %eax,-0x4(%ebp)
  104d5c:	eb 1c                	jmp    104d7a <fetchstr+0x4d>
/u/s/h/shirui/private/cs537/p3a/p3/xv6-sp20/kernel/syscall.c:40
  104d5e:	8b 45 fc             	mov    -0x4(%ebp),%eax
  104d61:	0f b6 00             	movzbl (%eax),%eax
  104d64:	84 c0                	test   %al,%al
  104d66:	75 0e                	jne    104d76 <fetchstr+0x49>
/u/s/h/shirui/private/cs537/p3a/p3/xv6-sp20/kernel/syscall.c:41
  104d68:	8b 55 fc             	mov    -0x4(%ebp),%edx
  104d6b:	8b 45 10             	mov    0x10(%ebp),%eax
  104d6e:	8b 00                	mov    (%eax),%eax
  104d70:	29 c2                	sub    %eax,%edx
  104d72:	89 d0                	mov    %edx,%eax
  104d74:	eb 11                	jmp    104d87 <fetchstr+0x5a>
/u/s/h/shirui/private/cs537/p3a/p3/xv6-sp20/kernel/syscall.c:39 (discriminator 2)
  104d76:	83 45 fc 01          	addl   $0x1,-0x4(%ebp)
/u/s/h/shirui/private/cs537/p3a/p3/xv6-sp20/kernel/syscall.c:39 (discriminator 1)
  104d7a:	8b 45 fc             	mov    -0x4(%ebp),%eax
  104d7d:	3b 45 f8             	cmp    -0x8(%ebp),%eax
  104d80:	72 dc                	jb     104d5e <fetchstr+0x31>
/u/s/h/shirui/private/cs537/p3a/p3/xv6-sp20/kernel/syscall.c:42
  104d82:	b8 ff ff ff ff       	mov    $0xffffffff,%eax
/u/s/h/shirui/private/cs537/p3a/p3/xv6-sp20/kernel/syscall.c:43
  104d87:	c9                   	leave  
  104d88:	c3                   	ret    

00104d89 <argint>:
argint():
/u/s/h/shirui/private/cs537/p3a/p3/xv6-sp20/kernel/syscall.c:48
  104d89:	55                   	push   %ebp
  104d8a:	89 e5                	mov    %esp,%ebp
/u/s/h/shirui/private/cs537/p3a/p3/xv6-sp20/kernel/syscall.c:49
  104d8c:	65 a1 04 00 00 00    	mov    %gs:0x4,%eax
  104d92:	8b 40 18             	mov    0x18(%eax),%eax
  104d95:	8b 40 44             	mov    0x44(%eax),%eax
  104d98:	8b 55 08             	mov    0x8(%ebp),%edx
  104d9b:	c1 e2 02             	shl    $0x2,%edx
  104d9e:	01 d0                	add    %edx,%eax
  104da0:	8d 50 04             	lea    0x4(%eax),%edx
  104da3:	65 a1 04 00 00 00    	mov    %gs:0x4,%eax
  104da9:	ff 75 0c             	pushl  0xc(%ebp)
  104dac:	52                   	push   %edx
  104dad:	50                   	push   %eax
  104dae:	e8 46 ff ff ff       	call   104cf9 <fetchint>
  104db3:	83 c4 0c             	add    $0xc,%esp
/u/s/h/shirui/private/cs537/p3a/p3/xv6-sp20/kernel/syscall.c:50
  104db6:	c9                   	leave  
  104db7:	c3                   	ret    

00104db8 <argptr>:
argptr():
/u/s/h/shirui/private/cs537/p3a/p3/xv6-sp20/kernel/syscall.c:57
  104db8:	55                   	push   %ebp
  104db9:	89 e5                	mov    %esp,%ebp
  104dbb:	83 ec 10             	sub    $0x10,%esp
/u/s/h/shirui/private/cs537/p3a/p3/xv6-sp20/kernel/syscall.c:60
  104dbe:	8d 45 fc             	lea    -0x4(%ebp),%eax
  104dc1:	50                   	push   %eax
  104dc2:	ff 75 08             	pushl  0x8(%ebp)
  104dc5:	e8 bf ff ff ff       	call   104d89 <argint>
  104dca:	83 c4 08             	add    $0x8,%esp
  104dcd:	85 c0                	test   %eax,%eax
  104dcf:	79 07                	jns    104dd8 <argptr+0x20>
/u/s/h/shirui/private/cs537/p3a/p3/xv6-sp20/kernel/syscall.c:61
  104dd1:	b8 ff ff ff ff       	mov    $0xffffffff,%eax
  104dd6:	eb 3b                	jmp    104e13 <argptr+0x5b>
/u/s/h/shirui/private/cs537/p3a/p3/xv6-sp20/kernel/syscall.c:62
  104dd8:	65 a1 04 00 00 00    	mov    %gs:0x4,%eax
  104dde:	8b 00                	mov    (%eax),%eax
  104de0:	8b 55 fc             	mov    -0x4(%ebp),%edx
  104de3:	39 d0                	cmp    %edx,%eax
  104de5:	76 16                	jbe    104dfd <argptr+0x45>
/u/s/h/shirui/private/cs537/p3a/p3/xv6-sp20/kernel/syscall.c:62 (discriminator 1)
  104de7:	8b 45 fc             	mov    -0x4(%ebp),%eax
  104dea:	89 c2                	mov    %eax,%edx
  104dec:	8b 45 10             	mov    0x10(%ebp),%eax
  104def:	01 c2                	add    %eax,%edx
  104df1:	65 a1 04 00 00 00    	mov    %gs:0x4,%eax
  104df7:	8b 00                	mov    (%eax),%eax
  104df9:	39 c2                	cmp    %eax,%edx
  104dfb:	76 07                	jbe    104e04 <argptr+0x4c>
/u/s/h/shirui/private/cs537/p3a/p3/xv6-sp20/kernel/syscall.c:63
  104dfd:	b8 ff ff ff ff       	mov    $0xffffffff,%eax
  104e02:	eb 0f                	jmp    104e13 <argptr+0x5b>
/u/s/h/shirui/private/cs537/p3a/p3/xv6-sp20/kernel/syscall.c:64
  104e04:	8b 45 fc             	mov    -0x4(%ebp),%eax
  104e07:	89 c2                	mov    %eax,%edx
  104e09:	8b 45 0c             	mov    0xc(%ebp),%eax
  104e0c:	89 10                	mov    %edx,(%eax)
/u/s/h/shirui/private/cs537/p3a/p3/xv6-sp20/kernel/syscall.c:65
  104e0e:	b8 00 00 00 00       	mov    $0x0,%eax
/u/s/h/shirui/private/cs537/p3a/p3/xv6-sp20/kernel/syscall.c:66 (discriminator 1)
  104e13:	c9                   	leave  
  104e14:	c3                   	ret    

00104e15 <argstr>:
argstr():
/u/s/h/shirui/private/cs537/p3a/p3/xv6-sp20/kernel/syscall.c:74
  104e15:	55                   	push   %ebp
  104e16:	89 e5                	mov    %esp,%ebp
  104e18:	83 ec 10             	sub    $0x10,%esp
/u/s/h/shirui/private/cs537/p3a/p3/xv6-sp20/kernel/syscall.c:76
  104e1b:	8d 45 fc             	lea    -0x4(%ebp),%eax
  104e1e:	50                   	push   %eax
  104e1f:	ff 75 08             	pushl  0x8(%ebp)
  104e22:	e8 62 ff ff ff       	call   104d89 <argint>
  104e27:	83 c4 08             	add    $0x8,%esp
  104e2a:	85 c0                	test   %eax,%eax
  104e2c:	79 07                	jns    104e35 <argstr+0x20>
/u/s/h/shirui/private/cs537/p3a/p3/xv6-sp20/kernel/syscall.c:77
  104e2e:	b8 ff ff ff ff       	mov    $0xffffffff,%eax
  104e33:	eb 18                	jmp    104e4d <argstr+0x38>
/u/s/h/shirui/private/cs537/p3a/p3/xv6-sp20/kernel/syscall.c:78
  104e35:	8b 45 fc             	mov    -0x4(%ebp),%eax
  104e38:	89 c2                	mov    %eax,%edx
  104e3a:	65 a1 04 00 00 00    	mov    %gs:0x4,%eax
  104e40:	ff 75 0c             	pushl  0xc(%ebp)
  104e43:	52                   	push   %edx
  104e44:	50                   	push   %eax
  104e45:	e8 e3 fe ff ff       	call   104d2d <fetchstr>
  104e4a:	83 c4 0c             	add    $0xc,%esp
/u/s/h/shirui/private/cs537/p3a/p3/xv6-sp20/kernel/syscall.c:79 (discriminator 1)
  104e4d:	c9                   	leave  
  104e4e:	c3                   	ret    

00104e4f <syscall>:
syscall():
/u/s/h/shirui/private/cs537/p3a/p3/xv6-sp20/kernel/syscall.c:116
  104e4f:	55                   	push   %ebp
  104e50:	89 e5                	mov    %esp,%ebp
  104e52:	83 ec 18             	sub    $0x18,%esp
/u/s/h/shirui/private/cs537/p3a/p3/xv6-sp20/kernel/syscall.c:119
  104e55:	65 a1 04 00 00 00    	mov    %gs:0x4,%eax
  104e5b:	8b 40 18             	mov    0x18(%eax),%eax
  104e5e:	8b 40 1c             	mov    0x1c(%eax),%eax
  104e61:	89 45 f4             	mov    %eax,-0xc(%ebp)
/u/s/h/shirui/private/cs537/p3a/p3/xv6-sp20/kernel/syscall.c:120
  104e64:	83 7d f4 00          	cmpl   $0x0,-0xc(%ebp)
  104e68:	7e 32                	jle    104e9c <syscall+0x4d>
/u/s/h/shirui/private/cs537/p3a/p3/xv6-sp20/kernel/syscall.c:120 (discriminator 1)
  104e6a:	8b 45 f4             	mov    -0xc(%ebp),%eax
  104e6d:	83 f8 18             	cmp    $0x18,%eax
  104e70:	77 2a                	ja     104e9c <syscall+0x4d>
/u/s/h/shirui/private/cs537/p3a/p3/xv6-sp20/kernel/syscall.c:120 (discriminator 2)
  104e72:	8b 45 f4             	mov    -0xc(%ebp),%eax
  104e75:	8b 04 85 60 b5 10 00 	mov    0x10b560(,%eax,4),%eax
  104e7c:	85 c0                	test   %eax,%eax
  104e7e:	74 1c                	je     104e9c <syscall+0x4d>
/u/s/h/shirui/private/cs537/p3a/p3/xv6-sp20/kernel/syscall.c:121
  104e80:	8b 45 f4             	mov    -0xc(%ebp),%eax
  104e83:	8b 04 85 60 b5 10 00 	mov    0x10b560(,%eax,4),%eax
  104e8a:	ff d0                	call   *%eax
  104e8c:	89 c2                	mov    %eax,%edx
  104e8e:	65 a1 04 00 00 00    	mov    %gs:0x4,%eax
  104e94:	8b 40 18             	mov    0x18(%eax),%eax
  104e97:	89 50 1c             	mov    %edx,0x1c(%eax)
  104e9a:	eb 34                	jmp    104ed0 <syscall+0x81>
/u/s/h/shirui/private/cs537/p3a/p3/xv6-sp20/kernel/syscall.c:124
  104e9c:	65 a1 04 00 00 00    	mov    %gs:0x4,%eax
  104ea2:	8d 50 6c             	lea    0x6c(%eax),%edx
  104ea5:	65 a1 04 00 00 00    	mov    %gs:0x4,%eax
/u/s/h/shirui/private/cs537/p3a/p3/xv6-sp20/kernel/syscall.c:123
  104eab:	8b 40 10             	mov    0x10(%eax),%eax
  104eae:	ff 75 f4             	pushl  -0xc(%ebp)
  104eb1:	52                   	push   %edx
  104eb2:	50                   	push   %eax
  104eb3:	68 c7 82 10 00       	push   $0x1082c7
  104eb8:	e8 2f b5 ff ff       	call   1003ec <cprintf>
  104ebd:	83 c4 10             	add    $0x10,%esp
/u/s/h/shirui/private/cs537/p3a/p3/xv6-sp20/kernel/syscall.c:125
  104ec0:	65 a1 04 00 00 00    	mov    %gs:0x4,%eax
  104ec6:	8b 40 18             	mov    0x18(%eax),%eax
  104ec9:	c7 40 1c ff ff ff ff 	movl   $0xffffffff,0x1c(%eax)
/u/s/h/shirui/private/cs537/p3a/p3/xv6-sp20/kernel/syscall.c:127
  104ed0:	90                   	nop
  104ed1:	c9                   	leave  
  104ed2:	c3                   	ret    

00104ed3 <argfd>:
argfd():
/u/s/h/shirui/private/cs537/p3a/p3/xv6-sp20/kernel/sysfile.c:16
  104ed3:	55                   	push   %ebp
  104ed4:	89 e5                	mov    %esp,%ebp
  104ed6:	83 ec 18             	sub    $0x18,%esp
/u/s/h/shirui/private/cs537/p3a/p3/xv6-sp20/kernel/sysfile.c:20
  104ed9:	83 ec 08             	sub    $0x8,%esp
  104edc:	8d 45 f0             	lea    -0x10(%ebp),%eax
  104edf:	50                   	push   %eax
  104ee0:	ff 75 08             	pushl  0x8(%ebp)
  104ee3:	e8 a1 fe ff ff       	call   104d89 <argint>
  104ee8:	83 c4 10             	add    $0x10,%esp
  104eeb:	85 c0                	test   %eax,%eax
  104eed:	79 07                	jns    104ef6 <argfd+0x23>
/u/s/h/shirui/private/cs537/p3a/p3/xv6-sp20/kernel/sysfile.c:21
  104eef:	b8 ff ff ff ff       	mov    $0xffffffff,%eax
  104ef4:	eb 50                	jmp    104f46 <argfd+0x73>
/u/s/h/shirui/private/cs537/p3a/p3/xv6-sp20/kernel/sysfile.c:22
  104ef6:	8b 45 f0             	mov    -0x10(%ebp),%eax
  104ef9:	85 c0                	test   %eax,%eax
  104efb:	78 21                	js     104f1e <argfd+0x4b>
/u/s/h/shirui/private/cs537/p3a/p3/xv6-sp20/kernel/sysfile.c:22 (discriminator 1)
  104efd:	8b 45 f0             	mov    -0x10(%ebp),%eax
  104f00:	83 f8 0f             	cmp    $0xf,%eax
  104f03:	7f 19                	jg     104f1e <argfd+0x4b>
/u/s/h/shirui/private/cs537/p3a/p3/xv6-sp20/kernel/sysfile.c:22 (discriminator 2)
  104f05:	65 a1 04 00 00 00    	mov    %gs:0x4,%eax
  104f0b:	8b 55 f0             	mov    -0x10(%ebp),%edx
  104f0e:	83 c2 08             	add    $0x8,%edx
  104f11:	8b 44 90 08          	mov    0x8(%eax,%edx,4),%eax
  104f15:	89 45 f4             	mov    %eax,-0xc(%ebp)
  104f18:	83 7d f4 00          	cmpl   $0x0,-0xc(%ebp)
  104f1c:	75 07                	jne    104f25 <argfd+0x52>
/u/s/h/shirui/private/cs537/p3a/p3/xv6-sp20/kernel/sysfile.c:23
  104f1e:	b8 ff ff ff ff       	mov    $0xffffffff,%eax
  104f23:	eb 21                	jmp    104f46 <argfd+0x73>
/u/s/h/shirui/private/cs537/p3a/p3/xv6-sp20/kernel/sysfile.c:24
  104f25:	83 7d 0c 00          	cmpl   $0x0,0xc(%ebp)
  104f29:	74 08                	je     104f33 <argfd+0x60>
/u/s/h/shirui/private/cs537/p3a/p3/xv6-sp20/kernel/sysfile.c:25
  104f2b:	8b 55 f0             	mov    -0x10(%ebp),%edx
  104f2e:	8b 45 0c             	mov    0xc(%ebp),%eax
  104f31:	89 10                	mov    %edx,(%eax)
/u/s/h/shirui/private/cs537/p3a/p3/xv6-sp20/kernel/sysfile.c:26
  104f33:	83 7d 10 00          	cmpl   $0x0,0x10(%ebp)
  104f37:	74 08                	je     104f41 <argfd+0x6e>
/u/s/h/shirui/private/cs537/p3a/p3/xv6-sp20/kernel/sysfile.c:27
  104f39:	8b 45 10             	mov    0x10(%ebp),%eax
  104f3c:	8b 55 f4             	mov    -0xc(%ebp),%edx
  104f3f:	89 10                	mov    %edx,(%eax)
/u/s/h/shirui/private/cs537/p3a/p3/xv6-sp20/kernel/sysfile.c:28
  104f41:	b8 00 00 00 00       	mov    $0x0,%eax
/u/s/h/shirui/private/cs537/p3a/p3/xv6-sp20/kernel/sysfile.c:29 (discriminator 1)
  104f46:	c9                   	leave  
  104f47:	c3                   	ret    

00104f48 <fdalloc>:
fdalloc():
/u/s/h/shirui/private/cs537/p3a/p3/xv6-sp20/kernel/sysfile.c:35
  104f48:	55                   	push   %ebp
  104f49:	89 e5                	mov    %esp,%ebp
  104f4b:	83 ec 10             	sub    $0x10,%esp
/u/s/h/shirui/private/cs537/p3a/p3/xv6-sp20/kernel/sysfile.c:38
  104f4e:	c7 45 fc 00 00 00 00 	movl   $0x0,-0x4(%ebp)
  104f55:	eb 30                	jmp    104f87 <fdalloc+0x3f>
/u/s/h/shirui/private/cs537/p3a/p3/xv6-sp20/kernel/sysfile.c:39
  104f57:	65 a1 04 00 00 00    	mov    %gs:0x4,%eax
  104f5d:	8b 55 fc             	mov    -0x4(%ebp),%edx
  104f60:	83 c2 08             	add    $0x8,%edx
  104f63:	8b 44 90 08          	mov    0x8(%eax,%edx,4),%eax
  104f67:	85 c0                	test   %eax,%eax
  104f69:	75 18                	jne    104f83 <fdalloc+0x3b>
/u/s/h/shirui/private/cs537/p3a/p3/xv6-sp20/kernel/sysfile.c:40
  104f6b:	65 a1 04 00 00 00    	mov    %gs:0x4,%eax
  104f71:	8b 55 fc             	mov    -0x4(%ebp),%edx
  104f74:	8d 4a 08             	lea    0x8(%edx),%ecx
  104f77:	8b 55 08             	mov    0x8(%ebp),%edx
  104f7a:	89 54 88 08          	mov    %edx,0x8(%eax,%ecx,4)
/u/s/h/shirui/private/cs537/p3a/p3/xv6-sp20/kernel/sysfile.c:41
  104f7e:	8b 45 fc             	mov    -0x4(%ebp),%eax
  104f81:	eb 0f                	jmp    104f92 <fdalloc+0x4a>
/u/s/h/shirui/private/cs537/p3a/p3/xv6-sp20/kernel/sysfile.c:38 (discriminator 2)
  104f83:	83 45 fc 01          	addl   $0x1,-0x4(%ebp)
/u/s/h/shirui/private/cs537/p3a/p3/xv6-sp20/kernel/sysfile.c:38 (discriminator 1)
  104f87:	83 7d fc 0f          	cmpl   $0xf,-0x4(%ebp)
  104f8b:	7e ca                	jle    104f57 <fdalloc+0xf>
/u/s/h/shirui/private/cs537/p3a/p3/xv6-sp20/kernel/sysfile.c:44
  104f8d:	b8 ff ff ff ff       	mov    $0xffffffff,%eax
/u/s/h/shirui/private/cs537/p3a/p3/xv6-sp20/kernel/sysfile.c:45
  104f92:	c9                   	leave  
  104f93:	c3                   	ret    

00104f94 <sys_dup>:
sys_dup():
/u/s/h/shirui/private/cs537/p3a/p3/xv6-sp20/kernel/sysfile.c:49
  104f94:	55                   	push   %ebp
  104f95:	89 e5                	mov    %esp,%ebp
  104f97:	83 ec 18             	sub    $0x18,%esp
/u/s/h/shirui/private/cs537/p3a/p3/xv6-sp20/kernel/sysfile.c:53
  104f9a:	83 ec 04             	sub    $0x4,%esp
  104f9d:	8d 45 f0             	lea    -0x10(%ebp),%eax
  104fa0:	50                   	push   %eax
  104fa1:	6a 00                	push   $0x0
  104fa3:	6a 00                	push   $0x0
  104fa5:	e8 29 ff ff ff       	call   104ed3 <argfd>
  104faa:	83 c4 10             	add    $0x10,%esp
  104fad:	85 c0                	test   %eax,%eax
  104faf:	79 07                	jns    104fb8 <sys_dup+0x24>
/u/s/h/shirui/private/cs537/p3a/p3/xv6-sp20/kernel/sysfile.c:54
  104fb1:	b8 ff ff ff ff       	mov    $0xffffffff,%eax
  104fb6:	eb 31                	jmp    104fe9 <sys_dup+0x55>
/u/s/h/shirui/private/cs537/p3a/p3/xv6-sp20/kernel/sysfile.c:55
  104fb8:	8b 45 f0             	mov    -0x10(%ebp),%eax
  104fbb:	83 ec 0c             	sub    $0xc,%esp
  104fbe:	50                   	push   %eax
  104fbf:	e8 84 ff ff ff       	call   104f48 <fdalloc>
  104fc4:	83 c4 10             	add    $0x10,%esp
  104fc7:	89 45 f4             	mov    %eax,-0xc(%ebp)
  104fca:	83 7d f4 00          	cmpl   $0x0,-0xc(%ebp)
  104fce:	79 07                	jns    104fd7 <sys_dup+0x43>
/u/s/h/shirui/private/cs537/p3a/p3/xv6-sp20/kernel/sysfile.c:56
  104fd0:	b8 ff ff ff ff       	mov    $0xffffffff,%eax
  104fd5:	eb 12                	jmp    104fe9 <sys_dup+0x55>
/u/s/h/shirui/private/cs537/p3a/p3/xv6-sp20/kernel/sysfile.c:57
  104fd7:	8b 45 f0             	mov    -0x10(%ebp),%eax
  104fda:	83 ec 0c             	sub    $0xc,%esp
  104fdd:	50                   	push   %eax
  104fde:	e8 eb bf ff ff       	call   100fce <filedup>
  104fe3:	83 c4 10             	add    $0x10,%esp
/u/s/h/shirui/private/cs537/p3a/p3/xv6-sp20/kernel/sysfile.c:58
  104fe6:	8b 45 f4             	mov    -0xc(%ebp),%eax
/u/s/h/shirui/private/cs537/p3a/p3/xv6-sp20/kernel/sysfile.c:59 (discriminator 1)
  104fe9:	c9                   	leave  
  104fea:	c3                   	ret    

00104feb <sys_read>:
sys_read():
/u/s/h/shirui/private/cs537/p3a/p3/xv6-sp20/kernel/sysfile.c:63
  104feb:	55                   	push   %ebp
  104fec:	89 e5                	mov    %esp,%ebp
  104fee:	83 ec 18             	sub    $0x18,%esp
/u/s/h/shirui/private/cs537/p3a/p3/xv6-sp20/kernel/sysfile.c:68
  104ff1:	83 ec 04             	sub    $0x4,%esp
  104ff4:	8d 45 f4             	lea    -0xc(%ebp),%eax
  104ff7:	50                   	push   %eax
  104ff8:	6a 00                	push   $0x0
  104ffa:	6a 00                	push   $0x0
  104ffc:	e8 d2 fe ff ff       	call   104ed3 <argfd>
  105001:	83 c4 10             	add    $0x10,%esp
  105004:	85 c0                	test   %eax,%eax
  105006:	78 2e                	js     105036 <sys_read+0x4b>
/u/s/h/shirui/private/cs537/p3a/p3/xv6-sp20/kernel/sysfile.c:68 (discriminator 1)
  105008:	83 ec 08             	sub    $0x8,%esp
  10500b:	8d 45 f0             	lea    -0x10(%ebp),%eax
  10500e:	50                   	push   %eax
  10500f:	6a 02                	push   $0x2
  105011:	e8 73 fd ff ff       	call   104d89 <argint>
  105016:	83 c4 10             	add    $0x10,%esp
  105019:	85 c0                	test   %eax,%eax
  10501b:	78 19                	js     105036 <sys_read+0x4b>
/u/s/h/shirui/private/cs537/p3a/p3/xv6-sp20/kernel/sysfile.c:68 (discriminator 2)
  10501d:	8b 45 f0             	mov    -0x10(%ebp),%eax
  105020:	83 ec 04             	sub    $0x4,%esp
  105023:	50                   	push   %eax
  105024:	8d 45 ec             	lea    -0x14(%ebp),%eax
  105027:	50                   	push   %eax
  105028:	6a 01                	push   $0x1
  10502a:	e8 89 fd ff ff       	call   104db8 <argptr>
  10502f:	83 c4 10             	add    $0x10,%esp
  105032:	85 c0                	test   %eax,%eax
  105034:	79 07                	jns    10503d <sys_read+0x52>
/u/s/h/shirui/private/cs537/p3a/p3/xv6-sp20/kernel/sysfile.c:69
  105036:	b8 ff ff ff ff       	mov    $0xffffffff,%eax
  10503b:	eb 17                	jmp    105054 <sys_read+0x69>
/u/s/h/shirui/private/cs537/p3a/p3/xv6-sp20/kernel/sysfile.c:70
  10503d:	8b 4d f0             	mov    -0x10(%ebp),%ecx
  105040:	8b 55 ec             	mov    -0x14(%ebp),%edx
  105043:	8b 45 f4             	mov    -0xc(%ebp),%eax
  105046:	83 ec 04             	sub    $0x4,%esp
  105049:	51                   	push   %ecx
  10504a:	52                   	push   %edx
  10504b:	50                   	push   %eax
  10504c:	e8 03 c1 ff ff       	call   101154 <fileread>
  105051:	83 c4 10             	add    $0x10,%esp
/u/s/h/shirui/private/cs537/p3a/p3/xv6-sp20/kernel/sysfile.c:71 (discriminator 1)
  105054:	c9                   	leave  
  105055:	c3                   	ret    

00105056 <sys_write>:
sys_write():
/u/s/h/shirui/private/cs537/p3a/p3/xv6-sp20/kernel/sysfile.c:75
  105056:	55                   	push   %ebp
  105057:	89 e5                	mov    %esp,%ebp
  105059:	83 ec 18             	sub    $0x18,%esp
/u/s/h/shirui/private/cs537/p3a/p3/xv6-sp20/kernel/sysfile.c:80
  10505c:	83 ec 04             	sub    $0x4,%esp
  10505f:	8d 45 f4             	lea    -0xc(%ebp),%eax
  105062:	50                   	push   %eax
  105063:	6a 00                	push   $0x0
  105065:	6a 00                	push   $0x0
  105067:	e8 67 fe ff ff       	call   104ed3 <argfd>
  10506c:	83 c4 10             	add    $0x10,%esp
  10506f:	85 c0                	test   %eax,%eax
  105071:	78 2e                	js     1050a1 <sys_write+0x4b>
/u/s/h/shirui/private/cs537/p3a/p3/xv6-sp20/kernel/sysfile.c:80 (discriminator 1)
  105073:	83 ec 08             	sub    $0x8,%esp
  105076:	8d 45 f0             	lea    -0x10(%ebp),%eax
  105079:	50                   	push   %eax
  10507a:	6a 02                	push   $0x2
  10507c:	e8 08 fd ff ff       	call   104d89 <argint>
  105081:	83 c4 10             	add    $0x10,%esp
  105084:	85 c0                	test   %eax,%eax
  105086:	78 19                	js     1050a1 <sys_write+0x4b>
/u/s/h/shirui/private/cs537/p3a/p3/xv6-sp20/kernel/sysfile.c:80 (discriminator 2)
  105088:	8b 45 f0             	mov    -0x10(%ebp),%eax
  10508b:	83 ec 04             	sub    $0x4,%esp
  10508e:	50                   	push   %eax
  10508f:	8d 45 ec             	lea    -0x14(%ebp),%eax
  105092:	50                   	push   %eax
  105093:	6a 01                	push   $0x1
  105095:	e8 1e fd ff ff       	call   104db8 <argptr>
  10509a:	83 c4 10             	add    $0x10,%esp
  10509d:	85 c0                	test   %eax,%eax
  10509f:	79 07                	jns    1050a8 <sys_write+0x52>
/u/s/h/shirui/private/cs537/p3a/p3/xv6-sp20/kernel/sysfile.c:81
  1050a1:	b8 ff ff ff ff       	mov    $0xffffffff,%eax
  1050a6:	eb 17                	jmp    1050bf <sys_write+0x69>
/u/s/h/shirui/private/cs537/p3a/p3/xv6-sp20/kernel/sysfile.c:82
  1050a8:	8b 4d f0             	mov    -0x10(%ebp),%ecx
  1050ab:	8b 55 ec             	mov    -0x14(%ebp),%edx
  1050ae:	8b 45 f4             	mov    -0xc(%ebp),%eax
  1050b1:	83 ec 04             	sub    $0x4,%esp
  1050b4:	51                   	push   %ecx
  1050b5:	52                   	push   %edx
  1050b6:	50                   	push   %eax
  1050b7:	e8 50 c1 ff ff       	call   10120c <filewrite>
  1050bc:	83 c4 10             	add    $0x10,%esp
/u/s/h/shirui/private/cs537/p3a/p3/xv6-sp20/kernel/sysfile.c:83 (discriminator 1)
  1050bf:	c9                   	leave  
  1050c0:	c3                   	ret    

001050c1 <sys_close>:
sys_close():
/u/s/h/shirui/private/cs537/p3a/p3/xv6-sp20/kernel/sysfile.c:87
  1050c1:	55                   	push   %ebp
  1050c2:	89 e5                	mov    %esp,%ebp
  1050c4:	83 ec 18             	sub    $0x18,%esp
/u/s/h/shirui/private/cs537/p3a/p3/xv6-sp20/kernel/sysfile.c:91
  1050c7:	83 ec 04             	sub    $0x4,%esp
  1050ca:	8d 45 f0             	lea    -0x10(%ebp),%eax
  1050cd:	50                   	push   %eax
  1050ce:	8d 45 f4             	lea    -0xc(%ebp),%eax
  1050d1:	50                   	push   %eax
  1050d2:	6a 00                	push   $0x0
  1050d4:	e8 fa fd ff ff       	call   104ed3 <argfd>
  1050d9:	83 c4 10             	add    $0x10,%esp
  1050dc:	85 c0                	test   %eax,%eax
  1050de:	79 07                	jns    1050e7 <sys_close+0x26>
/u/s/h/shirui/private/cs537/p3a/p3/xv6-sp20/kernel/sysfile.c:92
  1050e0:	b8 ff ff ff ff       	mov    $0xffffffff,%eax
  1050e5:	eb 28                	jmp    10510f <sys_close+0x4e>
/u/s/h/shirui/private/cs537/p3a/p3/xv6-sp20/kernel/sysfile.c:93
  1050e7:	65 a1 04 00 00 00    	mov    %gs:0x4,%eax
  1050ed:	8b 55 f4             	mov    -0xc(%ebp),%edx
  1050f0:	83 c2 08             	add    $0x8,%edx
  1050f3:	c7 44 90 08 00 00 00 	movl   $0x0,0x8(%eax,%edx,4)
  1050fa:	00 
/u/s/h/shirui/private/cs537/p3a/p3/xv6-sp20/kernel/sysfile.c:94
  1050fb:	8b 45 f0             	mov    -0x10(%ebp),%eax
  1050fe:	83 ec 0c             	sub    $0xc,%esp
  105101:	50                   	push   %eax
  105102:	e8 18 bf ff ff       	call   10101f <fileclose>
  105107:	83 c4 10             	add    $0x10,%esp
/u/s/h/shirui/private/cs537/p3a/p3/xv6-sp20/kernel/sysfile.c:95
  10510a:	b8 00 00 00 00       	mov    $0x0,%eax
/u/s/h/shirui/private/cs537/p3a/p3/xv6-sp20/kernel/sysfile.c:96 (discriminator 1)
  10510f:	c9                   	leave  
  105110:	c3                   	ret    

00105111 <sys_fstat>:
sys_fstat():
/u/s/h/shirui/private/cs537/p3a/p3/xv6-sp20/kernel/sysfile.c:100
  105111:	55                   	push   %ebp
  105112:	89 e5                	mov    %esp,%ebp
  105114:	83 ec 18             	sub    $0x18,%esp
/u/s/h/shirui/private/cs537/p3a/p3/xv6-sp20/kernel/sysfile.c:104
  105117:	83 ec 04             	sub    $0x4,%esp
  10511a:	8d 45 f4             	lea    -0xc(%ebp),%eax
  10511d:	50                   	push   %eax
  10511e:	6a 00                	push   $0x0
  105120:	6a 00                	push   $0x0
  105122:	e8 ac fd ff ff       	call   104ed3 <argfd>
  105127:	83 c4 10             	add    $0x10,%esp
  10512a:	85 c0                	test   %eax,%eax
  10512c:	78 17                	js     105145 <sys_fstat+0x34>
/u/s/h/shirui/private/cs537/p3a/p3/xv6-sp20/kernel/sysfile.c:104 (discriminator 1)
  10512e:	83 ec 04             	sub    $0x4,%esp
  105131:	6a 14                	push   $0x14
  105133:	8d 45 f0             	lea    -0x10(%ebp),%eax
  105136:	50                   	push   %eax
  105137:	6a 01                	push   $0x1
  105139:	e8 7a fc ff ff       	call   104db8 <argptr>
  10513e:	83 c4 10             	add    $0x10,%esp
  105141:	85 c0                	test   %eax,%eax
  105143:	79 07                	jns    10514c <sys_fstat+0x3b>
/u/s/h/shirui/private/cs537/p3a/p3/xv6-sp20/kernel/sysfile.c:105
  105145:	b8 ff ff ff ff       	mov    $0xffffffff,%eax
  10514a:	eb 13                	jmp    10515f <sys_fstat+0x4e>
/u/s/h/shirui/private/cs537/p3a/p3/xv6-sp20/kernel/sysfile.c:106
  10514c:	8b 55 f0             	mov    -0x10(%ebp),%edx
  10514f:	8b 45 f4             	mov    -0xc(%ebp),%eax
  105152:	83 ec 08             	sub    $0x8,%esp
  105155:	52                   	push   %edx
  105156:	50                   	push   %eax
  105157:	e8 a1 bf ff ff       	call   1010fd <filestat>
  10515c:	83 c4 10             	add    $0x10,%esp
/u/s/h/shirui/private/cs537/p3a/p3/xv6-sp20/kernel/sysfile.c:107 (discriminator 1)
  10515f:	c9                   	leave  
  105160:	c3                   	ret    

00105161 <sys_link>:
sys_link():
/u/s/h/shirui/private/cs537/p3a/p3/xv6-sp20/kernel/sysfile.c:112
  105161:	55                   	push   %ebp
  105162:	89 e5                	mov    %esp,%ebp
  105164:	83 ec 28             	sub    $0x28,%esp
/u/s/h/shirui/private/cs537/p3a/p3/xv6-sp20/kernel/sysfile.c:116
  105167:	83 ec 08             	sub    $0x8,%esp
  10516a:	8d 45 d8             	lea    -0x28(%ebp),%eax
  10516d:	50                   	push   %eax
  10516e:	6a 00                	push   $0x0
  105170:	e8 a0 fc ff ff       	call   104e15 <argstr>
  105175:	83 c4 10             	add    $0x10,%esp
  105178:	85 c0                	test   %eax,%eax
  10517a:	78 15                	js     105191 <sys_link+0x30>
/u/s/h/shirui/private/cs537/p3a/p3/xv6-sp20/kernel/sysfile.c:116 (discriminator 1)
  10517c:	83 ec 08             	sub    $0x8,%esp
  10517f:	8d 45 dc             	lea    -0x24(%ebp),%eax
  105182:	50                   	push   %eax
  105183:	6a 01                	push   $0x1
  105185:	e8 8b fc ff ff       	call   104e15 <argstr>
  10518a:	83 c4 10             	add    $0x10,%esp
  10518d:	85 c0                	test   %eax,%eax
  10518f:	79 0a                	jns    10519b <sys_link+0x3a>
/u/s/h/shirui/private/cs537/p3a/p3/xv6-sp20/kernel/sysfile.c:117
  105191:	b8 ff ff ff ff       	mov    $0xffffffff,%eax
  105196:	e9 4f 01 00 00       	jmp    1052ea <sys_link+0x189>
/u/s/h/shirui/private/cs537/p3a/p3/xv6-sp20/kernel/sysfile.c:118
  10519b:	8b 45 d8             	mov    -0x28(%ebp),%eax
  10519e:	83 ec 0c             	sub    $0xc,%esp
  1051a1:	50                   	push   %eax
  1051a2:	e8 be d2 ff ff       	call   102465 <namei>
  1051a7:	83 c4 10             	add    $0x10,%esp
  1051aa:	89 45 f4             	mov    %eax,-0xc(%ebp)
  1051ad:	83 7d f4 00          	cmpl   $0x0,-0xc(%ebp)
  1051b1:	75 0a                	jne    1051bd <sys_link+0x5c>
/u/s/h/shirui/private/cs537/p3a/p3/xv6-sp20/kernel/sysfile.c:119
  1051b3:	b8 ff ff ff ff       	mov    $0xffffffff,%eax
  1051b8:	e9 2d 01 00 00       	jmp    1052ea <sys_link+0x189>
/u/s/h/shirui/private/cs537/p3a/p3/xv6-sp20/kernel/sysfile.c:120
  1051bd:	83 ec 0c             	sub    $0xc,%esp
  1051c0:	ff 75 f4             	pushl  -0xc(%ebp)
  1051c3:	e8 87 c6 ff ff       	call   10184f <ilock>
  1051c8:	83 c4 10             	add    $0x10,%esp
/u/s/h/shirui/private/cs537/p3a/p3/xv6-sp20/kernel/sysfile.c:121
  1051cb:	8b 45 f4             	mov    -0xc(%ebp),%eax
  1051ce:	0f b7 40 10          	movzwl 0x10(%eax),%eax
  1051d2:	66 83 f8 01          	cmp    $0x1,%ax
  1051d6:	75 18                	jne    1051f0 <sys_link+0x8f>
/u/s/h/shirui/private/cs537/p3a/p3/xv6-sp20/kernel/sysfile.c:122
  1051d8:	83 ec 0c             	sub    $0xc,%esp
  1051db:	ff 75 f4             	pushl  -0xc(%ebp)
  1051de:	e8 26 c9 ff ff       	call   101b09 <iunlockput>
  1051e3:	83 c4 10             	add    $0x10,%esp
/u/s/h/shirui/private/cs537/p3a/p3/xv6-sp20/kernel/sysfile.c:123
  1051e6:	b8 ff ff ff ff       	mov    $0xffffffff,%eax
  1051eb:	e9 fa 00 00 00       	jmp    1052ea <sys_link+0x189>
/u/s/h/shirui/private/cs537/p3a/p3/xv6-sp20/kernel/sysfile.c:125
  1051f0:	8b 45 f4             	mov    -0xc(%ebp),%eax
  1051f3:	0f b7 40 16          	movzwl 0x16(%eax),%eax
  1051f7:	83 c0 01             	add    $0x1,%eax
  1051fa:	89 c2                	mov    %eax,%edx
  1051fc:	8b 45 f4             	mov    -0xc(%ebp),%eax
  1051ff:	66 89 50 16          	mov    %dx,0x16(%eax)
/u/s/h/shirui/private/cs537/p3a/p3/xv6-sp20/kernel/sysfile.c:126
  105203:	83 ec 0c             	sub    $0xc,%esp
  105206:	ff 75 f4             	pushl  -0xc(%ebp)
  105209:	e8 6d c4 ff ff       	call   10167b <iupdate>
  10520e:	83 c4 10             	add    $0x10,%esp
/u/s/h/shirui/private/cs537/p3a/p3/xv6-sp20/kernel/sysfile.c:127
  105211:	83 ec 0c             	sub    $0xc,%esp
  105214:	ff 75 f4             	pushl  -0xc(%ebp)
  105217:	e8 8b c7 ff ff       	call   1019a7 <iunlock>
  10521c:	83 c4 10             	add    $0x10,%esp
/u/s/h/shirui/private/cs537/p3a/p3/xv6-sp20/kernel/sysfile.c:129
  10521f:	8b 45 dc             	mov    -0x24(%ebp),%eax
  105222:	83 ec 08             	sub    $0x8,%esp
  105225:	8d 55 e2             	lea    -0x1e(%ebp),%edx
  105228:	52                   	push   %edx
  105229:	50                   	push   %eax
  10522a:	e8 52 d2 ff ff       	call   102481 <nameiparent>
  10522f:	83 c4 10             	add    $0x10,%esp
  105232:	89 45 f0             	mov    %eax,-0x10(%ebp)
  105235:	83 7d f0 00          	cmpl   $0x0,-0x10(%ebp)
  105239:	74 6c                	je     1052a7 <sys_link+0x146>
/u/s/h/shirui/private/cs537/p3a/p3/xv6-sp20/kernel/sysfile.c:131
  10523b:	83 ec 0c             	sub    $0xc,%esp
  10523e:	ff 75 f0             	pushl  -0x10(%ebp)
  105241:	e8 09 c6 ff ff       	call   10184f <ilock>
  105246:	83 c4 10             	add    $0x10,%esp
/u/s/h/shirui/private/cs537/p3a/p3/xv6-sp20/kernel/sysfile.c:132
  105249:	8b 45 f0             	mov    -0x10(%ebp),%eax
  10524c:	8b 10                	mov    (%eax),%edx
  10524e:	8b 45 f4             	mov    -0xc(%ebp),%eax
  105251:	8b 00                	mov    (%eax),%eax
  105253:	39 c2                	cmp    %eax,%edx
  105255:	75 1d                	jne    105274 <sys_link+0x113>
/u/s/h/shirui/private/cs537/p3a/p3/xv6-sp20/kernel/sysfile.c:132 (discriminator 1)
  105257:	8b 45 f4             	mov    -0xc(%ebp),%eax
  10525a:	8b 40 04             	mov    0x4(%eax),%eax
  10525d:	83 ec 04             	sub    $0x4,%esp
  105260:	50                   	push   %eax
  105261:	8d 45 e2             	lea    -0x1e(%ebp),%eax
  105264:	50                   	push   %eax
  105265:	ff 75 f0             	pushl  -0x10(%ebp)
  105268:	e8 5c cf ff ff       	call   1021c9 <dirlink>
  10526d:	83 c4 10             	add    $0x10,%esp
  105270:	85 c0                	test   %eax,%eax
  105272:	79 10                	jns    105284 <sys_link+0x123>
/u/s/h/shirui/private/cs537/p3a/p3/xv6-sp20/kernel/sysfile.c:133
  105274:	83 ec 0c             	sub    $0xc,%esp
  105277:	ff 75 f0             	pushl  -0x10(%ebp)
  10527a:	e8 8a c8 ff ff       	call   101b09 <iunlockput>
  10527f:	83 c4 10             	add    $0x10,%esp
/u/s/h/shirui/private/cs537/p3a/p3/xv6-sp20/kernel/sysfile.c:134
  105282:	eb 24                	jmp    1052a8 <sys_link+0x147>
/u/s/h/shirui/private/cs537/p3a/p3/xv6-sp20/kernel/sysfile.c:136
  105284:	83 ec 0c             	sub    $0xc,%esp
  105287:	ff 75 f0             	pushl  -0x10(%ebp)
  10528a:	e8 7a c8 ff ff       	call   101b09 <iunlockput>
  10528f:	83 c4 10             	add    $0x10,%esp
/u/s/h/shirui/private/cs537/p3a/p3/xv6-sp20/kernel/sysfile.c:137
  105292:	83 ec 0c             	sub    $0xc,%esp
  105295:	ff 75 f4             	pushl  -0xc(%ebp)
  105298:	e8 7c c7 ff ff       	call   101a19 <iput>
  10529d:	83 c4 10             	add    $0x10,%esp
/u/s/h/shirui/private/cs537/p3a/p3/xv6-sp20/kernel/sysfile.c:138
  1052a0:	b8 00 00 00 00       	mov    $0x0,%eax
  1052a5:	eb 43                	jmp    1052ea <sys_link+0x189>
/u/s/h/shirui/private/cs537/p3a/p3/xv6-sp20/kernel/sysfile.c:130
  1052a7:	90                   	nop
/u/s/h/shirui/private/cs537/p3a/p3/xv6-sp20/kernel/sysfile.c:141
  1052a8:	83 ec 0c             	sub    $0xc,%esp
  1052ab:	ff 75 f4             	pushl  -0xc(%ebp)
  1052ae:	e8 9c c5 ff ff       	call   10184f <ilock>
  1052b3:	83 c4 10             	add    $0x10,%esp
/u/s/h/shirui/private/cs537/p3a/p3/xv6-sp20/kernel/sysfile.c:142
  1052b6:	8b 45 f4             	mov    -0xc(%ebp),%eax
  1052b9:	0f b7 40 16          	movzwl 0x16(%eax),%eax
  1052bd:	83 e8 01             	sub    $0x1,%eax
  1052c0:	89 c2                	mov    %eax,%edx
  1052c2:	8b 45 f4             	mov    -0xc(%ebp),%eax
  1052c5:	66 89 50 16          	mov    %dx,0x16(%eax)
/u/s/h/shirui/private/cs537/p3a/p3/xv6-sp20/kernel/sysfile.c:143
  1052c9:	83 ec 0c             	sub    $0xc,%esp
  1052cc:	ff 75 f4             	pushl  -0xc(%ebp)
  1052cf:	e8 a7 c3 ff ff       	call   10167b <iupdate>
  1052d4:	83 c4 10             	add    $0x10,%esp
/u/s/h/shirui/private/cs537/p3a/p3/xv6-sp20/kernel/sysfile.c:144
  1052d7:	83 ec 0c             	sub    $0xc,%esp
  1052da:	ff 75 f4             	pushl  -0xc(%ebp)
  1052dd:	e8 27 c8 ff ff       	call   101b09 <iunlockput>
  1052e2:	83 c4 10             	add    $0x10,%esp
/u/s/h/shirui/private/cs537/p3a/p3/xv6-sp20/kernel/sysfile.c:145
  1052e5:	b8 ff ff ff ff       	mov    $0xffffffff,%eax
/u/s/h/shirui/private/cs537/p3a/p3/xv6-sp20/kernel/sysfile.c:146 (discriminator 1)
  1052ea:	c9                   	leave  
  1052eb:	c3                   	ret    

001052ec <isdirempty>:
isdirempty():
/u/s/h/shirui/private/cs537/p3a/p3/xv6-sp20/kernel/sysfile.c:151
  1052ec:	55                   	push   %ebp
  1052ed:	89 e5                	mov    %esp,%ebp
  1052ef:	83 ec 28             	sub    $0x28,%esp
/u/s/h/shirui/private/cs537/p3a/p3/xv6-sp20/kernel/sysfile.c:155
  1052f2:	c7 45 f4 20 00 00 00 	movl   $0x20,-0xc(%ebp)
  1052f9:	eb 40                	jmp    10533b <isdirempty+0x4f>
/u/s/h/shirui/private/cs537/p3a/p3/xv6-sp20/kernel/sysfile.c:156
  1052fb:	8b 45 f4             	mov    -0xc(%ebp),%eax
  1052fe:	6a 10                	push   $0x10
  105300:	50                   	push   %eax
  105301:	8d 45 e4             	lea    -0x1c(%ebp),%eax
  105304:	50                   	push   %eax
  105305:	ff 75 08             	pushl  0x8(%ebp)
  105308:	e8 a5 ca ff ff       	call   101db2 <readi>
  10530d:	83 c4 10             	add    $0x10,%esp
  105310:	83 f8 10             	cmp    $0x10,%eax
  105313:	74 0d                	je     105322 <isdirempty+0x36>
/u/s/h/shirui/private/cs537/p3a/p3/xv6-sp20/kernel/sysfile.c:157
  105315:	83 ec 0c             	sub    $0xc,%esp
  105318:	68 e3 82 10 00       	push   $0x1082e3
  10531d:	e8 56 b2 ff ff       	call   100578 <panic>
/u/s/h/shirui/private/cs537/p3a/p3/xv6-sp20/kernel/sysfile.c:158
  105322:	0f b7 45 e4          	movzwl -0x1c(%ebp),%eax
  105326:	66 85 c0             	test   %ax,%ax
  105329:	74 07                	je     105332 <isdirempty+0x46>
/u/s/h/shirui/private/cs537/p3a/p3/xv6-sp20/kernel/sysfile.c:159
  10532b:	b8 00 00 00 00       	mov    $0x0,%eax
  105330:	eb 1b                	jmp    10534d <isdirempty+0x61>
/u/s/h/shirui/private/cs537/p3a/p3/xv6-sp20/kernel/sysfile.c:155 (discriminator 2)
  105332:	8b 45 f4             	mov    -0xc(%ebp),%eax
  105335:	83 c0 10             	add    $0x10,%eax
  105338:	89 45 f4             	mov    %eax,-0xc(%ebp)
/u/s/h/shirui/private/cs537/p3a/p3/xv6-sp20/kernel/sysfile.c:155 (discriminator 1)
  10533b:	8b 45 08             	mov    0x8(%ebp),%eax
  10533e:	8b 50 18             	mov    0x18(%eax),%edx
  105341:	8b 45 f4             	mov    -0xc(%ebp),%eax
  105344:	39 c2                	cmp    %eax,%edx
  105346:	77 b3                	ja     1052fb <isdirempty+0xf>
/u/s/h/shirui/private/cs537/p3a/p3/xv6-sp20/kernel/sysfile.c:161
  105348:	b8 01 00 00 00       	mov    $0x1,%eax
/u/s/h/shirui/private/cs537/p3a/p3/xv6-sp20/kernel/sysfile.c:162 (discriminator 1)
  10534d:	c9                   	leave  
  10534e:	c3                   	ret    

0010534f <sys_unlink>:
sys_unlink():
/u/s/h/shirui/private/cs537/p3a/p3/xv6-sp20/kernel/sysfile.c:166
  10534f:	55                   	push   %ebp
  105350:	89 e5                	mov    %esp,%ebp
  105352:	83 ec 38             	sub    $0x38,%esp
/u/s/h/shirui/private/cs537/p3a/p3/xv6-sp20/kernel/sysfile.c:172
  105355:	83 ec 08             	sub    $0x8,%esp
  105358:	8d 45 cc             	lea    -0x34(%ebp),%eax
  10535b:	50                   	push   %eax
  10535c:	6a 00                	push   $0x0
  10535e:	e8 b2 fa ff ff       	call   104e15 <argstr>
  105363:	83 c4 10             	add    $0x10,%esp
  105366:	85 c0                	test   %eax,%eax
  105368:	79 0a                	jns    105374 <sys_unlink+0x25>
/u/s/h/shirui/private/cs537/p3a/p3/xv6-sp20/kernel/sysfile.c:173
  10536a:	b8 ff ff ff ff       	mov    $0xffffffff,%eax
  10536f:	e9 c9 01 00 00       	jmp    10553d <sys_unlink+0x1ee>
/u/s/h/shirui/private/cs537/p3a/p3/xv6-sp20/kernel/sysfile.c:174
  105374:	8b 45 cc             	mov    -0x34(%ebp),%eax
  105377:	83 ec 08             	sub    $0x8,%esp
  10537a:	8d 55 d2             	lea    -0x2e(%ebp),%edx
  10537d:	52                   	push   %edx
  10537e:	50                   	push   %eax
  10537f:	e8 fd d0 ff ff       	call   102481 <nameiparent>
  105384:	83 c4 10             	add    $0x10,%esp
  105387:	89 45 f4             	mov    %eax,-0xc(%ebp)
  10538a:	83 7d f4 00          	cmpl   $0x0,-0xc(%ebp)
  10538e:	75 0a                	jne    10539a <sys_unlink+0x4b>
/u/s/h/shirui/private/cs537/p3a/p3/xv6-sp20/kernel/sysfile.c:175
  105390:	b8 ff ff ff ff       	mov    $0xffffffff,%eax
  105395:	e9 a3 01 00 00       	jmp    10553d <sys_unlink+0x1ee>
/u/s/h/shirui/private/cs537/p3a/p3/xv6-sp20/kernel/sysfile.c:176
  10539a:	83 ec 0c             	sub    $0xc,%esp
  10539d:	ff 75 f4             	pushl  -0xc(%ebp)
  1053a0:	e8 aa c4 ff ff       	call   10184f <ilock>
  1053a5:	83 c4 10             	add    $0x10,%esp
/u/s/h/shirui/private/cs537/p3a/p3/xv6-sp20/kernel/sysfile.c:179
  1053a8:	83 ec 08             	sub    $0x8,%esp
  1053ab:	68 f5 82 10 00       	push   $0x1082f5
  1053b0:	8d 45 d2             	lea    -0x2e(%ebp),%eax
  1053b3:	50                   	push   %eax
  1053b4:	e8 d9 cc ff ff       	call   102092 <namecmp>
  1053b9:	83 c4 10             	add    $0x10,%esp
  1053bc:	85 c0                	test   %eax,%eax
  1053be:	74 18                	je     1053d8 <sys_unlink+0x89>
/u/s/h/shirui/private/cs537/p3a/p3/xv6-sp20/kernel/sysfile.c:179 (discriminator 1)
  1053c0:	83 ec 08             	sub    $0x8,%esp
  1053c3:	68 f7 82 10 00       	push   $0x1082f7
  1053c8:	8d 45 d2             	lea    -0x2e(%ebp),%eax
  1053cb:	50                   	push   %eax
  1053cc:	e8 c1 cc ff ff       	call   102092 <namecmp>
  1053d1:	83 c4 10             	add    $0x10,%esp
  1053d4:	85 c0                	test   %eax,%eax
  1053d6:	75 18                	jne    1053f0 <sys_unlink+0xa1>
/u/s/h/shirui/private/cs537/p3a/p3/xv6-sp20/kernel/sysfile.c:180
  1053d8:	83 ec 0c             	sub    $0xc,%esp
  1053db:	ff 75 f4             	pushl  -0xc(%ebp)
  1053de:	e8 26 c7 ff ff       	call   101b09 <iunlockput>
  1053e3:	83 c4 10             	add    $0x10,%esp
/u/s/h/shirui/private/cs537/p3a/p3/xv6-sp20/kernel/sysfile.c:181
  1053e6:	b8 ff ff ff ff       	mov    $0xffffffff,%eax
  1053eb:	e9 4d 01 00 00       	jmp    10553d <sys_unlink+0x1ee>
/u/s/h/shirui/private/cs537/p3a/p3/xv6-sp20/kernel/sysfile.c:184
  1053f0:	83 ec 04             	sub    $0x4,%esp
  1053f3:	8d 45 c8             	lea    -0x38(%ebp),%eax
  1053f6:	50                   	push   %eax
  1053f7:	8d 45 d2             	lea    -0x2e(%ebp),%eax
  1053fa:	50                   	push   %eax
  1053fb:	ff 75 f4             	pushl  -0xc(%ebp)
  1053fe:	e8 aa cc ff ff       	call   1020ad <dirlookup>
  105403:	83 c4 10             	add    $0x10,%esp
  105406:	89 45 f0             	mov    %eax,-0x10(%ebp)
  105409:	83 7d f0 00          	cmpl   $0x0,-0x10(%ebp)
  10540d:	75 18                	jne    105427 <sys_unlink+0xd8>
/u/s/h/shirui/private/cs537/p3a/p3/xv6-sp20/kernel/sysfile.c:185
  10540f:	83 ec 0c             	sub    $0xc,%esp
  105412:	ff 75 f4             	pushl  -0xc(%ebp)
  105415:	e8 ef c6 ff ff       	call   101b09 <iunlockput>
  10541a:	83 c4 10             	add    $0x10,%esp
/u/s/h/shirui/private/cs537/p3a/p3/xv6-sp20/kernel/sysfile.c:186
  10541d:	b8 ff ff ff ff       	mov    $0xffffffff,%eax
  105422:	e9 16 01 00 00       	jmp    10553d <sys_unlink+0x1ee>
/u/s/h/shirui/private/cs537/p3a/p3/xv6-sp20/kernel/sysfile.c:188
  105427:	83 ec 0c             	sub    $0xc,%esp
  10542a:	ff 75 f0             	pushl  -0x10(%ebp)
  10542d:	e8 1d c4 ff ff       	call   10184f <ilock>
  105432:	83 c4 10             	add    $0x10,%esp
/u/s/h/shirui/private/cs537/p3a/p3/xv6-sp20/kernel/sysfile.c:190
  105435:	8b 45 f0             	mov    -0x10(%ebp),%eax
  105438:	0f b7 40 16          	movzwl 0x16(%eax),%eax
  10543c:	66 85 c0             	test   %ax,%ax
  10543f:	7f 0d                	jg     10544e <sys_unlink+0xff>
/u/s/h/shirui/private/cs537/p3a/p3/xv6-sp20/kernel/sysfile.c:191
  105441:	83 ec 0c             	sub    $0xc,%esp
  105444:	68 fa 82 10 00       	push   $0x1082fa
  105449:	e8 2a b1 ff ff       	call   100578 <panic>
/u/s/h/shirui/private/cs537/p3a/p3/xv6-sp20/kernel/sysfile.c:192
  10544e:	8b 45 f0             	mov    -0x10(%ebp),%eax
  105451:	0f b7 40 10          	movzwl 0x10(%eax),%eax
  105455:	66 83 f8 01          	cmp    $0x1,%ax
  105459:	75 38                	jne    105493 <sys_unlink+0x144>
/u/s/h/shirui/private/cs537/p3a/p3/xv6-sp20/kernel/sysfile.c:192 (discriminator 1)
  10545b:	83 ec 0c             	sub    $0xc,%esp
  10545e:	ff 75 f0             	pushl  -0x10(%ebp)
  105461:	e8 86 fe ff ff       	call   1052ec <isdirempty>
  105466:	83 c4 10             	add    $0x10,%esp
  105469:	85 c0                	test   %eax,%eax
  10546b:	75 26                	jne    105493 <sys_unlink+0x144>
/u/s/h/shirui/private/cs537/p3a/p3/xv6-sp20/kernel/sysfile.c:193
  10546d:	83 ec 0c             	sub    $0xc,%esp
  105470:	ff 75 f0             	pushl  -0x10(%ebp)
  105473:	e8 91 c6 ff ff       	call   101b09 <iunlockput>
  105478:	83 c4 10             	add    $0x10,%esp
/u/s/h/shirui/private/cs537/p3a/p3/xv6-sp20/kernel/sysfile.c:194
  10547b:	83 ec 0c             	sub    $0xc,%esp
  10547e:	ff 75 f4             	pushl  -0xc(%ebp)
  105481:	e8 83 c6 ff ff       	call   101b09 <iunlockput>
  105486:	83 c4 10             	add    $0x10,%esp
/u/s/h/shirui/private/cs537/p3a/p3/xv6-sp20/kernel/sysfile.c:195
  105489:	b8 ff ff ff ff       	mov    $0xffffffff,%eax
  10548e:	e9 aa 00 00 00       	jmp    10553d <sys_unlink+0x1ee>
/u/s/h/shirui/private/cs537/p3a/p3/xv6-sp20/kernel/sysfile.c:198
  105493:	83 ec 04             	sub    $0x4,%esp
  105496:	6a 10                	push   $0x10
  105498:	6a 00                	push   $0x0
  10549a:	8d 45 e0             	lea    -0x20(%ebp),%eax
  10549d:	50                   	push   %eax
  10549e:	e8 1a f6 ff ff       	call   104abd <memset>
  1054a3:	83 c4 10             	add    $0x10,%esp
/u/s/h/shirui/private/cs537/p3a/p3/xv6-sp20/kernel/sysfile.c:199
  1054a6:	8b 45 c8             	mov    -0x38(%ebp),%eax
  1054a9:	6a 10                	push   $0x10
  1054ab:	50                   	push   %eax
  1054ac:	8d 45 e0             	lea    -0x20(%ebp),%eax
  1054af:	50                   	push   %eax
  1054b0:	ff 75 f4             	pushl  -0xc(%ebp)
  1054b3:	e8 51 ca ff ff       	call   101f09 <writei>
  1054b8:	83 c4 10             	add    $0x10,%esp
  1054bb:	83 f8 10             	cmp    $0x10,%eax
  1054be:	74 0d                	je     1054cd <sys_unlink+0x17e>
/u/s/h/shirui/private/cs537/p3a/p3/xv6-sp20/kernel/sysfile.c:200
  1054c0:	83 ec 0c             	sub    $0xc,%esp
  1054c3:	68 0c 83 10 00       	push   $0x10830c
  1054c8:	e8 ab b0 ff ff       	call   100578 <panic>
/u/s/h/shirui/private/cs537/p3a/p3/xv6-sp20/kernel/sysfile.c:201
  1054cd:	8b 45 f0             	mov    -0x10(%ebp),%eax
  1054d0:	0f b7 40 10          	movzwl 0x10(%eax),%eax
  1054d4:	66 83 f8 01          	cmp    $0x1,%ax
  1054d8:	75 21                	jne    1054fb <sys_unlink+0x1ac>
/u/s/h/shirui/private/cs537/p3a/p3/xv6-sp20/kernel/sysfile.c:202
  1054da:	8b 45 f4             	mov    -0xc(%ebp),%eax
  1054dd:	0f b7 40 16          	movzwl 0x16(%eax),%eax
  1054e1:	83 e8 01             	sub    $0x1,%eax
  1054e4:	89 c2                	mov    %eax,%edx
  1054e6:	8b 45 f4             	mov    -0xc(%ebp),%eax
  1054e9:	66 89 50 16          	mov    %dx,0x16(%eax)
/u/s/h/shirui/private/cs537/p3a/p3/xv6-sp20/kernel/sysfile.c:203
  1054ed:	83 ec 0c             	sub    $0xc,%esp
  1054f0:	ff 75 f4             	pushl  -0xc(%ebp)
  1054f3:	e8 83 c1 ff ff       	call   10167b <iupdate>
  1054f8:	83 c4 10             	add    $0x10,%esp
/u/s/h/shirui/private/cs537/p3a/p3/xv6-sp20/kernel/sysfile.c:205
  1054fb:	83 ec 0c             	sub    $0xc,%esp
  1054fe:	ff 75 f4             	pushl  -0xc(%ebp)
  105501:	e8 03 c6 ff ff       	call   101b09 <iunlockput>
  105506:	83 c4 10             	add    $0x10,%esp
/u/s/h/shirui/private/cs537/p3a/p3/xv6-sp20/kernel/sysfile.c:207
  105509:	8b 45 f0             	mov    -0x10(%ebp),%eax
  10550c:	0f b7 40 16          	movzwl 0x16(%eax),%eax
  105510:	83 e8 01             	sub    $0x1,%eax
  105513:	89 c2                	mov    %eax,%edx
  105515:	8b 45 f0             	mov    -0x10(%ebp),%eax
  105518:	66 89 50 16          	mov    %dx,0x16(%eax)
/u/s/h/shirui/private/cs537/p3a/p3/xv6-sp20/kernel/sysfile.c:208
  10551c:	83 ec 0c             	sub    $0xc,%esp
  10551f:	ff 75 f0             	pushl  -0x10(%ebp)
  105522:	e8 54 c1 ff ff       	call   10167b <iupdate>
  105527:	83 c4 10             	add    $0x10,%esp
/u/s/h/shirui/private/cs537/p3a/p3/xv6-sp20/kernel/sysfile.c:209
  10552a:	83 ec 0c             	sub    $0xc,%esp
  10552d:	ff 75 f0             	pushl  -0x10(%ebp)
  105530:	e8 d4 c5 ff ff       	call   101b09 <iunlockput>
  105535:	83 c4 10             	add    $0x10,%esp
/u/s/h/shirui/private/cs537/p3a/p3/xv6-sp20/kernel/sysfile.c:210
  105538:	b8 00 00 00 00       	mov    $0x0,%eax
/u/s/h/shirui/private/cs537/p3a/p3/xv6-sp20/kernel/sysfile.c:211 (discriminator 1)
  10553d:	c9                   	leave  
  10553e:	c3                   	ret    

0010553f <create>:
create():
/u/s/h/shirui/private/cs537/p3a/p3/xv6-sp20/kernel/sysfile.c:215
  10553f:	55                   	push   %ebp
  105540:	89 e5                	mov    %esp,%ebp
  105542:	83 ec 38             	sub    $0x38,%esp
  105545:	8b 4d 0c             	mov    0xc(%ebp),%ecx
  105548:	8b 55 10             	mov    0x10(%ebp),%edx
  10554b:	8b 45 14             	mov    0x14(%ebp),%eax
  10554e:	66 89 4d d4          	mov    %cx,-0x2c(%ebp)
  105552:	66 89 55 d0          	mov    %dx,-0x30(%ebp)
  105556:	66 89 45 cc          	mov    %ax,-0x34(%ebp)
/u/s/h/shirui/private/cs537/p3a/p3/xv6-sp20/kernel/sysfile.c:220
  10555a:	83 ec 08             	sub    $0x8,%esp
  10555d:	8d 45 de             	lea    -0x22(%ebp),%eax
  105560:	50                   	push   %eax
  105561:	ff 75 08             	pushl  0x8(%ebp)
  105564:	e8 18 cf ff ff       	call   102481 <nameiparent>
  105569:	83 c4 10             	add    $0x10,%esp
  10556c:	89 45 f4             	mov    %eax,-0xc(%ebp)
  10556f:	83 7d f4 00          	cmpl   $0x0,-0xc(%ebp)
  105573:	75 0a                	jne    10557f <create+0x40>
/u/s/h/shirui/private/cs537/p3a/p3/xv6-sp20/kernel/sysfile.c:221
  105575:	b8 00 00 00 00       	mov    $0x0,%eax
  10557a:	e9 90 01 00 00       	jmp    10570f <create+0x1d0>
/u/s/h/shirui/private/cs537/p3a/p3/xv6-sp20/kernel/sysfile.c:222
  10557f:	83 ec 0c             	sub    $0xc,%esp
  105582:	ff 75 f4             	pushl  -0xc(%ebp)
  105585:	e8 c5 c2 ff ff       	call   10184f <ilock>
  10558a:	83 c4 10             	add    $0x10,%esp
/u/s/h/shirui/private/cs537/p3a/p3/xv6-sp20/kernel/sysfile.c:224
  10558d:	83 ec 04             	sub    $0x4,%esp
  105590:	8d 45 ec             	lea    -0x14(%ebp),%eax
  105593:	50                   	push   %eax
  105594:	8d 45 de             	lea    -0x22(%ebp),%eax
  105597:	50                   	push   %eax
  105598:	ff 75 f4             	pushl  -0xc(%ebp)
  10559b:	e8 0d cb ff ff       	call   1020ad <dirlookup>
  1055a0:	83 c4 10             	add    $0x10,%esp
  1055a3:	89 45 f0             	mov    %eax,-0x10(%ebp)
  1055a6:	83 7d f0 00          	cmpl   $0x0,-0x10(%ebp)
  1055aa:	74 50                	je     1055fc <create+0xbd>
/u/s/h/shirui/private/cs537/p3a/p3/xv6-sp20/kernel/sysfile.c:225
  1055ac:	83 ec 0c             	sub    $0xc,%esp
  1055af:	ff 75 f4             	pushl  -0xc(%ebp)
  1055b2:	e8 52 c5 ff ff       	call   101b09 <iunlockput>
  1055b7:	83 c4 10             	add    $0x10,%esp
/u/s/h/shirui/private/cs537/p3a/p3/xv6-sp20/kernel/sysfile.c:226
  1055ba:	83 ec 0c             	sub    $0xc,%esp
  1055bd:	ff 75 f0             	pushl  -0x10(%ebp)
  1055c0:	e8 8a c2 ff ff       	call   10184f <ilock>
  1055c5:	83 c4 10             	add    $0x10,%esp
/u/s/h/shirui/private/cs537/p3a/p3/xv6-sp20/kernel/sysfile.c:227
  1055c8:	66 83 7d d4 02       	cmpw   $0x2,-0x2c(%ebp)
  1055cd:	75 15                	jne    1055e4 <create+0xa5>
/u/s/h/shirui/private/cs537/p3a/p3/xv6-sp20/kernel/sysfile.c:227 (discriminator 1)
  1055cf:	8b 45 f0             	mov    -0x10(%ebp),%eax
  1055d2:	0f b7 40 10          	movzwl 0x10(%eax),%eax
  1055d6:	66 83 f8 02          	cmp    $0x2,%ax
  1055da:	75 08                	jne    1055e4 <create+0xa5>
/u/s/h/shirui/private/cs537/p3a/p3/xv6-sp20/kernel/sysfile.c:228
  1055dc:	8b 45 f0             	mov    -0x10(%ebp),%eax
  1055df:	e9 2b 01 00 00       	jmp    10570f <create+0x1d0>
/u/s/h/shirui/private/cs537/p3a/p3/xv6-sp20/kernel/sysfile.c:229
  1055e4:	83 ec 0c             	sub    $0xc,%esp
  1055e7:	ff 75 f0             	pushl  -0x10(%ebp)
  1055ea:	e8 1a c5 ff ff       	call   101b09 <iunlockput>
  1055ef:	83 c4 10             	add    $0x10,%esp
/u/s/h/shirui/private/cs537/p3a/p3/xv6-sp20/kernel/sysfile.c:230
  1055f2:	b8 00 00 00 00       	mov    $0x0,%eax
  1055f7:	e9 13 01 00 00       	jmp    10570f <create+0x1d0>
/u/s/h/shirui/private/cs537/p3a/p3/xv6-sp20/kernel/sysfile.c:233
  1055fc:	0f bf 55 d4          	movswl -0x2c(%ebp),%edx
  105600:	8b 45 f4             	mov    -0xc(%ebp),%eax
  105603:	8b 00                	mov    (%eax),%eax
  105605:	83 ec 08             	sub    $0x8,%esp
  105608:	52                   	push   %edx
  105609:	50                   	push   %eax
  10560a:	e8 8b bf ff ff       	call   10159a <ialloc>
  10560f:	83 c4 10             	add    $0x10,%esp
  105612:	89 45 f0             	mov    %eax,-0x10(%ebp)
  105615:	83 7d f0 00          	cmpl   $0x0,-0x10(%ebp)
  105619:	75 0d                	jne    105628 <create+0xe9>
/u/s/h/shirui/private/cs537/p3a/p3/xv6-sp20/kernel/sysfile.c:234
  10561b:	83 ec 0c             	sub    $0xc,%esp
  10561e:	68 1b 83 10 00       	push   $0x10831b
  105623:	e8 50 af ff ff       	call   100578 <panic>
/u/s/h/shirui/private/cs537/p3a/p3/xv6-sp20/kernel/sysfile.c:236
  105628:	83 ec 0c             	sub    $0xc,%esp
  10562b:	ff 75 f0             	pushl  -0x10(%ebp)
  10562e:	e8 1c c2 ff ff       	call   10184f <ilock>
  105633:	83 c4 10             	add    $0x10,%esp
/u/s/h/shirui/private/cs537/p3a/p3/xv6-sp20/kernel/sysfile.c:237
  105636:	8b 45 f0             	mov    -0x10(%ebp),%eax
  105639:	0f b7 55 d0          	movzwl -0x30(%ebp),%edx
  10563d:	66 89 50 12          	mov    %dx,0x12(%eax)
/u/s/h/shirui/private/cs537/p3a/p3/xv6-sp20/kernel/sysfile.c:238
  105641:	8b 45 f0             	mov    -0x10(%ebp),%eax
  105644:	0f b7 55 cc          	movzwl -0x34(%ebp),%edx
  105648:	66 89 50 14          	mov    %dx,0x14(%eax)
/u/s/h/shirui/private/cs537/p3a/p3/xv6-sp20/kernel/sysfile.c:239
  10564c:	8b 45 f0             	mov    -0x10(%ebp),%eax
  10564f:	66 c7 40 16 01 00    	movw   $0x1,0x16(%eax)
/u/s/h/shirui/private/cs537/p3a/p3/xv6-sp20/kernel/sysfile.c:240
  105655:	83 ec 0c             	sub    $0xc,%esp
  105658:	ff 75 f0             	pushl  -0x10(%ebp)
  10565b:	e8 1b c0 ff ff       	call   10167b <iupdate>
  105660:	83 c4 10             	add    $0x10,%esp
/u/s/h/shirui/private/cs537/p3a/p3/xv6-sp20/kernel/sysfile.c:242
  105663:	66 83 7d d4 01       	cmpw   $0x1,-0x2c(%ebp)
  105668:	75 6a                	jne    1056d4 <create+0x195>
/u/s/h/shirui/private/cs537/p3a/p3/xv6-sp20/kernel/sysfile.c:243
  10566a:	8b 45 f4             	mov    -0xc(%ebp),%eax
  10566d:	0f b7 40 16          	movzwl 0x16(%eax),%eax
  105671:	83 c0 01             	add    $0x1,%eax
  105674:	89 c2                	mov    %eax,%edx
  105676:	8b 45 f4             	mov    -0xc(%ebp),%eax
  105679:	66 89 50 16          	mov    %dx,0x16(%eax)
/u/s/h/shirui/private/cs537/p3a/p3/xv6-sp20/kernel/sysfile.c:244
  10567d:	83 ec 0c             	sub    $0xc,%esp
  105680:	ff 75 f4             	pushl  -0xc(%ebp)
  105683:	e8 f3 bf ff ff       	call   10167b <iupdate>
  105688:	83 c4 10             	add    $0x10,%esp
/u/s/h/shirui/private/cs537/p3a/p3/xv6-sp20/kernel/sysfile.c:246
  10568b:	8b 45 f0             	mov    -0x10(%ebp),%eax
  10568e:	8b 40 04             	mov    0x4(%eax),%eax
  105691:	83 ec 04             	sub    $0x4,%esp
  105694:	50                   	push   %eax
  105695:	68 f5 82 10 00       	push   $0x1082f5
  10569a:	ff 75 f0             	pushl  -0x10(%ebp)
  10569d:	e8 27 cb ff ff       	call   1021c9 <dirlink>
  1056a2:	83 c4 10             	add    $0x10,%esp
  1056a5:	85 c0                	test   %eax,%eax
  1056a7:	78 1e                	js     1056c7 <create+0x188>
/u/s/h/shirui/private/cs537/p3a/p3/xv6-sp20/kernel/sysfile.c:246 (discriminator 1)
  1056a9:	8b 45 f4             	mov    -0xc(%ebp),%eax
  1056ac:	8b 40 04             	mov    0x4(%eax),%eax
  1056af:	83 ec 04             	sub    $0x4,%esp
  1056b2:	50                   	push   %eax
  1056b3:	68 f7 82 10 00       	push   $0x1082f7
  1056b8:	ff 75 f0             	pushl  -0x10(%ebp)
  1056bb:	e8 09 cb ff ff       	call   1021c9 <dirlink>
  1056c0:	83 c4 10             	add    $0x10,%esp
  1056c3:	85 c0                	test   %eax,%eax
  1056c5:	79 0d                	jns    1056d4 <create+0x195>
/u/s/h/shirui/private/cs537/p3a/p3/xv6-sp20/kernel/sysfile.c:247
  1056c7:	83 ec 0c             	sub    $0xc,%esp
  1056ca:	68 2a 83 10 00       	push   $0x10832a
  1056cf:	e8 a4 ae ff ff       	call   100578 <panic>
/u/s/h/shirui/private/cs537/p3a/p3/xv6-sp20/kernel/sysfile.c:250
  1056d4:	8b 45 f0             	mov    -0x10(%ebp),%eax
  1056d7:	8b 40 04             	mov    0x4(%eax),%eax
  1056da:	83 ec 04             	sub    $0x4,%esp
  1056dd:	50                   	push   %eax
  1056de:	8d 45 de             	lea    -0x22(%ebp),%eax
  1056e1:	50                   	push   %eax
  1056e2:	ff 75 f4             	pushl  -0xc(%ebp)
  1056e5:	e8 df ca ff ff       	call   1021c9 <dirlink>
  1056ea:	83 c4 10             	add    $0x10,%esp
  1056ed:	85 c0                	test   %eax,%eax
  1056ef:	79 0d                	jns    1056fe <create+0x1bf>
/u/s/h/shirui/private/cs537/p3a/p3/xv6-sp20/kernel/sysfile.c:251
  1056f1:	83 ec 0c             	sub    $0xc,%esp
  1056f4:	68 36 83 10 00       	push   $0x108336
  1056f9:	e8 7a ae ff ff       	call   100578 <panic>
/u/s/h/shirui/private/cs537/p3a/p3/xv6-sp20/kernel/sysfile.c:253
  1056fe:	83 ec 0c             	sub    $0xc,%esp
  105701:	ff 75 f4             	pushl  -0xc(%ebp)
  105704:	e8 00 c4 ff ff       	call   101b09 <iunlockput>
  105709:	83 c4 10             	add    $0x10,%esp
/u/s/h/shirui/private/cs537/p3a/p3/xv6-sp20/kernel/sysfile.c:254
  10570c:	8b 45 f0             	mov    -0x10(%ebp),%eax
/u/s/h/shirui/private/cs537/p3a/p3/xv6-sp20/kernel/sysfile.c:255 (discriminator 1)
  10570f:	c9                   	leave  
  105710:	c3                   	ret    

00105711 <sys_open>:
sys_open():
/u/s/h/shirui/private/cs537/p3a/p3/xv6-sp20/kernel/sysfile.c:259
  105711:	55                   	push   %ebp
  105712:	89 e5                	mov    %esp,%ebp
  105714:	83 ec 28             	sub    $0x28,%esp
/u/s/h/shirui/private/cs537/p3a/p3/xv6-sp20/kernel/sysfile.c:265
  105717:	83 ec 08             	sub    $0x8,%esp
  10571a:	8d 45 e8             	lea    -0x18(%ebp),%eax
  10571d:	50                   	push   %eax
  10571e:	6a 00                	push   $0x0
  105720:	e8 f0 f6 ff ff       	call   104e15 <argstr>
  105725:	83 c4 10             	add    $0x10,%esp
  105728:	85 c0                	test   %eax,%eax
  10572a:	78 15                	js     105741 <sys_open+0x30>
/u/s/h/shirui/private/cs537/p3a/p3/xv6-sp20/kernel/sysfile.c:265 (discriminator 1)
  10572c:	83 ec 08             	sub    $0x8,%esp
  10572f:	8d 45 e4             	lea    -0x1c(%ebp),%eax
  105732:	50                   	push   %eax
  105733:	6a 01                	push   $0x1
  105735:	e8 4f f6 ff ff       	call   104d89 <argint>
  10573a:	83 c4 10             	add    $0x10,%esp
  10573d:	85 c0                	test   %eax,%eax
  10573f:	79 0a                	jns    10574b <sys_open+0x3a>
/u/s/h/shirui/private/cs537/p3a/p3/xv6-sp20/kernel/sysfile.c:266
  105741:	b8 ff ff ff ff       	mov    $0xffffffff,%eax
  105746:	e9 43 01 00 00       	jmp    10588e <sys_open+0x17d>
/u/s/h/shirui/private/cs537/p3a/p3/xv6-sp20/kernel/sysfile.c:267
  10574b:	8b 45 e4             	mov    -0x1c(%ebp),%eax
  10574e:	25 00 02 00 00       	and    $0x200,%eax
  105753:	85 c0                	test   %eax,%eax
  105755:	74 25                	je     10577c <sys_open+0x6b>
/u/s/h/shirui/private/cs537/p3a/p3/xv6-sp20/kernel/sysfile.c:268
  105757:	8b 45 e8             	mov    -0x18(%ebp),%eax
  10575a:	6a 00                	push   $0x0
  10575c:	6a 00                	push   $0x0
  10575e:	6a 02                	push   $0x2
  105760:	50                   	push   %eax
  105761:	e8 d9 fd ff ff       	call   10553f <create>
  105766:	83 c4 10             	add    $0x10,%esp
  105769:	89 45 f4             	mov    %eax,-0xc(%ebp)
  10576c:	83 7d f4 00          	cmpl   $0x0,-0xc(%ebp)
  105770:	75 66                	jne    1057d8 <sys_open+0xc7>
/u/s/h/shirui/private/cs537/p3a/p3/xv6-sp20/kernel/sysfile.c:269
  105772:	b8 ff ff ff ff       	mov    $0xffffffff,%eax
  105777:	e9 12 01 00 00       	jmp    10588e <sys_open+0x17d>
/u/s/h/shirui/private/cs537/p3a/p3/xv6-sp20/kernel/sysfile.c:271
  10577c:	8b 45 e8             	mov    -0x18(%ebp),%eax
  10577f:	83 ec 0c             	sub    $0xc,%esp
  105782:	50                   	push   %eax
  105783:	e8 dd cc ff ff       	call   102465 <namei>
  105788:	83 c4 10             	add    $0x10,%esp
  10578b:	89 45 f4             	mov    %eax,-0xc(%ebp)
  10578e:	83 7d f4 00          	cmpl   $0x0,-0xc(%ebp)
  105792:	75 0a                	jne    10579e <sys_open+0x8d>
/u/s/h/shirui/private/cs537/p3a/p3/xv6-sp20/kernel/sysfile.c:272
  105794:	b8 ff ff ff ff       	mov    $0xffffffff,%eax
  105799:	e9 f0 00 00 00       	jmp    10588e <sys_open+0x17d>
/u/s/h/shirui/private/cs537/p3a/p3/xv6-sp20/kernel/sysfile.c:273
  10579e:	83 ec 0c             	sub    $0xc,%esp
  1057a1:	ff 75 f4             	pushl  -0xc(%ebp)
  1057a4:	e8 a6 c0 ff ff       	call   10184f <ilock>
  1057a9:	83 c4 10             	add    $0x10,%esp
/u/s/h/shirui/private/cs537/p3a/p3/xv6-sp20/kernel/sysfile.c:274
  1057ac:	8b 45 f4             	mov    -0xc(%ebp),%eax
  1057af:	0f b7 40 10          	movzwl 0x10(%eax),%eax
  1057b3:	66 83 f8 01          	cmp    $0x1,%ax
  1057b7:	75 1f                	jne    1057d8 <sys_open+0xc7>
/u/s/h/shirui/private/cs537/p3a/p3/xv6-sp20/kernel/sysfile.c:274 (discriminator 1)
  1057b9:	8b 45 e4             	mov    -0x1c(%ebp),%eax
  1057bc:	85 c0                	test   %eax,%eax
  1057be:	74 18                	je     1057d8 <sys_open+0xc7>
/u/s/h/shirui/private/cs537/p3a/p3/xv6-sp20/kernel/sysfile.c:275
  1057c0:	83 ec 0c             	sub    $0xc,%esp
  1057c3:	ff 75 f4             	pushl  -0xc(%ebp)
  1057c6:	e8 3e c3 ff ff       	call   101b09 <iunlockput>
  1057cb:	83 c4 10             	add    $0x10,%esp
/u/s/h/shirui/private/cs537/p3a/p3/xv6-sp20/kernel/sysfile.c:276
  1057ce:	b8 ff ff ff ff       	mov    $0xffffffff,%eax
  1057d3:	e9 b6 00 00 00       	jmp    10588e <sys_open+0x17d>
/u/s/h/shirui/private/cs537/p3a/p3/xv6-sp20/kernel/sysfile.c:280
  1057d8:	e8 84 b7 ff ff       	call   100f61 <filealloc>
  1057dd:	89 45 f0             	mov    %eax,-0x10(%ebp)
  1057e0:	83 7d f0 00          	cmpl   $0x0,-0x10(%ebp)
  1057e4:	74 17                	je     1057fd <sys_open+0xec>
/u/s/h/shirui/private/cs537/p3a/p3/xv6-sp20/kernel/sysfile.c:280 (discriminator 1)
  1057e6:	83 ec 0c             	sub    $0xc,%esp
  1057e9:	ff 75 f0             	pushl  -0x10(%ebp)
  1057ec:	e8 57 f7 ff ff       	call   104f48 <fdalloc>
  1057f1:	83 c4 10             	add    $0x10,%esp
  1057f4:	89 45 ec             	mov    %eax,-0x14(%ebp)
  1057f7:	83 7d ec 00          	cmpl   $0x0,-0x14(%ebp)
  1057fb:	79 29                	jns    105826 <sys_open+0x115>
/u/s/h/shirui/private/cs537/p3a/p3/xv6-sp20/kernel/sysfile.c:281
  1057fd:	83 7d f0 00          	cmpl   $0x0,-0x10(%ebp)
  105801:	74 0e                	je     105811 <sys_open+0x100>
/u/s/h/shirui/private/cs537/p3a/p3/xv6-sp20/kernel/sysfile.c:282
  105803:	83 ec 0c             	sub    $0xc,%esp
  105806:	ff 75 f0             	pushl  -0x10(%ebp)
  105809:	e8 11 b8 ff ff       	call   10101f <fileclose>
  10580e:	83 c4 10             	add    $0x10,%esp
/u/s/h/shirui/private/cs537/p3a/p3/xv6-sp20/kernel/sysfile.c:283
  105811:	83 ec 0c             	sub    $0xc,%esp
  105814:	ff 75 f4             	pushl  -0xc(%ebp)
  105817:	e8 ed c2 ff ff       	call   101b09 <iunlockput>
  10581c:	83 c4 10             	add    $0x10,%esp
/u/s/h/shirui/private/cs537/p3a/p3/xv6-sp20/kernel/sysfile.c:284
  10581f:	b8 ff ff ff ff       	mov    $0xffffffff,%eax
  105824:	eb 68                	jmp    10588e <sys_open+0x17d>
/u/s/h/shirui/private/cs537/p3a/p3/xv6-sp20/kernel/sysfile.c:286
  105826:	83 ec 0c             	sub    $0xc,%esp
  105829:	ff 75 f4             	pushl  -0xc(%ebp)
  10582c:	e8 76 c1 ff ff       	call   1019a7 <iunlock>
  105831:	83 c4 10             	add    $0x10,%esp
/u/s/h/shirui/private/cs537/p3a/p3/xv6-sp20/kernel/sysfile.c:288
  105834:	8b 45 f0             	mov    -0x10(%ebp),%eax
  105837:	c7 00 02 00 00 00    	movl   $0x2,(%eax)
/u/s/h/shirui/private/cs537/p3a/p3/xv6-sp20/kernel/sysfile.c:289
  10583d:	8b 45 f0             	mov    -0x10(%ebp),%eax
  105840:	8b 55 f4             	mov    -0xc(%ebp),%edx
  105843:	89 50 10             	mov    %edx,0x10(%eax)
/u/s/h/shirui/private/cs537/p3a/p3/xv6-sp20/kernel/sysfile.c:290
  105846:	8b 45 f0             	mov    -0x10(%ebp),%eax
  105849:	c7 40 14 00 00 00 00 	movl   $0x0,0x14(%eax)
/u/s/h/shirui/private/cs537/p3a/p3/xv6-sp20/kernel/sysfile.c:291
  105850:	8b 45 e4             	mov    -0x1c(%ebp),%eax
  105853:	83 e0 01             	and    $0x1,%eax
  105856:	85 c0                	test   %eax,%eax
  105858:	0f 94 c0             	sete   %al
  10585b:	89 c2                	mov    %eax,%edx
  10585d:	8b 45 f0             	mov    -0x10(%ebp),%eax
  105860:	88 50 08             	mov    %dl,0x8(%eax)
/u/s/h/shirui/private/cs537/p3a/p3/xv6-sp20/kernel/sysfile.c:292
  105863:	8b 45 e4             	mov    -0x1c(%ebp),%eax
  105866:	83 e0 01             	and    $0x1,%eax
  105869:	85 c0                	test   %eax,%eax
  10586b:	75 0a                	jne    105877 <sys_open+0x166>
/u/s/h/shirui/private/cs537/p3a/p3/xv6-sp20/kernel/sysfile.c:292 (discriminator 2)
  10586d:	8b 45 e4             	mov    -0x1c(%ebp),%eax
  105870:	83 e0 02             	and    $0x2,%eax
  105873:	85 c0                	test   %eax,%eax
  105875:	74 07                	je     10587e <sys_open+0x16d>
/u/s/h/shirui/private/cs537/p3a/p3/xv6-sp20/kernel/sysfile.c:292 (discriminator 3)
  105877:	b8 01 00 00 00       	mov    $0x1,%eax
  10587c:	eb 05                	jmp    105883 <sys_open+0x172>
/u/s/h/shirui/private/cs537/p3a/p3/xv6-sp20/kernel/sysfile.c:292 (discriminator 4)
  10587e:	b8 00 00 00 00       	mov    $0x0,%eax
/u/s/h/shirui/private/cs537/p3a/p3/xv6-sp20/kernel/sysfile.c:292 (discriminator 6)
  105883:	89 c2                	mov    %eax,%edx
  105885:	8b 45 f0             	mov    -0x10(%ebp),%eax
  105888:	88 50 09             	mov    %dl,0x9(%eax)
/u/s/h/shirui/private/cs537/p3a/p3/xv6-sp20/kernel/sysfile.c:293 (discriminator 6)
  10588b:	8b 45 ec             	mov    -0x14(%ebp),%eax
/u/s/h/shirui/private/cs537/p3a/p3/xv6-sp20/kernel/sysfile.c:294 (discriminator 1)
  10588e:	c9                   	leave  
  10588f:	c3                   	ret    

00105890 <sys_mkdir>:
sys_mkdir():
/u/s/h/shirui/private/cs537/p3a/p3/xv6-sp20/kernel/sysfile.c:298
  105890:	55                   	push   %ebp
  105891:	89 e5                	mov    %esp,%ebp
  105893:	83 ec 18             	sub    $0x18,%esp
/u/s/h/shirui/private/cs537/p3a/p3/xv6-sp20/kernel/sysfile.c:302
  105896:	83 ec 08             	sub    $0x8,%esp
  105899:	8d 45 f0             	lea    -0x10(%ebp),%eax
  10589c:	50                   	push   %eax
  10589d:	6a 00                	push   $0x0
  10589f:	e8 71 f5 ff ff       	call   104e15 <argstr>
  1058a4:	83 c4 10             	add    $0x10,%esp
  1058a7:	85 c0                	test   %eax,%eax
  1058a9:	78 1b                	js     1058c6 <sys_mkdir+0x36>
/u/s/h/shirui/private/cs537/p3a/p3/xv6-sp20/kernel/sysfile.c:302 (discriminator 1)
  1058ab:	8b 45 f0             	mov    -0x10(%ebp),%eax
  1058ae:	6a 00                	push   $0x0
  1058b0:	6a 00                	push   $0x0
  1058b2:	6a 01                	push   $0x1
  1058b4:	50                   	push   %eax
  1058b5:	e8 85 fc ff ff       	call   10553f <create>
  1058ba:	83 c4 10             	add    $0x10,%esp
  1058bd:	89 45 f4             	mov    %eax,-0xc(%ebp)
  1058c0:	83 7d f4 00          	cmpl   $0x0,-0xc(%ebp)
  1058c4:	75 07                	jne    1058cd <sys_mkdir+0x3d>
/u/s/h/shirui/private/cs537/p3a/p3/xv6-sp20/kernel/sysfile.c:303
  1058c6:	b8 ff ff ff ff       	mov    $0xffffffff,%eax
  1058cb:	eb 13                	jmp    1058e0 <sys_mkdir+0x50>
/u/s/h/shirui/private/cs537/p3a/p3/xv6-sp20/kernel/sysfile.c:304
  1058cd:	83 ec 0c             	sub    $0xc,%esp
  1058d0:	ff 75 f4             	pushl  -0xc(%ebp)
  1058d3:	e8 31 c2 ff ff       	call   101b09 <iunlockput>
  1058d8:	83 c4 10             	add    $0x10,%esp
/u/s/h/shirui/private/cs537/p3a/p3/xv6-sp20/kernel/sysfile.c:305
  1058db:	b8 00 00 00 00       	mov    $0x0,%eax
/u/s/h/shirui/private/cs537/p3a/p3/xv6-sp20/kernel/sysfile.c:306 (discriminator 1)
  1058e0:	c9                   	leave  
  1058e1:	c3                   	ret    

001058e2 <sys_mknod>:
sys_mknod():
/u/s/h/shirui/private/cs537/p3a/p3/xv6-sp20/kernel/sysfile.c:310
  1058e2:	55                   	push   %ebp
  1058e3:	89 e5                	mov    %esp,%ebp
  1058e5:	83 ec 28             	sub    $0x28,%esp
/u/s/h/shirui/private/cs537/p3a/p3/xv6-sp20/kernel/sysfile.c:316
  1058e8:	83 ec 08             	sub    $0x8,%esp
  1058eb:	8d 45 ec             	lea    -0x14(%ebp),%eax
  1058ee:	50                   	push   %eax
  1058ef:	6a 00                	push   $0x0
  1058f1:	e8 1f f5 ff ff       	call   104e15 <argstr>
  1058f6:	83 c4 10             	add    $0x10,%esp
  1058f9:	89 45 f4             	mov    %eax,-0xc(%ebp)
  1058fc:	83 7d f4 00          	cmpl   $0x0,-0xc(%ebp)
  105900:	78 4f                	js     105951 <sys_mknod+0x6f>
/u/s/h/shirui/private/cs537/p3a/p3/xv6-sp20/kernel/sysfile.c:317 (discriminator 1)
  105902:	83 ec 08             	sub    $0x8,%esp
  105905:	8d 45 e8             	lea    -0x18(%ebp),%eax
  105908:	50                   	push   %eax
  105909:	6a 01                	push   $0x1
  10590b:	e8 79 f4 ff ff       	call   104d89 <argint>
  105910:	83 c4 10             	add    $0x10,%esp
/u/s/h/shirui/private/cs537/p3a/p3/xv6-sp20/kernel/sysfile.c:316 (discriminator 1)
  105913:	85 c0                	test   %eax,%eax
  105915:	78 3a                	js     105951 <sys_mknod+0x6f>
/u/s/h/shirui/private/cs537/p3a/p3/xv6-sp20/kernel/sysfile.c:318
  105917:	83 ec 08             	sub    $0x8,%esp
  10591a:	8d 45 e4             	lea    -0x1c(%ebp),%eax
  10591d:	50                   	push   %eax
  10591e:	6a 02                	push   $0x2
  105920:	e8 64 f4 ff ff       	call   104d89 <argint>
  105925:	83 c4 10             	add    $0x10,%esp
/u/s/h/shirui/private/cs537/p3a/p3/xv6-sp20/kernel/sysfile.c:317
  105928:	85 c0                	test   %eax,%eax
  10592a:	78 25                	js     105951 <sys_mknod+0x6f>
/u/s/h/shirui/private/cs537/p3a/p3/xv6-sp20/kernel/sysfile.c:319
  10592c:	8b 45 e4             	mov    -0x1c(%ebp),%eax
  10592f:	0f bf c8             	movswl %ax,%ecx
  105932:	8b 45 e8             	mov    -0x18(%ebp),%eax
  105935:	0f bf d0             	movswl %ax,%edx
  105938:	8b 45 ec             	mov    -0x14(%ebp),%eax
/u/s/h/shirui/private/cs537/p3a/p3/xv6-sp20/kernel/sysfile.c:318
  10593b:	51                   	push   %ecx
  10593c:	52                   	push   %edx
  10593d:	6a 03                	push   $0x3
  10593f:	50                   	push   %eax
  105940:	e8 fa fb ff ff       	call   10553f <create>
  105945:	83 c4 10             	add    $0x10,%esp
  105948:	89 45 f0             	mov    %eax,-0x10(%ebp)
  10594b:	83 7d f0 00          	cmpl   $0x0,-0x10(%ebp)
  10594f:	75 07                	jne    105958 <sys_mknod+0x76>
/u/s/h/shirui/private/cs537/p3a/p3/xv6-sp20/kernel/sysfile.c:320
  105951:	b8 ff ff ff ff       	mov    $0xffffffff,%eax
  105956:	eb 13                	jmp    10596b <sys_mknod+0x89>
/u/s/h/shirui/private/cs537/p3a/p3/xv6-sp20/kernel/sysfile.c:321
  105958:	83 ec 0c             	sub    $0xc,%esp
  10595b:	ff 75 f0             	pushl  -0x10(%ebp)
  10595e:	e8 a6 c1 ff ff       	call   101b09 <iunlockput>
  105963:	83 c4 10             	add    $0x10,%esp
/u/s/h/shirui/private/cs537/p3a/p3/xv6-sp20/kernel/sysfile.c:322
  105966:	b8 00 00 00 00       	mov    $0x0,%eax
/u/s/h/shirui/private/cs537/p3a/p3/xv6-sp20/kernel/sysfile.c:323 (discriminator 1)
  10596b:	c9                   	leave  
  10596c:	c3                   	ret    

0010596d <sys_chdir>:
sys_chdir():
/u/s/h/shirui/private/cs537/p3a/p3/xv6-sp20/kernel/sysfile.c:327
  10596d:	55                   	push   %ebp
  10596e:	89 e5                	mov    %esp,%ebp
  105970:	83 ec 18             	sub    $0x18,%esp
/u/s/h/shirui/private/cs537/p3a/p3/xv6-sp20/kernel/sysfile.c:331
  105973:	83 ec 08             	sub    $0x8,%esp
  105976:	8d 45 f0             	lea    -0x10(%ebp),%eax
  105979:	50                   	push   %eax
  10597a:	6a 00                	push   $0x0
  10597c:	e8 94 f4 ff ff       	call   104e15 <argstr>
  105981:	83 c4 10             	add    $0x10,%esp
  105984:	85 c0                	test   %eax,%eax
  105986:	78 18                	js     1059a0 <sys_chdir+0x33>
/u/s/h/shirui/private/cs537/p3a/p3/xv6-sp20/kernel/sysfile.c:331 (discriminator 1)
  105988:	8b 45 f0             	mov    -0x10(%ebp),%eax
  10598b:	83 ec 0c             	sub    $0xc,%esp
  10598e:	50                   	push   %eax
  10598f:	e8 d1 ca ff ff       	call   102465 <namei>
  105994:	83 c4 10             	add    $0x10,%esp
  105997:	89 45 f4             	mov    %eax,-0xc(%ebp)
  10599a:	83 7d f4 00          	cmpl   $0x0,-0xc(%ebp)
  10599e:	75 07                	jne    1059a7 <sys_chdir+0x3a>
/u/s/h/shirui/private/cs537/p3a/p3/xv6-sp20/kernel/sysfile.c:332
  1059a0:	b8 ff ff ff ff       	mov    $0xffffffff,%eax
  1059a5:	eb 64                	jmp    105a0b <sys_chdir+0x9e>
/u/s/h/shirui/private/cs537/p3a/p3/xv6-sp20/kernel/sysfile.c:333
  1059a7:	83 ec 0c             	sub    $0xc,%esp
  1059aa:	ff 75 f4             	pushl  -0xc(%ebp)
  1059ad:	e8 9d be ff ff       	call   10184f <ilock>
  1059b2:	83 c4 10             	add    $0x10,%esp
/u/s/h/shirui/private/cs537/p3a/p3/xv6-sp20/kernel/sysfile.c:334
  1059b5:	8b 45 f4             	mov    -0xc(%ebp),%eax
  1059b8:	0f b7 40 10          	movzwl 0x10(%eax),%eax
  1059bc:	66 83 f8 01          	cmp    $0x1,%ax
  1059c0:	74 15                	je     1059d7 <sys_chdir+0x6a>
/u/s/h/shirui/private/cs537/p3a/p3/xv6-sp20/kernel/sysfile.c:335
  1059c2:	83 ec 0c             	sub    $0xc,%esp
  1059c5:	ff 75 f4             	pushl  -0xc(%ebp)
  1059c8:	e8 3c c1 ff ff       	call   101b09 <iunlockput>
  1059cd:	83 c4 10             	add    $0x10,%esp
/u/s/h/shirui/private/cs537/p3a/p3/xv6-sp20/kernel/sysfile.c:336
  1059d0:	b8 ff ff ff ff       	mov    $0xffffffff,%eax
  1059d5:	eb 34                	jmp    105a0b <sys_chdir+0x9e>
/u/s/h/shirui/private/cs537/p3a/p3/xv6-sp20/kernel/sysfile.c:338
  1059d7:	83 ec 0c             	sub    $0xc,%esp
  1059da:	ff 75 f4             	pushl  -0xc(%ebp)
  1059dd:	e8 c5 bf ff ff       	call   1019a7 <iunlock>
  1059e2:	83 c4 10             	add    $0x10,%esp
/u/s/h/shirui/private/cs537/p3a/p3/xv6-sp20/kernel/sysfile.c:339
  1059e5:	65 a1 04 00 00 00    	mov    %gs:0x4,%eax
  1059eb:	8b 40 68             	mov    0x68(%eax),%eax
  1059ee:	83 ec 0c             	sub    $0xc,%esp
  1059f1:	50                   	push   %eax
  1059f2:	e8 22 c0 ff ff       	call   101a19 <iput>
  1059f7:	83 c4 10             	add    $0x10,%esp
/u/s/h/shirui/private/cs537/p3a/p3/xv6-sp20/kernel/sysfile.c:340
  1059fa:	65 a1 04 00 00 00    	mov    %gs:0x4,%eax
  105a00:	8b 55 f4             	mov    -0xc(%ebp),%edx
  105a03:	89 50 68             	mov    %edx,0x68(%eax)
/u/s/h/shirui/private/cs537/p3a/p3/xv6-sp20/kernel/sysfile.c:341
  105a06:	b8 00 00 00 00       	mov    $0x0,%eax
/u/s/h/shirui/private/cs537/p3a/p3/xv6-sp20/kernel/sysfile.c:342 (discriminator 1)
  105a0b:	c9                   	leave  
  105a0c:	c3                   	ret    

00105a0d <sys_exec>:
sys_exec():
/u/s/h/shirui/private/cs537/p3a/p3/xv6-sp20/kernel/sysfile.c:346
  105a0d:	55                   	push   %ebp
  105a0e:	89 e5                	mov    %esp,%ebp
  105a10:	81 ec 98 00 00 00    	sub    $0x98,%esp
/u/s/h/shirui/private/cs537/p3a/p3/xv6-sp20/kernel/sysfile.c:351
  105a16:	83 ec 08             	sub    $0x8,%esp
  105a19:	8d 45 f0             	lea    -0x10(%ebp),%eax
  105a1c:	50                   	push   %eax
  105a1d:	6a 00                	push   $0x0
  105a1f:	e8 f1 f3 ff ff       	call   104e15 <argstr>
  105a24:	83 c4 10             	add    $0x10,%esp
  105a27:	85 c0                	test   %eax,%eax
  105a29:	78 18                	js     105a43 <sys_exec+0x36>
/u/s/h/shirui/private/cs537/p3a/p3/xv6-sp20/kernel/sysfile.c:351 (discriminator 1)
  105a2b:	83 ec 08             	sub    $0x8,%esp
  105a2e:	8d 85 6c ff ff ff    	lea    -0x94(%ebp),%eax
  105a34:	50                   	push   %eax
  105a35:	6a 01                	push   $0x1
  105a37:	e8 4d f3 ff ff       	call   104d89 <argint>
  105a3c:	83 c4 10             	add    $0x10,%esp
  105a3f:	85 c0                	test   %eax,%eax
  105a41:	79 0a                	jns    105a4d <sys_exec+0x40>
/u/s/h/shirui/private/cs537/p3a/p3/xv6-sp20/kernel/sysfile.c:352
  105a43:	b8 ff ff ff ff       	mov    $0xffffffff,%eax
  105a48:	e9 d6 00 00 00       	jmp    105b23 <sys_exec+0x116>
/u/s/h/shirui/private/cs537/p3a/p3/xv6-sp20/kernel/sysfile.c:354
  105a4d:	83 ec 04             	sub    $0x4,%esp
  105a50:	68 80 00 00 00       	push   $0x80
  105a55:	6a 00                	push   $0x0
  105a57:	8d 85 70 ff ff ff    	lea    -0x90(%ebp),%eax
  105a5d:	50                   	push   %eax
  105a5e:	e8 5a f0 ff ff       	call   104abd <memset>
  105a63:	83 c4 10             	add    $0x10,%esp
/u/s/h/shirui/private/cs537/p3a/p3/xv6-sp20/kernel/sysfile.c:355
  105a66:	c7 45 f4 00 00 00 00 	movl   $0x0,-0xc(%ebp)
/u/s/h/shirui/private/cs537/p3a/p3/xv6-sp20/kernel/sysfile.c:356
  105a6d:	8b 45 f4             	mov    -0xc(%ebp),%eax
  105a70:	83 f8 1f             	cmp    $0x1f,%eax
  105a73:	76 0a                	jbe    105a7f <sys_exec+0x72>
/u/s/h/shirui/private/cs537/p3a/p3/xv6-sp20/kernel/sysfile.c:357
  105a75:	b8 ff ff ff ff       	mov    $0xffffffff,%eax
  105a7a:	e9 a4 00 00 00       	jmp    105b23 <sys_exec+0x116>
/u/s/h/shirui/private/cs537/p3a/p3/xv6-sp20/kernel/sysfile.c:358
  105a7f:	8b 45 f4             	mov    -0xc(%ebp),%eax
  105a82:	c1 e0 02             	shl    $0x2,%eax
  105a85:	89 c2                	mov    %eax,%edx
  105a87:	8b 85 6c ff ff ff    	mov    -0x94(%ebp),%eax
  105a8d:	8d 0c 02             	lea    (%edx,%eax,1),%ecx
  105a90:	65 a1 04 00 00 00    	mov    %gs:0x4,%eax
  105a96:	83 ec 04             	sub    $0x4,%esp
  105a99:	8d 95 68 ff ff ff    	lea    -0x98(%ebp),%edx
  105a9f:	52                   	push   %edx
  105aa0:	51                   	push   %ecx
  105aa1:	50                   	push   %eax
  105aa2:	e8 52 f2 ff ff       	call   104cf9 <fetchint>
  105aa7:	83 c4 10             	add    $0x10,%esp
  105aaa:	85 c0                	test   %eax,%eax
  105aac:	79 07                	jns    105ab5 <sys_exec+0xa8>
/u/s/h/shirui/private/cs537/p3a/p3/xv6-sp20/kernel/sysfile.c:359
  105aae:	b8 ff ff ff ff       	mov    $0xffffffff,%eax
  105ab3:	eb 6e                	jmp    105b23 <sys_exec+0x116>
/u/s/h/shirui/private/cs537/p3a/p3/xv6-sp20/kernel/sysfile.c:360
  105ab5:	8b 85 68 ff ff ff    	mov    -0x98(%ebp),%eax
  105abb:	85 c0                	test   %eax,%eax
  105abd:	75 27                	jne    105ae6 <sys_exec+0xd9>
/u/s/h/shirui/private/cs537/p3a/p3/xv6-sp20/kernel/sysfile.c:361
  105abf:	8b 45 f4             	mov    -0xc(%ebp),%eax
  105ac2:	c7 84 85 70 ff ff ff 	movl   $0x0,-0x90(%ebp,%eax,4)
  105ac9:	00 00 00 00 
/u/s/h/shirui/private/cs537/p3a/p3/xv6-sp20/kernel/sysfile.c:362
  105acd:	90                   	nop
/u/s/h/shirui/private/cs537/p3a/p3/xv6-sp20/kernel/sysfile.c:367
  105ace:	8b 45 f0             	mov    -0x10(%ebp),%eax
  105ad1:	83 ec 08             	sub    $0x8,%esp
  105ad4:	8d 95 70 ff ff ff    	lea    -0x90(%ebp),%edx
  105ada:	52                   	push   %edx
  105adb:	50                   	push   %eax
  105adc:	e8 8f b0 ff ff       	call   100b70 <exec>
  105ae1:	83 c4 10             	add    $0x10,%esp
  105ae4:	eb 3d                	jmp    105b23 <sys_exec+0x116>
/u/s/h/shirui/private/cs537/p3a/p3/xv6-sp20/kernel/sysfile.c:364
  105ae6:	8d 85 70 ff ff ff    	lea    -0x90(%ebp),%eax
  105aec:	8b 55 f4             	mov    -0xc(%ebp),%edx
  105aef:	c1 e2 02             	shl    $0x2,%edx
  105af2:	8d 0c 10             	lea    (%eax,%edx,1),%ecx
  105af5:	8b 95 68 ff ff ff    	mov    -0x98(%ebp),%edx
  105afb:	65 a1 04 00 00 00    	mov    %gs:0x4,%eax
  105b01:	83 ec 04             	sub    $0x4,%esp
  105b04:	51                   	push   %ecx
  105b05:	52                   	push   %edx
  105b06:	50                   	push   %eax
  105b07:	e8 21 f2 ff ff       	call   104d2d <fetchstr>
  105b0c:	83 c4 10             	add    $0x10,%esp
  105b0f:	85 c0                	test   %eax,%eax
  105b11:	79 07                	jns    105b1a <sys_exec+0x10d>
/u/s/h/shirui/private/cs537/p3a/p3/xv6-sp20/kernel/sysfile.c:365
  105b13:	b8 ff ff ff ff       	mov    $0xffffffff,%eax
  105b18:	eb 09                	jmp    105b23 <sys_exec+0x116>
/u/s/h/shirui/private/cs537/p3a/p3/xv6-sp20/kernel/sysfile.c:355
  105b1a:	83 45 f4 01          	addl   $0x1,-0xc(%ebp)
/u/s/h/shirui/private/cs537/p3a/p3/xv6-sp20/kernel/sysfile.c:356
  105b1e:	e9 4a ff ff ff       	jmp    105a6d <sys_exec+0x60>
/u/s/h/shirui/private/cs537/p3a/p3/xv6-sp20/kernel/sysfile.c:368 (discriminator 1)
  105b23:	c9                   	leave  
  105b24:	c3                   	ret    

00105b25 <sys_pipe>:
sys_pipe():
/u/s/h/shirui/private/cs537/p3a/p3/xv6-sp20/kernel/sysfile.c:372
  105b25:	55                   	push   %ebp
  105b26:	89 e5                	mov    %esp,%ebp
  105b28:	83 ec 28             	sub    $0x28,%esp
/u/s/h/shirui/private/cs537/p3a/p3/xv6-sp20/kernel/sysfile.c:377
  105b2b:	83 ec 04             	sub    $0x4,%esp
  105b2e:	6a 08                	push   $0x8
  105b30:	8d 45 ec             	lea    -0x14(%ebp),%eax
  105b33:	50                   	push   %eax
  105b34:	6a 00                	push   $0x0
  105b36:	e8 7d f2 ff ff       	call   104db8 <argptr>
  105b3b:	83 c4 10             	add    $0x10,%esp
  105b3e:	85 c0                	test   %eax,%eax
  105b40:	79 0a                	jns    105b4c <sys_pipe+0x27>
/u/s/h/shirui/private/cs537/p3a/p3/xv6-sp20/kernel/sysfile.c:378
  105b42:	b8 ff ff ff ff       	mov    $0xffffffff,%eax
  105b47:	e9 af 00 00 00       	jmp    105bfb <sys_pipe+0xd6>
/u/s/h/shirui/private/cs537/p3a/p3/xv6-sp20/kernel/sysfile.c:379
  105b4c:	83 ec 08             	sub    $0x8,%esp
  105b4f:	8d 45 e4             	lea    -0x1c(%ebp),%eax
  105b52:	50                   	push   %eax
  105b53:	8d 45 e8             	lea    -0x18(%ebp),%eax
  105b56:	50                   	push   %eax
  105b57:	e8 98 dd ff ff       	call   1038f4 <pipealloc>
  105b5c:	83 c4 10             	add    $0x10,%esp
  105b5f:	85 c0                	test   %eax,%eax
  105b61:	79 0a                	jns    105b6d <sys_pipe+0x48>
/u/s/h/shirui/private/cs537/p3a/p3/xv6-sp20/kernel/sysfile.c:380
  105b63:	b8 ff ff ff ff       	mov    $0xffffffff,%eax
  105b68:	e9 8e 00 00 00       	jmp    105bfb <sys_pipe+0xd6>
/u/s/h/shirui/private/cs537/p3a/p3/xv6-sp20/kernel/sysfile.c:381
  105b6d:	c7 45 f4 ff ff ff ff 	movl   $0xffffffff,-0xc(%ebp)
/u/s/h/shirui/private/cs537/p3a/p3/xv6-sp20/kernel/sysfile.c:382
  105b74:	8b 45 e8             	mov    -0x18(%ebp),%eax
  105b77:	83 ec 0c             	sub    $0xc,%esp
  105b7a:	50                   	push   %eax
  105b7b:	e8 c8 f3 ff ff       	call   104f48 <fdalloc>
  105b80:	83 c4 10             	add    $0x10,%esp
  105b83:	89 45 f4             	mov    %eax,-0xc(%ebp)
  105b86:	83 7d f4 00          	cmpl   $0x0,-0xc(%ebp)
  105b8a:	78 18                	js     105ba4 <sys_pipe+0x7f>
/u/s/h/shirui/private/cs537/p3a/p3/xv6-sp20/kernel/sysfile.c:382 (discriminator 1)
  105b8c:	8b 45 e4             	mov    -0x1c(%ebp),%eax
  105b8f:	83 ec 0c             	sub    $0xc,%esp
  105b92:	50                   	push   %eax
  105b93:	e8 b0 f3 ff ff       	call   104f48 <fdalloc>
  105b98:	83 c4 10             	add    $0x10,%esp
  105b9b:	89 45 f0             	mov    %eax,-0x10(%ebp)
  105b9e:	83 7d f0 00          	cmpl   $0x0,-0x10(%ebp)
  105ba2:	79 3f                	jns    105be3 <sys_pipe+0xbe>
/u/s/h/shirui/private/cs537/p3a/p3/xv6-sp20/kernel/sysfile.c:383
  105ba4:	83 7d f4 00          	cmpl   $0x0,-0xc(%ebp)
  105ba8:	78 14                	js     105bbe <sys_pipe+0x99>
/u/s/h/shirui/private/cs537/p3a/p3/xv6-sp20/kernel/sysfile.c:384
  105baa:	65 a1 04 00 00 00    	mov    %gs:0x4,%eax
  105bb0:	8b 55 f4             	mov    -0xc(%ebp),%edx
  105bb3:	83 c2 08             	add    $0x8,%edx
  105bb6:	c7 44 90 08 00 00 00 	movl   $0x0,0x8(%eax,%edx,4)
  105bbd:	00 
/u/s/h/shirui/private/cs537/p3a/p3/xv6-sp20/kernel/sysfile.c:385
  105bbe:	8b 45 e8             	mov    -0x18(%ebp),%eax
  105bc1:	83 ec 0c             	sub    $0xc,%esp
  105bc4:	50                   	push   %eax
  105bc5:	e8 55 b4 ff ff       	call   10101f <fileclose>
  105bca:	83 c4 10             	add    $0x10,%esp
/u/s/h/shirui/private/cs537/p3a/p3/xv6-sp20/kernel/sysfile.c:386
  105bcd:	8b 45 e4             	mov    -0x1c(%ebp),%eax
  105bd0:	83 ec 0c             	sub    $0xc,%esp
  105bd3:	50                   	push   %eax
  105bd4:	e8 46 b4 ff ff       	call   10101f <fileclose>
  105bd9:	83 c4 10             	add    $0x10,%esp
/u/s/h/shirui/private/cs537/p3a/p3/xv6-sp20/kernel/sysfile.c:387
  105bdc:	b8 ff ff ff ff       	mov    $0xffffffff,%eax
  105be1:	eb 18                	jmp    105bfb <sys_pipe+0xd6>
/u/s/h/shirui/private/cs537/p3a/p3/xv6-sp20/kernel/sysfile.c:389
  105be3:	8b 45 ec             	mov    -0x14(%ebp),%eax
  105be6:	8b 55 f4             	mov    -0xc(%ebp),%edx
  105be9:	89 10                	mov    %edx,(%eax)
/u/s/h/shirui/private/cs537/p3a/p3/xv6-sp20/kernel/sysfile.c:390
  105beb:	8b 45 ec             	mov    -0x14(%ebp),%eax
  105bee:	8d 50 04             	lea    0x4(%eax),%edx
  105bf1:	8b 45 f0             	mov    -0x10(%ebp),%eax
  105bf4:	89 02                	mov    %eax,(%edx)
/u/s/h/shirui/private/cs537/p3a/p3/xv6-sp20/kernel/sysfile.c:391
  105bf6:	b8 00 00 00 00       	mov    $0x0,%eax
/u/s/h/shirui/private/cs537/p3a/p3/xv6-sp20/kernel/sysfile.c:392 (discriminator 1)
  105bfb:	c9                   	leave  
  105bfc:	c3                   	ret    

00105bfd <sys_fork>:
sys_fork():
/u/s/h/shirui/private/cs537/p3a/p3/xv6-sp20/kernel/sysproc.c:11
  105bfd:	55                   	push   %ebp
  105bfe:	89 e5                	mov    %esp,%ebp
  105c00:	83 ec 08             	sub    $0x8,%esp
/u/s/h/shirui/private/cs537/p3a/p3/xv6-sp20/kernel/sysproc.c:12
  105c03:	e8 05 e4 ff ff       	call   10400d <fork>
/u/s/h/shirui/private/cs537/p3a/p3/xv6-sp20/kernel/sysproc.c:13
  105c08:	c9                   	leave  
  105c09:	c3                   	ret    

00105c0a <sys_exit>:
sys_exit():
/u/s/h/shirui/private/cs537/p3a/p3/xv6-sp20/kernel/sysproc.c:17
  105c0a:	55                   	push   %ebp
  105c0b:	89 e5                	mov    %esp,%ebp
  105c0d:	83 ec 08             	sub    $0x8,%esp
/u/s/h/shirui/private/cs537/p3a/p3/xv6-sp20/kernel/sysproc.c:18
  105c10:	e8 6b e5 ff ff       	call   104180 <exit>
/u/s/h/shirui/private/cs537/p3a/p3/xv6-sp20/kernel/sysproc.c:19
  105c15:	b8 00 00 00 00       	mov    $0x0,%eax
/u/s/h/shirui/private/cs537/p3a/p3/xv6-sp20/kernel/sysproc.c:20
  105c1a:	c9                   	leave  
  105c1b:	c3                   	ret    

00105c1c <sys_wait>:
sys_wait():
/u/s/h/shirui/private/cs537/p3a/p3/xv6-sp20/kernel/sysproc.c:24
  105c1c:	55                   	push   %ebp
  105c1d:	89 e5                	mov    %esp,%ebp
  105c1f:	83 ec 08             	sub    $0x8,%esp
/u/s/h/shirui/private/cs537/p3a/p3/xv6-sp20/kernel/sysproc.c:25
  105c22:	e8 87 e6 ff ff       	call   1042ae <wait>
/u/s/h/shirui/private/cs537/p3a/p3/xv6-sp20/kernel/sysproc.c:26
  105c27:	c9                   	leave  
  105c28:	c3                   	ret    

00105c29 <sys_kill>:
sys_kill():
/u/s/h/shirui/private/cs537/p3a/p3/xv6-sp20/kernel/sysproc.c:30
  105c29:	55                   	push   %ebp
  105c2a:	89 e5                	mov    %esp,%ebp
  105c2c:	83 ec 18             	sub    $0x18,%esp
/u/s/h/shirui/private/cs537/p3a/p3/xv6-sp20/kernel/sysproc.c:33
  105c2f:	83 ec 08             	sub    $0x8,%esp
  105c32:	8d 45 f4             	lea    -0xc(%ebp),%eax
  105c35:	50                   	push   %eax
  105c36:	6a 00                	push   $0x0
  105c38:	e8 4c f1 ff ff       	call   104d89 <argint>
  105c3d:	83 c4 10             	add    $0x10,%esp
  105c40:	85 c0                	test   %eax,%eax
  105c42:	79 07                	jns    105c4b <sys_kill+0x22>
/u/s/h/shirui/private/cs537/p3a/p3/xv6-sp20/kernel/sysproc.c:34
  105c44:	b8 ff ff ff ff       	mov    $0xffffffff,%eax
  105c49:	eb 0f                	jmp    105c5a <sys_kill+0x31>
/u/s/h/shirui/private/cs537/p3a/p3/xv6-sp20/kernel/sysproc.c:35
  105c4b:	8b 45 f4             	mov    -0xc(%ebp),%eax
  105c4e:	83 ec 0c             	sub    $0xc,%esp
  105c51:	50                   	push   %eax
  105c52:	e8 52 ea ff ff       	call   1046a9 <kill>
  105c57:	83 c4 10             	add    $0x10,%esp
/u/s/h/shirui/private/cs537/p3a/p3/xv6-sp20/kernel/sysproc.c:36 (discriminator 1)
  105c5a:	c9                   	leave  
  105c5b:	c3                   	ret    

00105c5c <sys_getpid>:
sys_getpid():
/u/s/h/shirui/private/cs537/p3a/p3/xv6-sp20/kernel/sysproc.c:40
  105c5c:	55                   	push   %ebp
  105c5d:	89 e5                	mov    %esp,%ebp
/u/s/h/shirui/private/cs537/p3a/p3/xv6-sp20/kernel/sysproc.c:41
  105c5f:	65 a1 04 00 00 00    	mov    %gs:0x4,%eax
  105c65:	8b 40 10             	mov    0x10(%eax),%eax
/u/s/h/shirui/private/cs537/p3a/p3/xv6-sp20/kernel/sysproc.c:42
  105c68:	5d                   	pop    %ebp
  105c69:	c3                   	ret    

00105c6a <sys_sbrk>:
sys_sbrk():
/u/s/h/shirui/private/cs537/p3a/p3/xv6-sp20/kernel/sysproc.c:46
  105c6a:	55                   	push   %ebp
  105c6b:	89 e5                	mov    %esp,%ebp
  105c6d:	83 ec 18             	sub    $0x18,%esp
/u/s/h/shirui/private/cs537/p3a/p3/xv6-sp20/kernel/sysproc.c:50
  105c70:	83 ec 08             	sub    $0x8,%esp
  105c73:	8d 45 f0             	lea    -0x10(%ebp),%eax
  105c76:	50                   	push   %eax
  105c77:	6a 00                	push   $0x0
  105c79:	e8 0b f1 ff ff       	call   104d89 <argint>
  105c7e:	83 c4 10             	add    $0x10,%esp
  105c81:	85 c0                	test   %eax,%eax
  105c83:	79 07                	jns    105c8c <sys_sbrk+0x22>
/u/s/h/shirui/private/cs537/p3a/p3/xv6-sp20/kernel/sysproc.c:51
  105c85:	b8 ff ff ff ff       	mov    $0xffffffff,%eax
  105c8a:	eb 28                	jmp    105cb4 <sys_sbrk+0x4a>
/u/s/h/shirui/private/cs537/p3a/p3/xv6-sp20/kernel/sysproc.c:52
  105c8c:	65 a1 04 00 00 00    	mov    %gs:0x4,%eax
  105c92:	8b 00                	mov    (%eax),%eax
  105c94:	89 45 f4             	mov    %eax,-0xc(%ebp)
/u/s/h/shirui/private/cs537/p3a/p3/xv6-sp20/kernel/sysproc.c:53
  105c97:	8b 45 f0             	mov    -0x10(%ebp),%eax
  105c9a:	83 ec 0c             	sub    $0xc,%esp
  105c9d:	50                   	push   %eax
  105c9e:	e8 c7 e2 ff ff       	call   103f6a <growproc>
  105ca3:	83 c4 10             	add    $0x10,%esp
  105ca6:	85 c0                	test   %eax,%eax
  105ca8:	79 07                	jns    105cb1 <sys_sbrk+0x47>
/u/s/h/shirui/private/cs537/p3a/p3/xv6-sp20/kernel/sysproc.c:54
  105caa:	b8 ff ff ff ff       	mov    $0xffffffff,%eax
  105caf:	eb 03                	jmp    105cb4 <sys_sbrk+0x4a>
/u/s/h/shirui/private/cs537/p3a/p3/xv6-sp20/kernel/sysproc.c:55
  105cb1:	8b 45 f4             	mov    -0xc(%ebp),%eax
/u/s/h/shirui/private/cs537/p3a/p3/xv6-sp20/kernel/sysproc.c:56 (discriminator 1)
  105cb4:	c9                   	leave  
  105cb5:	c3                   	ret    

00105cb6 <sys_sleep>:
sys_sleep():
/u/s/h/shirui/private/cs537/p3a/p3/xv6-sp20/kernel/sysproc.c:60
  105cb6:	55                   	push   %ebp
  105cb7:	89 e5                	mov    %esp,%ebp
  105cb9:	83 ec 18             	sub    $0x18,%esp
/u/s/h/shirui/private/cs537/p3a/p3/xv6-sp20/kernel/sysproc.c:64
  105cbc:	83 ec 08             	sub    $0x8,%esp
  105cbf:	8d 45 f0             	lea    -0x10(%ebp),%eax
  105cc2:	50                   	push   %eax
  105cc3:	6a 00                	push   $0x0
  105cc5:	e8 bf f0 ff ff       	call   104d89 <argint>
  105cca:	83 c4 10             	add    $0x10,%esp
  105ccd:	85 c0                	test   %eax,%eax
  105ccf:	79 07                	jns    105cd8 <sys_sleep+0x22>
/u/s/h/shirui/private/cs537/p3a/p3/xv6-sp20/kernel/sysproc.c:65
  105cd1:	b8 ff ff ff ff       	mov    $0xffffffff,%eax
  105cd6:	eb 77                	jmp    105d4f <sys_sleep+0x99>
/u/s/h/shirui/private/cs537/p3a/p3/xv6-sp20/kernel/sysproc.c:66
  105cd8:	83 ec 0c             	sub    $0xc,%esp
  105cdb:	68 20 23 11 00       	push   $0x112320
  105ce0:	e8 9b eb ff ff       	call   104880 <acquire>
  105ce5:	83 c4 10             	add    $0x10,%esp
/u/s/h/shirui/private/cs537/p3a/p3/xv6-sp20/kernel/sysproc.c:67
  105ce8:	a1 60 2b 11 00       	mov    0x112b60,%eax
  105ced:	89 45 f4             	mov    %eax,-0xc(%ebp)
/u/s/h/shirui/private/cs537/p3a/p3/xv6-sp20/kernel/sysproc.c:68
  105cf0:	eb 39                	jmp    105d2b <sys_sleep+0x75>
/u/s/h/shirui/private/cs537/p3a/p3/xv6-sp20/kernel/sysproc.c:69
  105cf2:	65 a1 04 00 00 00    	mov    %gs:0x4,%eax
  105cf8:	8b 40 24             	mov    0x24(%eax),%eax
  105cfb:	85 c0                	test   %eax,%eax
  105cfd:	74 17                	je     105d16 <sys_sleep+0x60>
/u/s/h/shirui/private/cs537/p3a/p3/xv6-sp20/kernel/sysproc.c:70
  105cff:	83 ec 0c             	sub    $0xc,%esp
  105d02:	68 20 23 11 00       	push   $0x112320
  105d07:	e8 db eb ff ff       	call   1048e7 <release>
  105d0c:	83 c4 10             	add    $0x10,%esp
/u/s/h/shirui/private/cs537/p3a/p3/xv6-sp20/kernel/sysproc.c:71
  105d0f:	b8 ff ff ff ff       	mov    $0xffffffff,%eax
  105d14:	eb 39                	jmp    105d4f <sys_sleep+0x99>
/u/s/h/shirui/private/cs537/p3a/p3/xv6-sp20/kernel/sysproc.c:73
  105d16:	83 ec 08             	sub    $0x8,%esp
  105d19:	68 20 23 11 00       	push   $0x112320
  105d1e:	68 60 2b 11 00       	push   $0x112b60
  105d23:	e8 5f e8 ff ff       	call   104587 <sleep>
  105d28:	83 c4 10             	add    $0x10,%esp
/u/s/h/shirui/private/cs537/p3a/p3/xv6-sp20/kernel/sysproc.c:68
  105d2b:	a1 60 2b 11 00       	mov    0x112b60,%eax
  105d30:	2b 45 f4             	sub    -0xc(%ebp),%eax
  105d33:	8b 55 f0             	mov    -0x10(%ebp),%edx
  105d36:	39 d0                	cmp    %edx,%eax
  105d38:	72 b8                	jb     105cf2 <sys_sleep+0x3c>
/u/s/h/shirui/private/cs537/p3a/p3/xv6-sp20/kernel/sysproc.c:75
  105d3a:	83 ec 0c             	sub    $0xc,%esp
  105d3d:	68 20 23 11 00       	push   $0x112320
  105d42:	e8 a0 eb ff ff       	call   1048e7 <release>
  105d47:	83 c4 10             	add    $0x10,%esp
/u/s/h/shirui/private/cs537/p3a/p3/xv6-sp20/kernel/sysproc.c:76
  105d4a:	b8 00 00 00 00       	mov    $0x0,%eax
/u/s/h/shirui/private/cs537/p3a/p3/xv6-sp20/kernel/sysproc.c:77 (discriminator 1)
  105d4f:	c9                   	leave  
  105d50:	c3                   	ret    

00105d51 <sys_uptime>:
sys_uptime():
/u/s/h/shirui/private/cs537/p3a/p3/xv6-sp20/kernel/sysproc.c:83
  105d51:	55                   	push   %ebp
  105d52:	89 e5                	mov    %esp,%ebp
  105d54:	83 ec 18             	sub    $0x18,%esp
/u/s/h/shirui/private/cs537/p3a/p3/xv6-sp20/kernel/sysproc.c:86
  105d57:	83 ec 0c             	sub    $0xc,%esp
  105d5a:	68 20 23 11 00       	push   $0x112320
  105d5f:	e8 1c eb ff ff       	call   104880 <acquire>
  105d64:	83 c4 10             	add    $0x10,%esp
/u/s/h/shirui/private/cs537/p3a/p3/xv6-sp20/kernel/sysproc.c:87
  105d67:	a1 60 2b 11 00       	mov    0x112b60,%eax
  105d6c:	89 45 f4             	mov    %eax,-0xc(%ebp)
/u/s/h/shirui/private/cs537/p3a/p3/xv6-sp20/kernel/sysproc.c:88
  105d6f:	83 ec 0c             	sub    $0xc,%esp
  105d72:	68 20 23 11 00       	push   $0x112320
  105d77:	e8 6b eb ff ff       	call   1048e7 <release>
  105d7c:	83 c4 10             	add    $0x10,%esp
/u/s/h/shirui/private/cs537/p3a/p3/xv6-sp20/kernel/sysproc.c:89
  105d7f:	8b 45 f4             	mov    -0xc(%ebp),%eax
/u/s/h/shirui/private/cs537/p3a/p3/xv6-sp20/kernel/sysproc.c:90
  105d82:	c9                   	leave  
  105d83:	c3                   	ret    

00105d84 <sys_munprotect>:
sys_munprotect():
/u/s/h/shirui/private/cs537/p3a/p3/xv6-sp20/kernel/sysproc.c:92
  105d84:	55                   	push   %ebp
  105d85:	89 e5                	mov    %esp,%ebp
  105d87:	83 ec 18             	sub    $0x18,%esp
/u/s/h/shirui/private/cs537/p3a/p3/xv6-sp20/kernel/sysproc.c:95
  105d8a:	83 ec 08             	sub    $0x8,%esp
  105d8d:	8d 45 f4             	lea    -0xc(%ebp),%eax
  105d90:	50                   	push   %eax
  105d91:	6a 01                	push   $0x1
  105d93:	e8 f1 ef ff ff       	call   104d89 <argint>
  105d98:	83 c4 10             	add    $0x10,%esp
  105d9b:	85 c0                	test   %eax,%eax
  105d9d:	79 07                	jns    105da6 <sys_munprotect+0x22>
/u/s/h/shirui/private/cs537/p3a/p3/xv6-sp20/kernel/sysproc.c:95 (discriminator 1)
  105d9f:	b8 ff ff ff ff       	mov    $0xffffffff,%eax
  105da4:	eb 31                	jmp    105dd7 <sys_munprotect+0x53>
/u/s/h/shirui/private/cs537/p3a/p3/xv6-sp20/kernel/sysproc.c:96
  105da6:	83 ec 04             	sub    $0x4,%esp
  105da9:	6a 04                	push   $0x4
  105dab:	8d 45 f0             	lea    -0x10(%ebp),%eax
  105dae:	50                   	push   %eax
  105daf:	6a 00                	push   $0x0
  105db1:	e8 02 f0 ff ff       	call   104db8 <argptr>
  105db6:	83 c4 10             	add    $0x10,%esp
  105db9:	85 c0                	test   %eax,%eax
  105dbb:	79 07                	jns    105dc4 <sys_munprotect+0x40>
/u/s/h/shirui/private/cs537/p3a/p3/xv6-sp20/kernel/sysproc.c:96 (discriminator 1)
  105dbd:	b8 ff ff ff ff       	mov    $0xffffffff,%eax
  105dc2:	eb 13                	jmp    105dd7 <sys_munprotect+0x53>
/u/s/h/shirui/private/cs537/p3a/p3/xv6-sp20/kernel/sysproc.c:97
  105dc4:	8b 55 f4             	mov    -0xc(%ebp),%edx
  105dc7:	8b 45 f0             	mov    -0x10(%ebp),%eax
  105dca:	83 ec 08             	sub    $0x8,%esp
  105dcd:	52                   	push   %edx
  105dce:	50                   	push   %eax
  105dcf:	e8 e5 18 00 00       	call   1076b9 <munprotect>
  105dd4:	83 c4 10             	add    $0x10,%esp
/u/s/h/shirui/private/cs537/p3a/p3/xv6-sp20/kernel/sysproc.c:98 (discriminator 1)
  105dd7:	c9                   	leave  
  105dd8:	c3                   	ret    

00105dd9 <sys_mprotect>:
sys_mprotect():
/u/s/h/shirui/private/cs537/p3a/p3/xv6-sp20/kernel/sysproc.c:101
  105dd9:	55                   	push   %ebp
  105dda:	89 e5                	mov    %esp,%ebp
  105ddc:	83 ec 18             	sub    $0x18,%esp
/u/s/h/shirui/private/cs537/p3a/p3/xv6-sp20/kernel/sysproc.c:104
  105ddf:	83 ec 04             	sub    $0x4,%esp
  105de2:	6a 01                	push   $0x1
  105de4:	8d 45 f4             	lea    -0xc(%ebp),%eax
  105de7:	50                   	push   %eax
  105de8:	6a 00                	push   $0x0
  105dea:	e8 c9 ef ff ff       	call   104db8 <argptr>
  105def:	83 c4 10             	add    $0x10,%esp
  105df2:	85 c0                	test   %eax,%eax
  105df4:	78 15                	js     105e0b <sys_mprotect+0x32>
/u/s/h/shirui/private/cs537/p3a/p3/xv6-sp20/kernel/sysproc.c:104 (discriminator 1)
  105df6:	83 ec 08             	sub    $0x8,%esp
  105df9:	8d 45 f0             	lea    -0x10(%ebp),%eax
  105dfc:	50                   	push   %eax
  105dfd:	6a 01                	push   $0x1
  105dff:	e8 85 ef ff ff       	call   104d89 <argint>
  105e04:	83 c4 10             	add    $0x10,%esp
  105e07:	85 c0                	test   %eax,%eax
  105e09:	79 07                	jns    105e12 <sys_mprotect+0x39>
/u/s/h/shirui/private/cs537/p3a/p3/xv6-sp20/kernel/sysproc.c:105
  105e0b:	b8 ff ff ff ff       	mov    $0xffffffff,%eax
  105e10:	eb 13                	jmp    105e25 <sys_mprotect+0x4c>
/u/s/h/shirui/private/cs537/p3a/p3/xv6-sp20/kernel/sysproc.c:106
  105e12:	8b 55 f0             	mov    -0x10(%ebp),%edx
  105e15:	8b 45 f4             	mov    -0xc(%ebp),%eax
  105e18:	83 ec 08             	sub    $0x8,%esp
  105e1b:	52                   	push   %edx
  105e1c:	50                   	push   %eax
  105e1d:	e8 06 17 00 00       	call   107528 <mprotect>
  105e22:	83 c4 10             	add    $0x10,%esp
/u/s/h/shirui/private/cs537/p3a/p3/xv6-sp20/kernel/sysproc.c:108 (discriminator 1)
  105e25:	c9                   	leave  
  105e26:	c3                   	ret    

00105e27 <sys_dump_allocated>:
sys_dump_allocated():
/u/s/h/shirui/private/cs537/p3a/p3/xv6-sp20/kernel/sysproc.c:111
  105e27:	55                   	push   %ebp
  105e28:	89 e5                	mov    %esp,%ebp
  105e2a:	83 ec 18             	sub    $0x18,%esp
/u/s/h/shirui/private/cs537/p3a/p3/xv6-sp20/kernel/sysproc.c:114
  105e2d:	83 ec 04             	sub    $0x4,%esp
  105e30:	6a 04                	push   $0x4
  105e32:	8d 45 f4             	lea    -0xc(%ebp),%eax
  105e35:	50                   	push   %eax
  105e36:	6a 00                	push   $0x0
  105e38:	e8 7b ef ff ff       	call   104db8 <argptr>
  105e3d:	83 c4 10             	add    $0x10,%esp
  105e40:	85 c0                	test   %eax,%eax
  105e42:	78 15                	js     105e59 <sys_dump_allocated+0x32>
/u/s/h/shirui/private/cs537/p3a/p3/xv6-sp20/kernel/sysproc.c:114 (discriminator 1)
  105e44:	83 ec 08             	sub    $0x8,%esp
  105e47:	8d 45 f0             	lea    -0x10(%ebp),%eax
  105e4a:	50                   	push   %eax
  105e4b:	6a 01                	push   $0x1
  105e4d:	e8 37 ef ff ff       	call   104d89 <argint>
  105e52:	83 c4 10             	add    $0x10,%esp
  105e55:	85 c0                	test   %eax,%eax
  105e57:	79 07                	jns    105e60 <sys_dump_allocated+0x39>
/u/s/h/shirui/private/cs537/p3a/p3/xv6-sp20/kernel/sysproc.c:115
  105e59:	b8 ff ff ff ff       	mov    $0xffffffff,%eax
  105e5e:	eb 13                	jmp    105e73 <sys_dump_allocated+0x4c>
/u/s/h/shirui/private/cs537/p3a/p3/xv6-sp20/kernel/sysproc.c:116
  105e60:	8b 55 f0             	mov    -0x10(%ebp),%edx
  105e63:	8b 45 f4             	mov    -0xc(%ebp),%eax
  105e66:	83 ec 08             	sub    $0x8,%esp
  105e69:	52                   	push   %edx
  105e6a:	50                   	push   %eax
  105e6b:	e8 bb cd ff ff       	call   102c2b <dump_allocated>
  105e70:	83 c4 10             	add    $0x10,%esp
/u/s/h/shirui/private/cs537/p3a/p3/xv6-sp20/kernel/sysproc.c:118 (discriminator 1)
  105e73:	c9                   	leave  
  105e74:	c3                   	ret    

00105e75 <outb>:
outb():
/u/s/h/shirui/private/cs537/p3a/p3/xv6-sp20/include/x86.h:25
  105e75:	55                   	push   %ebp
  105e76:	89 e5                	mov    %esp,%ebp
  105e78:	83 ec 08             	sub    $0x8,%esp
  105e7b:	8b 55 08             	mov    0x8(%ebp),%edx
  105e7e:	8b 45 0c             	mov    0xc(%ebp),%eax
  105e81:	66 89 55 fc          	mov    %dx,-0x4(%ebp)
  105e85:	88 45 f8             	mov    %al,-0x8(%ebp)
/u/s/h/shirui/private/cs537/p3a/p3/xv6-sp20/include/x86.h:26
  105e88:	0f b6 45 f8          	movzbl -0x8(%ebp),%eax
  105e8c:	0f b7 55 fc          	movzwl -0x4(%ebp),%edx
  105e90:	ee                   	out    %al,(%dx)
/u/s/h/shirui/private/cs537/p3a/p3/xv6-sp20/include/x86.h:27
  105e91:	90                   	nop
  105e92:	c9                   	leave  
  105e93:	c3                   	ret    

00105e94 <timerinit>:
timerinit():
/u/s/h/shirui/private/cs537/p3a/p3/xv6-sp20/kernel/timer.c:26
  105e94:	55                   	push   %ebp
  105e95:	89 e5                	mov    %esp,%ebp
  105e97:	83 ec 08             	sub    $0x8,%esp
/u/s/h/shirui/private/cs537/p3a/p3/xv6-sp20/kernel/timer.c:28
  105e9a:	6a 34                	push   $0x34
  105e9c:	6a 43                	push   $0x43
  105e9e:	e8 d2 ff ff ff       	call   105e75 <outb>
  105ea3:	83 c4 08             	add    $0x8,%esp
/u/s/h/shirui/private/cs537/p3a/p3/xv6-sp20/kernel/timer.c:29
  105ea6:	68 9c 00 00 00       	push   $0x9c
  105eab:	6a 40                	push   $0x40
  105ead:	e8 c3 ff ff ff       	call   105e75 <outb>
  105eb2:	83 c4 08             	add    $0x8,%esp
/u/s/h/shirui/private/cs537/p3a/p3/xv6-sp20/kernel/timer.c:30
  105eb5:	6a 2e                	push   $0x2e
  105eb7:	6a 40                	push   $0x40
  105eb9:	e8 b7 ff ff ff       	call   105e75 <outb>
  105ebe:	83 c4 08             	add    $0x8,%esp
/u/s/h/shirui/private/cs537/p3a/p3/xv6-sp20/kernel/timer.c:31
  105ec1:	83 ec 0c             	sub    $0xc,%esp
  105ec4:	6a 00                	push   $0x0
  105ec6:	e8 13 d9 ff ff       	call   1037de <picenable>
  105ecb:	83 c4 10             	add    $0x10,%esp
/u/s/h/shirui/private/cs537/p3a/p3/xv6-sp20/kernel/timer.c:32
  105ece:	90                   	nop
  105ecf:	c9                   	leave  
  105ed0:	c3                   	ret    

00105ed1 <alltraps>:
alltraps():
/u/s/h/shirui/private/cs537/p3a/p3/xv6-sp20/kernel/trapasm.S:9
  105ed1:	1e                   	push   %ds
/u/s/h/shirui/private/cs537/p3a/p3/xv6-sp20/kernel/trapasm.S:10
  105ed2:	06                   	push   %es
/u/s/h/shirui/private/cs537/p3a/p3/xv6-sp20/kernel/trapasm.S:11
  105ed3:	0f a0                	push   %fs
/u/s/h/shirui/private/cs537/p3a/p3/xv6-sp20/kernel/trapasm.S:12
  105ed5:	0f a8                	push   %gs
/u/s/h/shirui/private/cs537/p3a/p3/xv6-sp20/kernel/trapasm.S:13
  105ed7:	60                   	pusha  
/u/s/h/shirui/private/cs537/p3a/p3/xv6-sp20/kernel/trapasm.S:16
  105ed8:	66 b8 10 00          	mov    $0x10,%ax
/u/s/h/shirui/private/cs537/p3a/p3/xv6-sp20/kernel/trapasm.S:17
  105edc:	8e d8                	mov    %eax,%ds
/u/s/h/shirui/private/cs537/p3a/p3/xv6-sp20/kernel/trapasm.S:18
  105ede:	8e c0                	mov    %eax,%es
/u/s/h/shirui/private/cs537/p3a/p3/xv6-sp20/kernel/trapasm.S:19
  105ee0:	66 b8 18 00          	mov    $0x18,%ax
/u/s/h/shirui/private/cs537/p3a/p3/xv6-sp20/kernel/trapasm.S:20
  105ee4:	8e e0                	mov    %eax,%fs
/u/s/h/shirui/private/cs537/p3a/p3/xv6-sp20/kernel/trapasm.S:21
  105ee6:	8e e8                	mov    %eax,%gs
/u/s/h/shirui/private/cs537/p3a/p3/xv6-sp20/kernel/trapasm.S:24
  105ee8:	54                   	push   %esp
/u/s/h/shirui/private/cs537/p3a/p3/xv6-sp20/kernel/trapasm.S:25
  105ee9:	e8 d7 01 00 00       	call   1060c5 <trap>
/u/s/h/shirui/private/cs537/p3a/p3/xv6-sp20/kernel/trapasm.S:26
  105eee:	83 c4 04             	add    $0x4,%esp

00105ef1 <trapret>:
trapret():
/u/s/h/shirui/private/cs537/p3a/p3/xv6-sp20/kernel/trapasm.S:31
  105ef1:	61                   	popa   
/u/s/h/shirui/private/cs537/p3a/p3/xv6-sp20/kernel/trapasm.S:32
  105ef2:	0f a9                	pop    %gs
/u/s/h/shirui/private/cs537/p3a/p3/xv6-sp20/kernel/trapasm.S:33
  105ef4:	0f a1                	pop    %fs
/u/s/h/shirui/private/cs537/p3a/p3/xv6-sp20/kernel/trapasm.S:34
  105ef6:	07                   	pop    %es
/u/s/h/shirui/private/cs537/p3a/p3/xv6-sp20/kernel/trapasm.S:35
  105ef7:	1f                   	pop    %ds
/u/s/h/shirui/private/cs537/p3a/p3/xv6-sp20/kernel/trapasm.S:36
  105ef8:	83 c4 08             	add    $0x8,%esp
/u/s/h/shirui/private/cs537/p3a/p3/xv6-sp20/kernel/trapasm.S:37
  105efb:	cf                   	iret   

00105efc <lidt>:
lidt():
/u/s/h/shirui/private/cs537/p3a/p3/xv6-sp20/include/x86.h:71
  105efc:	55                   	push   %ebp
  105efd:	89 e5                	mov    %esp,%ebp
  105eff:	83 ec 10             	sub    $0x10,%esp
/u/s/h/shirui/private/cs537/p3a/p3/xv6-sp20/include/x86.h:74
  105f02:	8b 45 0c             	mov    0xc(%ebp),%eax
  105f05:	83 e8 01             	sub    $0x1,%eax
  105f08:	66 89 45 fa          	mov    %ax,-0x6(%ebp)
/u/s/h/shirui/private/cs537/p3a/p3/xv6-sp20/include/x86.h:75
  105f0c:	8b 45 08             	mov    0x8(%ebp),%eax
  105f0f:	66 89 45 fc          	mov    %ax,-0x4(%ebp)
/u/s/h/shirui/private/cs537/p3a/p3/xv6-sp20/include/x86.h:76
  105f13:	8b 45 08             	mov    0x8(%ebp),%eax
  105f16:	c1 e8 10             	shr    $0x10,%eax
  105f19:	66 89 45 fe          	mov    %ax,-0x2(%ebp)
/u/s/h/shirui/private/cs537/p3a/p3/xv6-sp20/include/x86.h:78
  105f1d:	8d 45 fa             	lea    -0x6(%ebp),%eax
  105f20:	0f 01 18             	lidtl  (%eax)
/u/s/h/shirui/private/cs537/p3a/p3/xv6-sp20/include/x86.h:79
  105f23:	90                   	nop
  105f24:	c9                   	leave  
  105f25:	c3                   	ret    

00105f26 <rcr2>:
rcr2():
/u/s/h/shirui/private/cs537/p3a/p3/xv6-sp20/include/x86.h:158
  105f26:	55                   	push   %ebp
  105f27:	89 e5                	mov    %esp,%ebp
  105f29:	83 ec 10             	sub    $0x10,%esp
/u/s/h/shirui/private/cs537/p3a/p3/xv6-sp20/include/x86.h:160
  105f2c:	0f 20 d0             	mov    %cr2,%eax
  105f2f:	89 45 fc             	mov    %eax,-0x4(%ebp)
/u/s/h/shirui/private/cs537/p3a/p3/xv6-sp20/include/x86.h:161
  105f32:	8b 45 fc             	mov    -0x4(%ebp),%eax
/u/s/h/shirui/private/cs537/p3a/p3/xv6-sp20/include/x86.h:162
  105f35:	c9                   	leave  
  105f36:	c3                   	ret    

00105f37 <tvinit>:
tvinit():
/u/s/h/shirui/private/cs537/p3a/p3/xv6-sp20/kernel/trap.c:18
  105f37:	55                   	push   %ebp
  105f38:	89 e5                	mov    %esp,%ebp
  105f3a:	83 ec 18             	sub    $0x18,%esp
/u/s/h/shirui/private/cs537/p3a/p3/xv6-sp20/kernel/trap.c:21
  105f3d:	c7 45 f4 00 00 00 00 	movl   $0x0,-0xc(%ebp)
  105f44:	e9 c3 00 00 00       	jmp    10600c <tvinit+0xd5>
/u/s/h/shirui/private/cs537/p3a/p3/xv6-sp20/kernel/trap.c:22 (discriminator 3)
  105f49:	8b 45 f4             	mov    -0xc(%ebp),%eax
  105f4c:	8b 04 85 c4 b5 10 00 	mov    0x10b5c4(,%eax,4),%eax
  105f53:	89 c2                	mov    %eax,%edx
  105f55:	8b 45 f4             	mov    -0xc(%ebp),%eax
  105f58:	66 89 14 c5 60 23 11 	mov    %dx,0x112360(,%eax,8)
  105f5f:	00 
  105f60:	8b 45 f4             	mov    -0xc(%ebp),%eax
  105f63:	66 c7 04 c5 62 23 11 	movw   $0x8,0x112362(,%eax,8)
  105f6a:	00 08 00 
  105f6d:	8b 45 f4             	mov    -0xc(%ebp),%eax
  105f70:	0f b6 14 c5 64 23 11 	movzbl 0x112364(,%eax,8),%edx
  105f77:	00 
  105f78:	83 e2 e0             	and    $0xffffffe0,%edx
  105f7b:	88 14 c5 64 23 11 00 	mov    %dl,0x112364(,%eax,8)
  105f82:	8b 45 f4             	mov    -0xc(%ebp),%eax
  105f85:	0f b6 14 c5 64 23 11 	movzbl 0x112364(,%eax,8),%edx
  105f8c:	00 
  105f8d:	83 e2 1f             	and    $0x1f,%edx
  105f90:	88 14 c5 64 23 11 00 	mov    %dl,0x112364(,%eax,8)
  105f97:	8b 45 f4             	mov    -0xc(%ebp),%eax
  105f9a:	0f b6 14 c5 65 23 11 	movzbl 0x112365(,%eax,8),%edx
  105fa1:	00 
  105fa2:	83 e2 f0             	and    $0xfffffff0,%edx
  105fa5:	83 ca 0e             	or     $0xe,%edx
  105fa8:	88 14 c5 65 23 11 00 	mov    %dl,0x112365(,%eax,8)
  105faf:	8b 45 f4             	mov    -0xc(%ebp),%eax
  105fb2:	0f b6 14 c5 65 23 11 	movzbl 0x112365(,%eax,8),%edx
  105fb9:	00 
  105fba:	83 e2 ef             	and    $0xffffffef,%edx
  105fbd:	88 14 c5 65 23 11 00 	mov    %dl,0x112365(,%eax,8)
  105fc4:	8b 45 f4             	mov    -0xc(%ebp),%eax
  105fc7:	0f b6 14 c5 65 23 11 	movzbl 0x112365(,%eax,8),%edx
  105fce:	00 
  105fcf:	83 e2 9f             	and    $0xffffff9f,%edx
  105fd2:	88 14 c5 65 23 11 00 	mov    %dl,0x112365(,%eax,8)
  105fd9:	8b 45 f4             	mov    -0xc(%ebp),%eax
  105fdc:	0f b6 14 c5 65 23 11 	movzbl 0x112365(,%eax,8),%edx
  105fe3:	00 
  105fe4:	83 ca 80             	or     $0xffffff80,%edx
  105fe7:	88 14 c5 65 23 11 00 	mov    %dl,0x112365(,%eax,8)
  105fee:	8b 45 f4             	mov    -0xc(%ebp),%eax
  105ff1:	8b 04 85 c4 b5 10 00 	mov    0x10b5c4(,%eax,4),%eax
  105ff8:	c1 e8 10             	shr    $0x10,%eax
  105ffb:	89 c2                	mov    %eax,%edx
  105ffd:	8b 45 f4             	mov    -0xc(%ebp),%eax
  106000:	66 89 14 c5 66 23 11 	mov    %dx,0x112366(,%eax,8)
  106007:	00 
/u/s/h/shirui/private/cs537/p3a/p3/xv6-sp20/kernel/trap.c:21 (discriminator 3)
  106008:	83 45 f4 01          	addl   $0x1,-0xc(%ebp)
/u/s/h/shirui/private/cs537/p3a/p3/xv6-sp20/kernel/trap.c:21 (discriminator 1)
  10600c:	81 7d f4 ff 00 00 00 	cmpl   $0xff,-0xc(%ebp)
  106013:	0f 8e 30 ff ff ff    	jle    105f49 <tvinit+0x12>
/u/s/h/shirui/private/cs537/p3a/p3/xv6-sp20/kernel/trap.c:23
  106019:	a1 c4 b6 10 00       	mov    0x10b6c4,%eax
  10601e:	66 a3 60 25 11 00    	mov    %ax,0x112560
  106024:	66 c7 05 62 25 11 00 	movw   $0x8,0x112562
  10602b:	08 00 
  10602d:	0f b6 05 64 25 11 00 	movzbl 0x112564,%eax
  106034:	83 e0 e0             	and    $0xffffffe0,%eax
  106037:	a2 64 25 11 00       	mov    %al,0x112564
  10603c:	0f b6 05 64 25 11 00 	movzbl 0x112564,%eax
  106043:	83 e0 1f             	and    $0x1f,%eax
  106046:	a2 64 25 11 00       	mov    %al,0x112564
  10604b:	0f b6 05 65 25 11 00 	movzbl 0x112565,%eax
  106052:	83 c8 0f             	or     $0xf,%eax
  106055:	a2 65 25 11 00       	mov    %al,0x112565
  10605a:	0f b6 05 65 25 11 00 	movzbl 0x112565,%eax
  106061:	83 e0 ef             	and    $0xffffffef,%eax
  106064:	a2 65 25 11 00       	mov    %al,0x112565
  106069:	0f b6 05 65 25 11 00 	movzbl 0x112565,%eax
  106070:	83 c8 60             	or     $0x60,%eax
  106073:	a2 65 25 11 00       	mov    %al,0x112565
  106078:	0f b6 05 65 25 11 00 	movzbl 0x112565,%eax
  10607f:	83 c8 80             	or     $0xffffff80,%eax
  106082:	a2 65 25 11 00       	mov    %al,0x112565
  106087:	a1 c4 b6 10 00       	mov    0x10b6c4,%eax
  10608c:	c1 e8 10             	shr    $0x10,%eax
  10608f:	66 a3 66 25 11 00    	mov    %ax,0x112566
/u/s/h/shirui/private/cs537/p3a/p3/xv6-sp20/kernel/trap.c:25
  106095:	83 ec 08             	sub    $0x8,%esp
  106098:	68 48 83 10 00       	push   $0x108348
  10609d:	68 20 23 11 00       	push   $0x112320
  1060a2:	e8 b7 e7 ff ff       	call   10485e <initlock>
  1060a7:	83 c4 10             	add    $0x10,%esp
/u/s/h/shirui/private/cs537/p3a/p3/xv6-sp20/kernel/trap.c:26
  1060aa:	90                   	nop
  1060ab:	c9                   	leave  
  1060ac:	c3                   	ret    

001060ad <idtinit>:
idtinit():
/u/s/h/shirui/private/cs537/p3a/p3/xv6-sp20/kernel/trap.c:30
  1060ad:	55                   	push   %ebp
  1060ae:	89 e5                	mov    %esp,%ebp
/u/s/h/shirui/private/cs537/p3a/p3/xv6-sp20/kernel/trap.c:31
  1060b0:	68 00 08 00 00       	push   $0x800
  1060b5:	68 60 23 11 00       	push   $0x112360
  1060ba:	e8 3d fe ff ff       	call   105efc <lidt>
  1060bf:	83 c4 08             	add    $0x8,%esp
/u/s/h/shirui/private/cs537/p3a/p3/xv6-sp20/kernel/trap.c:32
  1060c2:	90                   	nop
  1060c3:	c9                   	leave  
  1060c4:	c3                   	ret    

001060c5 <trap>:
trap():
/u/s/h/shirui/private/cs537/p3a/p3/xv6-sp20/kernel/trap.c:36
  1060c5:	55                   	push   %ebp
  1060c6:	89 e5                	mov    %esp,%ebp
  1060c8:	57                   	push   %edi
  1060c9:	56                   	push   %esi
  1060ca:	53                   	push   %ebx
  1060cb:	83 ec 1c             	sub    $0x1c,%esp
/u/s/h/shirui/private/cs537/p3a/p3/xv6-sp20/kernel/trap.c:37
  1060ce:	8b 45 08             	mov    0x8(%ebp),%eax
  1060d1:	8b 40 30             	mov    0x30(%eax),%eax
  1060d4:	83 f8 40             	cmp    $0x40,%eax
  1060d7:	75 3e                	jne    106117 <trap+0x52>
/u/s/h/shirui/private/cs537/p3a/p3/xv6-sp20/kernel/trap.c:38
  1060d9:	65 a1 04 00 00 00    	mov    %gs:0x4,%eax
  1060df:	8b 40 24             	mov    0x24(%eax),%eax
  1060e2:	85 c0                	test   %eax,%eax
  1060e4:	74 05                	je     1060eb <trap+0x26>
/u/s/h/shirui/private/cs537/p3a/p3/xv6-sp20/kernel/trap.c:39
  1060e6:	e8 95 e0 ff ff       	call   104180 <exit>
/u/s/h/shirui/private/cs537/p3a/p3/xv6-sp20/kernel/trap.c:40
  1060eb:	65 a1 04 00 00 00    	mov    %gs:0x4,%eax
  1060f1:	8b 55 08             	mov    0x8(%ebp),%edx
  1060f4:	89 50 18             	mov    %edx,0x18(%eax)
/u/s/h/shirui/private/cs537/p3a/p3/xv6-sp20/kernel/trap.c:41
  1060f7:	e8 53 ed ff ff       	call   104e4f <syscall>
/u/s/h/shirui/private/cs537/p3a/p3/xv6-sp20/kernel/trap.c:42
  1060fc:	65 a1 04 00 00 00    	mov    %gs:0x4,%eax
  106102:	8b 40 24             	mov    0x24(%eax),%eax
  106105:	85 c0                	test   %eax,%eax
  106107:	0f 84 1b 02 00 00    	je     106328 <trap+0x263>
/u/s/h/shirui/private/cs537/p3a/p3/xv6-sp20/kernel/trap.c:43
  10610d:	e8 6e e0 ff ff       	call   104180 <exit>
/u/s/h/shirui/private/cs537/p3a/p3/xv6-sp20/kernel/trap.c:44
  106112:	e9 11 02 00 00       	jmp    106328 <trap+0x263>
/u/s/h/shirui/private/cs537/p3a/p3/xv6-sp20/kernel/trap.c:47
  106117:	8b 45 08             	mov    0x8(%ebp),%eax
  10611a:	8b 40 30             	mov    0x30(%eax),%eax
  10611d:	83 e8 20             	sub    $0x20,%eax
  106120:	83 f8 1f             	cmp    $0x1f,%eax
  106123:	0f 87 c0 00 00 00    	ja     1061e9 <trap+0x124>
  106129:	8b 04 85 f0 83 10 00 	mov    0x1083f0(,%eax,4),%eax
  106130:	ff e0                	jmp    *%eax
/u/s/h/shirui/private/cs537/p3a/p3/xv6-sp20/kernel/trap.c:49
  106132:	65 a1 00 00 00 00    	mov    %gs:0x0,%eax
  106138:	0f b6 00             	movzbl (%eax),%eax
  10613b:	84 c0                	test   %al,%al
  10613d:	75 3d                	jne    10617c <trap+0xb7>
/u/s/h/shirui/private/cs537/p3a/p3/xv6-sp20/kernel/trap.c:50
  10613f:	83 ec 0c             	sub    $0xc,%esp
  106142:	68 20 23 11 00       	push   $0x112320
  106147:	e8 34 e7 ff ff       	call   104880 <acquire>
  10614c:	83 c4 10             	add    $0x10,%esp
/u/s/h/shirui/private/cs537/p3a/p3/xv6-sp20/kernel/trap.c:51
  10614f:	a1 60 2b 11 00       	mov    0x112b60,%eax
  106154:	83 c0 01             	add    $0x1,%eax
  106157:	a3 60 2b 11 00       	mov    %eax,0x112b60
/u/s/h/shirui/private/cs537/p3a/p3/xv6-sp20/kernel/trap.c:52
  10615c:	83 ec 0c             	sub    $0xc,%esp
  10615f:	68 60 2b 11 00       	push   $0x112b60
  106164:	e8 09 e5 ff ff       	call   104672 <wakeup>
  106169:	83 c4 10             	add    $0x10,%esp
/u/s/h/shirui/private/cs537/p3a/p3/xv6-sp20/kernel/trap.c:53
  10616c:	83 ec 0c             	sub    $0xc,%esp
  10616f:	68 20 23 11 00       	push   $0x112320
  106174:	e8 6e e7 ff ff       	call   1048e7 <release>
  106179:	83 c4 10             	add    $0x10,%esp
/u/s/h/shirui/private/cs537/p3a/p3/xv6-sp20/kernel/trap.c:55
  10617c:	e8 97 ce ff ff       	call   103018 <lapiceoi>
/u/s/h/shirui/private/cs537/p3a/p3/xv6-sp20/kernel/trap.c:56
  106181:	e9 1c 01 00 00       	jmp    1062a2 <trap+0x1dd>
/u/s/h/shirui/private/cs537/p3a/p3/xv6-sp20/kernel/trap.c:58
  106186:	e8 ae c5 ff ff       	call   102739 <ideintr>
/u/s/h/shirui/private/cs537/p3a/p3/xv6-sp20/kernel/trap.c:59
  10618b:	e8 88 ce ff ff       	call   103018 <lapiceoi>
/u/s/h/shirui/private/cs537/p3a/p3/xv6-sp20/kernel/trap.c:60
  106190:	e9 0d 01 00 00       	jmp    1062a2 <trap+0x1dd>
/u/s/h/shirui/private/cs537/p3a/p3/xv6-sp20/kernel/trap.c:65
  106195:	e8 57 cc ff ff       	call   102df1 <kbdintr>
/u/s/h/shirui/private/cs537/p3a/p3/xv6-sp20/kernel/trap.c:66
  10619a:	e8 79 ce ff ff       	call   103018 <lapiceoi>
/u/s/h/shirui/private/cs537/p3a/p3/xv6-sp20/kernel/trap.c:67
  10619f:	e9 fe 00 00 00       	jmp    1062a2 <trap+0x1dd>
/u/s/h/shirui/private/cs537/p3a/p3/xv6-sp20/kernel/trap.c:69
  1061a4:	e8 60 03 00 00       	call   106509 <uartintr>
/u/s/h/shirui/private/cs537/p3a/p3/xv6-sp20/kernel/trap.c:70
  1061a9:	e8 6a ce ff ff       	call   103018 <lapiceoi>
/u/s/h/shirui/private/cs537/p3a/p3/xv6-sp20/kernel/trap.c:71
  1061ae:	e9 ef 00 00 00       	jmp    1062a2 <trap+0x1dd>
/u/s/h/shirui/private/cs537/p3a/p3/xv6-sp20/kernel/trap.c:74
  1061b3:	8b 45 08             	mov    0x8(%ebp),%eax
  1061b6:	8b 48 38             	mov    0x38(%eax),%ecx
/u/s/h/shirui/private/cs537/p3a/p3/xv6-sp20/kernel/trap.c:75
  1061b9:	8b 45 08             	mov    0x8(%ebp),%eax
  1061bc:	0f b7 40 3c          	movzwl 0x3c(%eax),%eax
/u/s/h/shirui/private/cs537/p3a/p3/xv6-sp20/kernel/trap.c:74
  1061c0:	0f b7 d0             	movzwl %ax,%edx
/u/s/h/shirui/private/cs537/p3a/p3/xv6-sp20/kernel/trap.c:75
  1061c3:	65 a1 00 00 00 00    	mov    %gs:0x0,%eax
  1061c9:	0f b6 00             	movzbl (%eax),%eax
/u/s/h/shirui/private/cs537/p3a/p3/xv6-sp20/kernel/trap.c:74
  1061cc:	0f b6 c0             	movzbl %al,%eax
  1061cf:	51                   	push   %ecx
  1061d0:	52                   	push   %edx
  1061d1:	50                   	push   %eax
  1061d2:	68 50 83 10 00       	push   $0x108350
  1061d7:	e8 10 a2 ff ff       	call   1003ec <cprintf>
  1061dc:	83 c4 10             	add    $0x10,%esp
/u/s/h/shirui/private/cs537/p3a/p3/xv6-sp20/kernel/trap.c:76
  1061df:	e8 34 ce ff ff       	call   103018 <lapiceoi>
/u/s/h/shirui/private/cs537/p3a/p3/xv6-sp20/kernel/trap.c:77
  1061e4:	e9 b9 00 00 00       	jmp    1062a2 <trap+0x1dd>
/u/s/h/shirui/private/cs537/p3a/p3/xv6-sp20/kernel/trap.c:80
  1061e9:	65 a1 04 00 00 00    	mov    %gs:0x4,%eax
  1061ef:	85 c0                	test   %eax,%eax
  1061f1:	74 11                	je     106204 <trap+0x13f>
/u/s/h/shirui/private/cs537/p3a/p3/xv6-sp20/kernel/trap.c:80 (discriminator 1)
  1061f3:	8b 45 08             	mov    0x8(%ebp),%eax
  1061f6:	0f b7 40 3c          	movzwl 0x3c(%eax),%eax
  1061fa:	0f b7 c0             	movzwl %ax,%eax
  1061fd:	83 e0 03             	and    $0x3,%eax
  106200:	85 c0                	test   %eax,%eax
  106202:	75 40                	jne    106244 <trap+0x17f>
/u/s/h/shirui/private/cs537/p3a/p3/xv6-sp20/kernel/trap.c:82
  106204:	e8 1d fd ff ff       	call   105f26 <rcr2>
  106209:	89 c3                	mov    %eax,%ebx
  10620b:	8b 45 08             	mov    0x8(%ebp),%eax
  10620e:	8b 48 38             	mov    0x38(%eax),%ecx
/u/s/h/shirui/private/cs537/p3a/p3/xv6-sp20/kernel/trap.c:83
  106211:	65 a1 00 00 00 00    	mov    %gs:0x0,%eax
  106217:	0f b6 00             	movzbl (%eax),%eax
/u/s/h/shirui/private/cs537/p3a/p3/xv6-sp20/kernel/trap.c:82
  10621a:	0f b6 d0             	movzbl %al,%edx
  10621d:	8b 45 08             	mov    0x8(%ebp),%eax
  106220:	8b 40 30             	mov    0x30(%eax),%eax
  106223:	83 ec 0c             	sub    $0xc,%esp
  106226:	53                   	push   %ebx
  106227:	51                   	push   %ecx
  106228:	52                   	push   %edx
  106229:	50                   	push   %eax
  10622a:	68 74 83 10 00       	push   $0x108374
  10622f:	e8 b8 a1 ff ff       	call   1003ec <cprintf>
  106234:	83 c4 20             	add    $0x20,%esp
/u/s/h/shirui/private/cs537/p3a/p3/xv6-sp20/kernel/trap.c:84
  106237:	83 ec 0c             	sub    $0xc,%esp
  10623a:	68 a6 83 10 00       	push   $0x1083a6
  10623f:	e8 34 a3 ff ff       	call   100578 <panic>
/u/s/h/shirui/private/cs537/p3a/p3/xv6-sp20/kernel/trap.c:87
  106244:	e8 dd fc ff ff       	call   105f26 <rcr2>
  106249:	89 45 e4             	mov    %eax,-0x1c(%ebp)
  10624c:	8b 45 08             	mov    0x8(%ebp),%eax
  10624f:	8b 70 38             	mov    0x38(%eax),%esi
/u/s/h/shirui/private/cs537/p3a/p3/xv6-sp20/kernel/trap.c:89
  106252:	65 a1 00 00 00 00    	mov    %gs:0x0,%eax
  106258:	0f b6 00             	movzbl (%eax),%eax
/u/s/h/shirui/private/cs537/p3a/p3/xv6-sp20/kernel/trap.c:87
  10625b:	0f b6 d8             	movzbl %al,%ebx
  10625e:	8b 45 08             	mov    0x8(%ebp),%eax
  106261:	8b 48 34             	mov    0x34(%eax),%ecx
  106264:	8b 45 08             	mov    0x8(%ebp),%eax
  106267:	8b 50 30             	mov    0x30(%eax),%edx
/u/s/h/shirui/private/cs537/p3a/p3/xv6-sp20/kernel/trap.c:89
  10626a:	65 a1 04 00 00 00    	mov    %gs:0x4,%eax
  106270:	8d 78 6c             	lea    0x6c(%eax),%edi
  106273:	65 a1 04 00 00 00    	mov    %gs:0x4,%eax
/u/s/h/shirui/private/cs537/p3a/p3/xv6-sp20/kernel/trap.c:87
  106279:	8b 40 10             	mov    0x10(%eax),%eax
  10627c:	ff 75 e4             	pushl  -0x1c(%ebp)
  10627f:	56                   	push   %esi
  106280:	53                   	push   %ebx
  106281:	51                   	push   %ecx
  106282:	52                   	push   %edx
  106283:	57                   	push   %edi
  106284:	50                   	push   %eax
  106285:	68 ac 83 10 00       	push   $0x1083ac
  10628a:	e8 5d a1 ff ff       	call   1003ec <cprintf>
  10628f:	83 c4 20             	add    $0x20,%esp
/u/s/h/shirui/private/cs537/p3a/p3/xv6-sp20/kernel/trap.c:91
  106292:	65 a1 04 00 00 00    	mov    %gs:0x4,%eax
  106298:	c7 40 24 01 00 00 00 	movl   $0x1,0x24(%eax)
  10629f:	eb 01                	jmp    1062a2 <trap+0x1dd>
/u/s/h/shirui/private/cs537/p3a/p3/xv6-sp20/kernel/trap.c:63
  1062a1:	90                   	nop
/u/s/h/shirui/private/cs537/p3a/p3/xv6-sp20/kernel/trap.c:97
  1062a2:	65 a1 04 00 00 00    	mov    %gs:0x4,%eax
  1062a8:	85 c0                	test   %eax,%eax
  1062aa:	74 24                	je     1062d0 <trap+0x20b>
/u/s/h/shirui/private/cs537/p3a/p3/xv6-sp20/kernel/trap.c:97 (discriminator 1)
  1062ac:	65 a1 04 00 00 00    	mov    %gs:0x4,%eax
  1062b2:	8b 40 24             	mov    0x24(%eax),%eax
  1062b5:	85 c0                	test   %eax,%eax
  1062b7:	74 17                	je     1062d0 <trap+0x20b>
/u/s/h/shirui/private/cs537/p3a/p3/xv6-sp20/kernel/trap.c:97 (discriminator 2)
  1062b9:	8b 45 08             	mov    0x8(%ebp),%eax
  1062bc:	0f b7 40 3c          	movzwl 0x3c(%eax),%eax
  1062c0:	0f b7 c0             	movzwl %ax,%eax
  1062c3:	83 e0 03             	and    $0x3,%eax
  1062c6:	83 f8 03             	cmp    $0x3,%eax
  1062c9:	75 05                	jne    1062d0 <trap+0x20b>
/u/s/h/shirui/private/cs537/p3a/p3/xv6-sp20/kernel/trap.c:98
  1062cb:	e8 b0 de ff ff       	call   104180 <exit>
/u/s/h/shirui/private/cs537/p3a/p3/xv6-sp20/kernel/trap.c:102
  1062d0:	65 a1 04 00 00 00    	mov    %gs:0x4,%eax
  1062d6:	85 c0                	test   %eax,%eax
  1062d8:	74 1e                	je     1062f8 <trap+0x233>
/u/s/h/shirui/private/cs537/p3a/p3/xv6-sp20/kernel/trap.c:102 (discriminator 1)
  1062da:	65 a1 04 00 00 00    	mov    %gs:0x4,%eax
  1062e0:	8b 40 0c             	mov    0xc(%eax),%eax
  1062e3:	83 f8 04             	cmp    $0x4,%eax
  1062e6:	75 10                	jne    1062f8 <trap+0x233>
/u/s/h/shirui/private/cs537/p3a/p3/xv6-sp20/kernel/trap.c:102 (discriminator 2)
  1062e8:	8b 45 08             	mov    0x8(%ebp),%eax
  1062eb:	8b 40 30             	mov    0x30(%eax),%eax
  1062ee:	83 f8 20             	cmp    $0x20,%eax
  1062f1:	75 05                	jne    1062f8 <trap+0x233>
/u/s/h/shirui/private/cs537/p3a/p3/xv6-sp20/kernel/trap.c:103
  1062f3:	e8 3b e2 ff ff       	call   104533 <yield>
/u/s/h/shirui/private/cs537/p3a/p3/xv6-sp20/kernel/trap.c:106
  1062f8:	65 a1 04 00 00 00    	mov    %gs:0x4,%eax
  1062fe:	85 c0                	test   %eax,%eax
  106300:	74 27                	je     106329 <trap+0x264>
/u/s/h/shirui/private/cs537/p3a/p3/xv6-sp20/kernel/trap.c:106 (discriminator 1)
  106302:	65 a1 04 00 00 00    	mov    %gs:0x4,%eax
  106308:	8b 40 24             	mov    0x24(%eax),%eax
  10630b:	85 c0                	test   %eax,%eax
  10630d:	74 1a                	je     106329 <trap+0x264>
/u/s/h/shirui/private/cs537/p3a/p3/xv6-sp20/kernel/trap.c:106 (discriminator 2)
  10630f:	8b 45 08             	mov    0x8(%ebp),%eax
  106312:	0f b7 40 3c          	movzwl 0x3c(%eax),%eax
  106316:	0f b7 c0             	movzwl %ax,%eax
  106319:	83 e0 03             	and    $0x3,%eax
  10631c:	83 f8 03             	cmp    $0x3,%eax
  10631f:	75 08                	jne    106329 <trap+0x264>
/u/s/h/shirui/private/cs537/p3a/p3/xv6-sp20/kernel/trap.c:107
  106321:	e8 5a de ff ff       	call   104180 <exit>
  106326:	eb 01                	jmp    106329 <trap+0x264>
/u/s/h/shirui/private/cs537/p3a/p3/xv6-sp20/kernel/trap.c:44
  106328:	90                   	nop
/u/s/h/shirui/private/cs537/p3a/p3/xv6-sp20/kernel/trap.c:108
  106329:	8d 65 f4             	lea    -0xc(%ebp),%esp
  10632c:	5b                   	pop    %ebx
  10632d:	5e                   	pop    %esi
  10632e:	5f                   	pop    %edi
  10632f:	5d                   	pop    %ebp
  106330:	c3                   	ret    

00106331 <inb>:
inb():
/u/s/h/shirui/private/cs537/p3a/p3/xv6-sp20/include/x86.h:7
  106331:	55                   	push   %ebp
  106332:	89 e5                	mov    %esp,%ebp
  106334:	83 ec 14             	sub    $0x14,%esp
  106337:	8b 45 08             	mov    0x8(%ebp),%eax
  10633a:	66 89 45 ec          	mov    %ax,-0x14(%ebp)
/u/s/h/shirui/private/cs537/p3a/p3/xv6-sp20/include/x86.h:10
  10633e:	0f b7 45 ec          	movzwl -0x14(%ebp),%eax
  106342:	89 c2                	mov    %eax,%edx
  106344:	ec                   	in     (%dx),%al
  106345:	88 45 ff             	mov    %al,-0x1(%ebp)
/u/s/h/shirui/private/cs537/p3a/p3/xv6-sp20/include/x86.h:11
  106348:	0f b6 45 ff          	movzbl -0x1(%ebp),%eax
/u/s/h/shirui/private/cs537/p3a/p3/xv6-sp20/include/x86.h:12
  10634c:	c9                   	leave  
  10634d:	c3                   	ret    

0010634e <outb>:
outb():
/u/s/h/shirui/private/cs537/p3a/p3/xv6-sp20/include/x86.h:25
  10634e:	55                   	push   %ebp
  10634f:	89 e5                	mov    %esp,%ebp
  106351:	83 ec 08             	sub    $0x8,%esp
  106354:	8b 55 08             	mov    0x8(%ebp),%edx
  106357:	8b 45 0c             	mov    0xc(%ebp),%eax
  10635a:	66 89 55 fc          	mov    %dx,-0x4(%ebp)
  10635e:	88 45 f8             	mov    %al,-0x8(%ebp)
/u/s/h/shirui/private/cs537/p3a/p3/xv6-sp20/include/x86.h:26
  106361:	0f b6 45 f8          	movzbl -0x8(%ebp),%eax
  106365:	0f b7 55 fc          	movzwl -0x4(%ebp),%edx
  106369:	ee                   	out    %al,(%dx)
/u/s/h/shirui/private/cs537/p3a/p3/xv6-sp20/include/x86.h:27
  10636a:	90                   	nop
  10636b:	c9                   	leave  
  10636c:	c3                   	ret    

0010636d <uartinit>:
uartinit():
/u/s/h/shirui/private/cs537/p3a/p3/xv6-sp20/kernel/uart.c:20
  10636d:	55                   	push   %ebp
  10636e:	89 e5                	mov    %esp,%ebp
  106370:	83 ec 18             	sub    $0x18,%esp
/u/s/h/shirui/private/cs537/p3a/p3/xv6-sp20/kernel/uart.c:24
  106373:	6a 00                	push   $0x0
  106375:	68 fa 03 00 00       	push   $0x3fa
  10637a:	e8 cf ff ff ff       	call   10634e <outb>
  10637f:	83 c4 08             	add    $0x8,%esp
/u/s/h/shirui/private/cs537/p3a/p3/xv6-sp20/kernel/uart.c:27
  106382:	68 80 00 00 00       	push   $0x80
  106387:	68 fb 03 00 00       	push   $0x3fb
  10638c:	e8 bd ff ff ff       	call   10634e <outb>
  106391:	83 c4 08             	add    $0x8,%esp
/u/s/h/shirui/private/cs537/p3a/p3/xv6-sp20/kernel/uart.c:28
  106394:	6a 0c                	push   $0xc
  106396:	68 f8 03 00 00       	push   $0x3f8
  10639b:	e8 ae ff ff ff       	call   10634e <outb>
  1063a0:	83 c4 08             	add    $0x8,%esp
/u/s/h/shirui/private/cs537/p3a/p3/xv6-sp20/kernel/uart.c:29
  1063a3:	6a 00                	push   $0x0
  1063a5:	68 f9 03 00 00       	push   $0x3f9
  1063aa:	e8 9f ff ff ff       	call   10634e <outb>
  1063af:	83 c4 08             	add    $0x8,%esp
/u/s/h/shirui/private/cs537/p3a/p3/xv6-sp20/kernel/uart.c:30
  1063b2:	6a 03                	push   $0x3
  1063b4:	68 fb 03 00 00       	push   $0x3fb
  1063b9:	e8 90 ff ff ff       	call   10634e <outb>
  1063be:	83 c4 08             	add    $0x8,%esp
/u/s/h/shirui/private/cs537/p3a/p3/xv6-sp20/kernel/uart.c:31
  1063c1:	6a 00                	push   $0x0
  1063c3:	68 fc 03 00 00       	push   $0x3fc
  1063c8:	e8 81 ff ff ff       	call   10634e <outb>
  1063cd:	83 c4 08             	add    $0x8,%esp
/u/s/h/shirui/private/cs537/p3a/p3/xv6-sp20/kernel/uart.c:32
  1063d0:	6a 01                	push   $0x1
  1063d2:	68 f9 03 00 00       	push   $0x3f9
  1063d7:	e8 72 ff ff ff       	call   10634e <outb>
  1063dc:	83 c4 08             	add    $0x8,%esp
/u/s/h/shirui/private/cs537/p3a/p3/xv6-sp20/kernel/uart.c:35
  1063df:	68 fd 03 00 00       	push   $0x3fd
  1063e4:	e8 48 ff ff ff       	call   106331 <inb>
  1063e9:	83 c4 04             	add    $0x4,%esp
  1063ec:	3c ff                	cmp    $0xff,%al
  1063ee:	74 6e                	je     10645e <uartinit+0xf1>
/u/s/h/shirui/private/cs537/p3a/p3/xv6-sp20/kernel/uart.c:37
  1063f0:	c7 05 6c bb 10 00 01 	movl   $0x1,0x10bb6c
  1063f7:	00 00 00 
/u/s/h/shirui/private/cs537/p3a/p3/xv6-sp20/kernel/uart.c:41
  1063fa:	68 fa 03 00 00       	push   $0x3fa
  1063ff:	e8 2d ff ff ff       	call   106331 <inb>
  106404:	83 c4 04             	add    $0x4,%esp
/u/s/h/shirui/private/cs537/p3a/p3/xv6-sp20/kernel/uart.c:42
  106407:	68 f8 03 00 00       	push   $0x3f8
  10640c:	e8 20 ff ff ff       	call   106331 <inb>
  106411:	83 c4 04             	add    $0x4,%esp
/u/s/h/shirui/private/cs537/p3a/p3/xv6-sp20/kernel/uart.c:43
  106414:	83 ec 0c             	sub    $0xc,%esp
  106417:	6a 04                	push   $0x4
  106419:	e8 c0 d3 ff ff       	call   1037de <picenable>
  10641e:	83 c4 10             	add    $0x10,%esp
/u/s/h/shirui/private/cs537/p3a/p3/xv6-sp20/kernel/uart.c:44
  106421:	83 ec 08             	sub    $0x8,%esp
  106424:	6a 00                	push   $0x0
  106426:	6a 04                	push   $0x4
  106428:	e8 ae c5 ff ff       	call   1029db <ioapicenable>
  10642d:	83 c4 10             	add    $0x10,%esp
/u/s/h/shirui/private/cs537/p3a/p3/xv6-sp20/kernel/uart.c:47
  106430:	c7 45 f4 70 84 10 00 	movl   $0x108470,-0xc(%ebp)
  106437:	eb 19                	jmp    106452 <uartinit+0xe5>
/u/s/h/shirui/private/cs537/p3a/p3/xv6-sp20/kernel/uart.c:48 (discriminator 3)
  106439:	8b 45 f4             	mov    -0xc(%ebp),%eax
  10643c:	0f b6 00             	movzbl (%eax),%eax
  10643f:	0f be c0             	movsbl %al,%eax
  106442:	83 ec 0c             	sub    $0xc,%esp
  106445:	50                   	push   %eax
  106446:	e8 16 00 00 00       	call   106461 <uartputc>
  10644b:	83 c4 10             	add    $0x10,%esp
/u/s/h/shirui/private/cs537/p3a/p3/xv6-sp20/kernel/uart.c:47 (discriminator 3)
  10644e:	83 45 f4 01          	addl   $0x1,-0xc(%ebp)
/u/s/h/shirui/private/cs537/p3a/p3/xv6-sp20/kernel/uart.c:47 (discriminator 1)
  106452:	8b 45 f4             	mov    -0xc(%ebp),%eax
  106455:	0f b6 00             	movzbl (%eax),%eax
  106458:	84 c0                	test   %al,%al
  10645a:	75 dd                	jne    106439 <uartinit+0xcc>
  10645c:	eb 01                	jmp    10645f <uartinit+0xf2>
/u/s/h/shirui/private/cs537/p3a/p3/xv6-sp20/kernel/uart.c:36
  10645e:	90                   	nop
/u/s/h/shirui/private/cs537/p3a/p3/xv6-sp20/kernel/uart.c:49
  10645f:	c9                   	leave  
  106460:	c3                   	ret    

00106461 <uartputc>:
uartputc():
/u/s/h/shirui/private/cs537/p3a/p3/xv6-sp20/kernel/uart.c:53
  106461:	55                   	push   %ebp
  106462:	89 e5                	mov    %esp,%ebp
  106464:	83 ec 18             	sub    $0x18,%esp
/u/s/h/shirui/private/cs537/p3a/p3/xv6-sp20/kernel/uart.c:56
  106467:	a1 6c bb 10 00       	mov    0x10bb6c,%eax
  10646c:	85 c0                	test   %eax,%eax
  10646e:	74 53                	je     1064c3 <uartputc+0x62>
/u/s/h/shirui/private/cs537/p3a/p3/xv6-sp20/kernel/uart.c:58
  106470:	c7 45 f4 00 00 00 00 	movl   $0x0,-0xc(%ebp)
  106477:	eb 11                	jmp    10648a <uartputc+0x29>
/u/s/h/shirui/private/cs537/p3a/p3/xv6-sp20/kernel/uart.c:59 (discriminator 4)
  106479:	83 ec 0c             	sub    $0xc,%esp
  10647c:	6a 0a                	push   $0xa
  10647e:	e8 b0 cb ff ff       	call   103033 <microdelay>
  106483:	83 c4 10             	add    $0x10,%esp
/u/s/h/shirui/private/cs537/p3a/p3/xv6-sp20/kernel/uart.c:58 (discriminator 4)
  106486:	83 45 f4 01          	addl   $0x1,-0xc(%ebp)
/u/s/h/shirui/private/cs537/p3a/p3/xv6-sp20/kernel/uart.c:58 (discriminator 1)
  10648a:	83 7d f4 7f          	cmpl   $0x7f,-0xc(%ebp)
  10648e:	7f 1a                	jg     1064aa <uartputc+0x49>
/u/s/h/shirui/private/cs537/p3a/p3/xv6-sp20/kernel/uart.c:58 (discriminator 3)
  106490:	83 ec 0c             	sub    $0xc,%esp
  106493:	68 fd 03 00 00       	push   $0x3fd
  106498:	e8 94 fe ff ff       	call   106331 <inb>
  10649d:	83 c4 10             	add    $0x10,%esp
  1064a0:	0f b6 c0             	movzbl %al,%eax
  1064a3:	83 e0 20             	and    $0x20,%eax
  1064a6:	85 c0                	test   %eax,%eax
  1064a8:	74 cf                	je     106479 <uartputc+0x18>
/u/s/h/shirui/private/cs537/p3a/p3/xv6-sp20/kernel/uart.c:60
  1064aa:	8b 45 08             	mov    0x8(%ebp),%eax
  1064ad:	0f b6 c0             	movzbl %al,%eax
  1064b0:	83 ec 08             	sub    $0x8,%esp
  1064b3:	50                   	push   %eax
  1064b4:	68 f8 03 00 00       	push   $0x3f8
  1064b9:	e8 90 fe ff ff       	call   10634e <outb>
  1064be:	83 c4 10             	add    $0x10,%esp
  1064c1:	eb 01                	jmp    1064c4 <uartputc+0x63>
/u/s/h/shirui/private/cs537/p3a/p3/xv6-sp20/kernel/uart.c:57
  1064c3:	90                   	nop
/u/s/h/shirui/private/cs537/p3a/p3/xv6-sp20/kernel/uart.c:61
  1064c4:	c9                   	leave  
  1064c5:	c3                   	ret    

001064c6 <uartgetc>:
uartgetc():
/u/s/h/shirui/private/cs537/p3a/p3/xv6-sp20/kernel/uart.c:65
  1064c6:	55                   	push   %ebp
  1064c7:	89 e5                	mov    %esp,%ebp
/u/s/h/shirui/private/cs537/p3a/p3/xv6-sp20/kernel/uart.c:66
  1064c9:	a1 6c bb 10 00       	mov    0x10bb6c,%eax
  1064ce:	85 c0                	test   %eax,%eax
  1064d0:	75 07                	jne    1064d9 <uartgetc+0x13>
/u/s/h/shirui/private/cs537/p3a/p3/xv6-sp20/kernel/uart.c:67
  1064d2:	b8 ff ff ff ff       	mov    $0xffffffff,%eax
  1064d7:	eb 2e                	jmp    106507 <uartgetc+0x41>
/u/s/h/shirui/private/cs537/p3a/p3/xv6-sp20/kernel/uart.c:68
  1064d9:	68 fd 03 00 00       	push   $0x3fd
  1064de:	e8 4e fe ff ff       	call   106331 <inb>
  1064e3:	83 c4 04             	add    $0x4,%esp
  1064e6:	0f b6 c0             	movzbl %al,%eax
  1064e9:	83 e0 01             	and    $0x1,%eax
  1064ec:	85 c0                	test   %eax,%eax
  1064ee:	75 07                	jne    1064f7 <uartgetc+0x31>
/u/s/h/shirui/private/cs537/p3a/p3/xv6-sp20/kernel/uart.c:69
  1064f0:	b8 ff ff ff ff       	mov    $0xffffffff,%eax
  1064f5:	eb 10                	jmp    106507 <uartgetc+0x41>
/u/s/h/shirui/private/cs537/p3a/p3/xv6-sp20/kernel/uart.c:70
  1064f7:	68 f8 03 00 00       	push   $0x3f8
  1064fc:	e8 30 fe ff ff       	call   106331 <inb>
  106501:	83 c4 04             	add    $0x4,%esp
  106504:	0f b6 c0             	movzbl %al,%eax
/u/s/h/shirui/private/cs537/p3a/p3/xv6-sp20/kernel/uart.c:71
  106507:	c9                   	leave  
  106508:	c3                   	ret    

00106509 <uartintr>:
uartintr():
/u/s/h/shirui/private/cs537/p3a/p3/xv6-sp20/kernel/uart.c:75
  106509:	55                   	push   %ebp
  10650a:	89 e5                	mov    %esp,%ebp
  10650c:	83 ec 08             	sub    $0x8,%esp
/u/s/h/shirui/private/cs537/p3a/p3/xv6-sp20/kernel/uart.c:76
  10650f:	83 ec 0c             	sub    $0xc,%esp
  106512:	68 c6 64 10 00       	push   $0x1064c6
  106517:	e8 db a2 ff ff       	call   1007f7 <consoleintr>
  10651c:	83 c4 10             	add    $0x10,%esp
/u/s/h/shirui/private/cs537/p3a/p3/xv6-sp20/kernel/uart.c:77
  10651f:	90                   	nop
  106520:	c9                   	leave  
  106521:	c3                   	ret    

00106522 <vector0>:
vector0():
/u/s/h/shirui/private/cs537/p3a/p3/xv6-sp20/kernel/vectors.S:6
  106522:	6a 00                	push   $0x0
/u/s/h/shirui/private/cs537/p3a/p3/xv6-sp20/kernel/vectors.S:7
  106524:	6a 00                	push   $0x0
/u/s/h/shirui/private/cs537/p3a/p3/xv6-sp20/kernel/vectors.S:8
  106526:	e9 a6 f9 ff ff       	jmp    105ed1 <alltraps>

0010652b <vector1>:
vector1():
/u/s/h/shirui/private/cs537/p3a/p3/xv6-sp20/kernel/vectors.S:11
  10652b:	6a 00                	push   $0x0
/u/s/h/shirui/private/cs537/p3a/p3/xv6-sp20/kernel/vectors.S:12
  10652d:	6a 01                	push   $0x1
/u/s/h/shirui/private/cs537/p3a/p3/xv6-sp20/kernel/vectors.S:13
  10652f:	e9 9d f9 ff ff       	jmp    105ed1 <alltraps>

00106534 <vector2>:
vector2():
/u/s/h/shirui/private/cs537/p3a/p3/xv6-sp20/kernel/vectors.S:16
  106534:	6a 00                	push   $0x0
/u/s/h/shirui/private/cs537/p3a/p3/xv6-sp20/kernel/vectors.S:17
  106536:	6a 02                	push   $0x2
/u/s/h/shirui/private/cs537/p3a/p3/xv6-sp20/kernel/vectors.S:18
  106538:	e9 94 f9 ff ff       	jmp    105ed1 <alltraps>

0010653d <vector3>:
vector3():
/u/s/h/shirui/private/cs537/p3a/p3/xv6-sp20/kernel/vectors.S:21
  10653d:	6a 00                	push   $0x0
/u/s/h/shirui/private/cs537/p3a/p3/xv6-sp20/kernel/vectors.S:22
  10653f:	6a 03                	push   $0x3
/u/s/h/shirui/private/cs537/p3a/p3/xv6-sp20/kernel/vectors.S:23
  106541:	e9 8b f9 ff ff       	jmp    105ed1 <alltraps>

00106546 <vector4>:
vector4():
/u/s/h/shirui/private/cs537/p3a/p3/xv6-sp20/kernel/vectors.S:26
  106546:	6a 00                	push   $0x0
/u/s/h/shirui/private/cs537/p3a/p3/xv6-sp20/kernel/vectors.S:27
  106548:	6a 04                	push   $0x4
/u/s/h/shirui/private/cs537/p3a/p3/xv6-sp20/kernel/vectors.S:28
  10654a:	e9 82 f9 ff ff       	jmp    105ed1 <alltraps>

0010654f <vector5>:
vector5():
/u/s/h/shirui/private/cs537/p3a/p3/xv6-sp20/kernel/vectors.S:31
  10654f:	6a 00                	push   $0x0
/u/s/h/shirui/private/cs537/p3a/p3/xv6-sp20/kernel/vectors.S:32
  106551:	6a 05                	push   $0x5
/u/s/h/shirui/private/cs537/p3a/p3/xv6-sp20/kernel/vectors.S:33
  106553:	e9 79 f9 ff ff       	jmp    105ed1 <alltraps>

00106558 <vector6>:
vector6():
/u/s/h/shirui/private/cs537/p3a/p3/xv6-sp20/kernel/vectors.S:36
  106558:	6a 00                	push   $0x0
/u/s/h/shirui/private/cs537/p3a/p3/xv6-sp20/kernel/vectors.S:37
  10655a:	6a 06                	push   $0x6
/u/s/h/shirui/private/cs537/p3a/p3/xv6-sp20/kernel/vectors.S:38
  10655c:	e9 70 f9 ff ff       	jmp    105ed1 <alltraps>

00106561 <vector7>:
vector7():
/u/s/h/shirui/private/cs537/p3a/p3/xv6-sp20/kernel/vectors.S:41
  106561:	6a 00                	push   $0x0
/u/s/h/shirui/private/cs537/p3a/p3/xv6-sp20/kernel/vectors.S:42
  106563:	6a 07                	push   $0x7
/u/s/h/shirui/private/cs537/p3a/p3/xv6-sp20/kernel/vectors.S:43
  106565:	e9 67 f9 ff ff       	jmp    105ed1 <alltraps>

0010656a <vector8>:
vector8():
/u/s/h/shirui/private/cs537/p3a/p3/xv6-sp20/kernel/vectors.S:46
  10656a:	6a 08                	push   $0x8
/u/s/h/shirui/private/cs537/p3a/p3/xv6-sp20/kernel/vectors.S:47
  10656c:	e9 60 f9 ff ff       	jmp    105ed1 <alltraps>

00106571 <vector9>:
vector9():
/u/s/h/shirui/private/cs537/p3a/p3/xv6-sp20/kernel/vectors.S:50
  106571:	6a 00                	push   $0x0
/u/s/h/shirui/private/cs537/p3a/p3/xv6-sp20/kernel/vectors.S:51
  106573:	6a 09                	push   $0x9
/u/s/h/shirui/private/cs537/p3a/p3/xv6-sp20/kernel/vectors.S:52
  106575:	e9 57 f9 ff ff       	jmp    105ed1 <alltraps>

0010657a <vector10>:
vector10():
/u/s/h/shirui/private/cs537/p3a/p3/xv6-sp20/kernel/vectors.S:55
  10657a:	6a 0a                	push   $0xa
/u/s/h/shirui/private/cs537/p3a/p3/xv6-sp20/kernel/vectors.S:56
  10657c:	e9 50 f9 ff ff       	jmp    105ed1 <alltraps>

00106581 <vector11>:
vector11():
/u/s/h/shirui/private/cs537/p3a/p3/xv6-sp20/kernel/vectors.S:59
  106581:	6a 0b                	push   $0xb
/u/s/h/shirui/private/cs537/p3a/p3/xv6-sp20/kernel/vectors.S:60
  106583:	e9 49 f9 ff ff       	jmp    105ed1 <alltraps>

00106588 <vector12>:
vector12():
/u/s/h/shirui/private/cs537/p3a/p3/xv6-sp20/kernel/vectors.S:63
  106588:	6a 0c                	push   $0xc
/u/s/h/shirui/private/cs537/p3a/p3/xv6-sp20/kernel/vectors.S:64
  10658a:	e9 42 f9 ff ff       	jmp    105ed1 <alltraps>

0010658f <vector13>:
vector13():
/u/s/h/shirui/private/cs537/p3a/p3/xv6-sp20/kernel/vectors.S:67
  10658f:	6a 0d                	push   $0xd
/u/s/h/shirui/private/cs537/p3a/p3/xv6-sp20/kernel/vectors.S:68
  106591:	e9 3b f9 ff ff       	jmp    105ed1 <alltraps>

00106596 <vector14>:
vector14():
/u/s/h/shirui/private/cs537/p3a/p3/xv6-sp20/kernel/vectors.S:71
  106596:	6a 0e                	push   $0xe
/u/s/h/shirui/private/cs537/p3a/p3/xv6-sp20/kernel/vectors.S:72
  106598:	e9 34 f9 ff ff       	jmp    105ed1 <alltraps>

0010659d <vector15>:
vector15():
/u/s/h/shirui/private/cs537/p3a/p3/xv6-sp20/kernel/vectors.S:75
  10659d:	6a 00                	push   $0x0
/u/s/h/shirui/private/cs537/p3a/p3/xv6-sp20/kernel/vectors.S:76
  10659f:	6a 0f                	push   $0xf
/u/s/h/shirui/private/cs537/p3a/p3/xv6-sp20/kernel/vectors.S:77
  1065a1:	e9 2b f9 ff ff       	jmp    105ed1 <alltraps>

001065a6 <vector16>:
vector16():
/u/s/h/shirui/private/cs537/p3a/p3/xv6-sp20/kernel/vectors.S:80
  1065a6:	6a 00                	push   $0x0
/u/s/h/shirui/private/cs537/p3a/p3/xv6-sp20/kernel/vectors.S:81
  1065a8:	6a 10                	push   $0x10
/u/s/h/shirui/private/cs537/p3a/p3/xv6-sp20/kernel/vectors.S:82
  1065aa:	e9 22 f9 ff ff       	jmp    105ed1 <alltraps>

001065af <vector17>:
vector17():
/u/s/h/shirui/private/cs537/p3a/p3/xv6-sp20/kernel/vectors.S:85
  1065af:	6a 11                	push   $0x11
/u/s/h/shirui/private/cs537/p3a/p3/xv6-sp20/kernel/vectors.S:86
  1065b1:	e9 1b f9 ff ff       	jmp    105ed1 <alltraps>

001065b6 <vector18>:
vector18():
/u/s/h/shirui/private/cs537/p3a/p3/xv6-sp20/kernel/vectors.S:89
  1065b6:	6a 00                	push   $0x0
/u/s/h/shirui/private/cs537/p3a/p3/xv6-sp20/kernel/vectors.S:90
  1065b8:	6a 12                	push   $0x12
/u/s/h/shirui/private/cs537/p3a/p3/xv6-sp20/kernel/vectors.S:91
  1065ba:	e9 12 f9 ff ff       	jmp    105ed1 <alltraps>

001065bf <vector19>:
vector19():
/u/s/h/shirui/private/cs537/p3a/p3/xv6-sp20/kernel/vectors.S:94
  1065bf:	6a 00                	push   $0x0
/u/s/h/shirui/private/cs537/p3a/p3/xv6-sp20/kernel/vectors.S:95
  1065c1:	6a 13                	push   $0x13
/u/s/h/shirui/private/cs537/p3a/p3/xv6-sp20/kernel/vectors.S:96
  1065c3:	e9 09 f9 ff ff       	jmp    105ed1 <alltraps>

001065c8 <vector20>:
vector20():
/u/s/h/shirui/private/cs537/p3a/p3/xv6-sp20/kernel/vectors.S:99
  1065c8:	6a 00                	push   $0x0
/u/s/h/shirui/private/cs537/p3a/p3/xv6-sp20/kernel/vectors.S:100
  1065ca:	6a 14                	push   $0x14
/u/s/h/shirui/private/cs537/p3a/p3/xv6-sp20/kernel/vectors.S:101
  1065cc:	e9 00 f9 ff ff       	jmp    105ed1 <alltraps>

001065d1 <vector21>:
vector21():
/u/s/h/shirui/private/cs537/p3a/p3/xv6-sp20/kernel/vectors.S:104
  1065d1:	6a 00                	push   $0x0
/u/s/h/shirui/private/cs537/p3a/p3/xv6-sp20/kernel/vectors.S:105
  1065d3:	6a 15                	push   $0x15
/u/s/h/shirui/private/cs537/p3a/p3/xv6-sp20/kernel/vectors.S:106
  1065d5:	e9 f7 f8 ff ff       	jmp    105ed1 <alltraps>

001065da <vector22>:
vector22():
/u/s/h/shirui/private/cs537/p3a/p3/xv6-sp20/kernel/vectors.S:109
  1065da:	6a 00                	push   $0x0
/u/s/h/shirui/private/cs537/p3a/p3/xv6-sp20/kernel/vectors.S:110
  1065dc:	6a 16                	push   $0x16
/u/s/h/shirui/private/cs537/p3a/p3/xv6-sp20/kernel/vectors.S:111
  1065de:	e9 ee f8 ff ff       	jmp    105ed1 <alltraps>

001065e3 <vector23>:
vector23():
/u/s/h/shirui/private/cs537/p3a/p3/xv6-sp20/kernel/vectors.S:114
  1065e3:	6a 00                	push   $0x0
/u/s/h/shirui/private/cs537/p3a/p3/xv6-sp20/kernel/vectors.S:115
  1065e5:	6a 17                	push   $0x17
/u/s/h/shirui/private/cs537/p3a/p3/xv6-sp20/kernel/vectors.S:116
  1065e7:	e9 e5 f8 ff ff       	jmp    105ed1 <alltraps>

001065ec <vector24>:
vector24():
/u/s/h/shirui/private/cs537/p3a/p3/xv6-sp20/kernel/vectors.S:119
  1065ec:	6a 00                	push   $0x0
/u/s/h/shirui/private/cs537/p3a/p3/xv6-sp20/kernel/vectors.S:120
  1065ee:	6a 18                	push   $0x18
/u/s/h/shirui/private/cs537/p3a/p3/xv6-sp20/kernel/vectors.S:121
  1065f0:	e9 dc f8 ff ff       	jmp    105ed1 <alltraps>

001065f5 <vector25>:
vector25():
/u/s/h/shirui/private/cs537/p3a/p3/xv6-sp20/kernel/vectors.S:124
  1065f5:	6a 00                	push   $0x0
/u/s/h/shirui/private/cs537/p3a/p3/xv6-sp20/kernel/vectors.S:125
  1065f7:	6a 19                	push   $0x19
/u/s/h/shirui/private/cs537/p3a/p3/xv6-sp20/kernel/vectors.S:126
  1065f9:	e9 d3 f8 ff ff       	jmp    105ed1 <alltraps>

001065fe <vector26>:
vector26():
/u/s/h/shirui/private/cs537/p3a/p3/xv6-sp20/kernel/vectors.S:129
  1065fe:	6a 00                	push   $0x0
/u/s/h/shirui/private/cs537/p3a/p3/xv6-sp20/kernel/vectors.S:130
  106600:	6a 1a                	push   $0x1a
/u/s/h/shirui/private/cs537/p3a/p3/xv6-sp20/kernel/vectors.S:131
  106602:	e9 ca f8 ff ff       	jmp    105ed1 <alltraps>

00106607 <vector27>:
vector27():
/u/s/h/shirui/private/cs537/p3a/p3/xv6-sp20/kernel/vectors.S:134
  106607:	6a 00                	push   $0x0
/u/s/h/shirui/private/cs537/p3a/p3/xv6-sp20/kernel/vectors.S:135
  106609:	6a 1b                	push   $0x1b
/u/s/h/shirui/private/cs537/p3a/p3/xv6-sp20/kernel/vectors.S:136
  10660b:	e9 c1 f8 ff ff       	jmp    105ed1 <alltraps>

00106610 <vector28>:
vector28():
/u/s/h/shirui/private/cs537/p3a/p3/xv6-sp20/kernel/vectors.S:139
  106610:	6a 00                	push   $0x0
/u/s/h/shirui/private/cs537/p3a/p3/xv6-sp20/kernel/vectors.S:140
  106612:	6a 1c                	push   $0x1c
/u/s/h/shirui/private/cs537/p3a/p3/xv6-sp20/kernel/vectors.S:141
  106614:	e9 b8 f8 ff ff       	jmp    105ed1 <alltraps>

00106619 <vector29>:
vector29():
/u/s/h/shirui/private/cs537/p3a/p3/xv6-sp20/kernel/vectors.S:144
  106619:	6a 00                	push   $0x0
/u/s/h/shirui/private/cs537/p3a/p3/xv6-sp20/kernel/vectors.S:145
  10661b:	6a 1d                	push   $0x1d
/u/s/h/shirui/private/cs537/p3a/p3/xv6-sp20/kernel/vectors.S:146
  10661d:	e9 af f8 ff ff       	jmp    105ed1 <alltraps>

00106622 <vector30>:
vector30():
/u/s/h/shirui/private/cs537/p3a/p3/xv6-sp20/kernel/vectors.S:149
  106622:	6a 00                	push   $0x0
/u/s/h/shirui/private/cs537/p3a/p3/xv6-sp20/kernel/vectors.S:150
  106624:	6a 1e                	push   $0x1e
/u/s/h/shirui/private/cs537/p3a/p3/xv6-sp20/kernel/vectors.S:151
  106626:	e9 a6 f8 ff ff       	jmp    105ed1 <alltraps>

0010662b <vector31>:
vector31():
/u/s/h/shirui/private/cs537/p3a/p3/xv6-sp20/kernel/vectors.S:154
  10662b:	6a 00                	push   $0x0
/u/s/h/shirui/private/cs537/p3a/p3/xv6-sp20/kernel/vectors.S:155
  10662d:	6a 1f                	push   $0x1f
/u/s/h/shirui/private/cs537/p3a/p3/xv6-sp20/kernel/vectors.S:156
  10662f:	e9 9d f8 ff ff       	jmp    105ed1 <alltraps>

00106634 <vector32>:
vector32():
/u/s/h/shirui/private/cs537/p3a/p3/xv6-sp20/kernel/vectors.S:159
  106634:	6a 00                	push   $0x0
/u/s/h/shirui/private/cs537/p3a/p3/xv6-sp20/kernel/vectors.S:160
  106636:	6a 20                	push   $0x20
/u/s/h/shirui/private/cs537/p3a/p3/xv6-sp20/kernel/vectors.S:161
  106638:	e9 94 f8 ff ff       	jmp    105ed1 <alltraps>

0010663d <vector33>:
vector33():
/u/s/h/shirui/private/cs537/p3a/p3/xv6-sp20/kernel/vectors.S:164
  10663d:	6a 00                	push   $0x0
/u/s/h/shirui/private/cs537/p3a/p3/xv6-sp20/kernel/vectors.S:165
  10663f:	6a 21                	push   $0x21
/u/s/h/shirui/private/cs537/p3a/p3/xv6-sp20/kernel/vectors.S:166
  106641:	e9 8b f8 ff ff       	jmp    105ed1 <alltraps>

00106646 <vector34>:
vector34():
/u/s/h/shirui/private/cs537/p3a/p3/xv6-sp20/kernel/vectors.S:169
  106646:	6a 00                	push   $0x0
/u/s/h/shirui/private/cs537/p3a/p3/xv6-sp20/kernel/vectors.S:170
  106648:	6a 22                	push   $0x22
/u/s/h/shirui/private/cs537/p3a/p3/xv6-sp20/kernel/vectors.S:171
  10664a:	e9 82 f8 ff ff       	jmp    105ed1 <alltraps>

0010664f <vector35>:
vector35():
/u/s/h/shirui/private/cs537/p3a/p3/xv6-sp20/kernel/vectors.S:174
  10664f:	6a 00                	push   $0x0
/u/s/h/shirui/private/cs537/p3a/p3/xv6-sp20/kernel/vectors.S:175
  106651:	6a 23                	push   $0x23
/u/s/h/shirui/private/cs537/p3a/p3/xv6-sp20/kernel/vectors.S:176
  106653:	e9 79 f8 ff ff       	jmp    105ed1 <alltraps>

00106658 <vector36>:
vector36():
/u/s/h/shirui/private/cs537/p3a/p3/xv6-sp20/kernel/vectors.S:179
  106658:	6a 00                	push   $0x0
/u/s/h/shirui/private/cs537/p3a/p3/xv6-sp20/kernel/vectors.S:180
  10665a:	6a 24                	push   $0x24
/u/s/h/shirui/private/cs537/p3a/p3/xv6-sp20/kernel/vectors.S:181
  10665c:	e9 70 f8 ff ff       	jmp    105ed1 <alltraps>

00106661 <vector37>:
vector37():
/u/s/h/shirui/private/cs537/p3a/p3/xv6-sp20/kernel/vectors.S:184
  106661:	6a 00                	push   $0x0
/u/s/h/shirui/private/cs537/p3a/p3/xv6-sp20/kernel/vectors.S:185
  106663:	6a 25                	push   $0x25
/u/s/h/shirui/private/cs537/p3a/p3/xv6-sp20/kernel/vectors.S:186
  106665:	e9 67 f8 ff ff       	jmp    105ed1 <alltraps>

0010666a <vector38>:
vector38():
/u/s/h/shirui/private/cs537/p3a/p3/xv6-sp20/kernel/vectors.S:189
  10666a:	6a 00                	push   $0x0
/u/s/h/shirui/private/cs537/p3a/p3/xv6-sp20/kernel/vectors.S:190
  10666c:	6a 26                	push   $0x26
/u/s/h/shirui/private/cs537/p3a/p3/xv6-sp20/kernel/vectors.S:191
  10666e:	e9 5e f8 ff ff       	jmp    105ed1 <alltraps>

00106673 <vector39>:
vector39():
/u/s/h/shirui/private/cs537/p3a/p3/xv6-sp20/kernel/vectors.S:194
  106673:	6a 00                	push   $0x0
/u/s/h/shirui/private/cs537/p3a/p3/xv6-sp20/kernel/vectors.S:195
  106675:	6a 27                	push   $0x27
/u/s/h/shirui/private/cs537/p3a/p3/xv6-sp20/kernel/vectors.S:196
  106677:	e9 55 f8 ff ff       	jmp    105ed1 <alltraps>

0010667c <vector40>:
vector40():
/u/s/h/shirui/private/cs537/p3a/p3/xv6-sp20/kernel/vectors.S:199
  10667c:	6a 00                	push   $0x0
/u/s/h/shirui/private/cs537/p3a/p3/xv6-sp20/kernel/vectors.S:200
  10667e:	6a 28                	push   $0x28
/u/s/h/shirui/private/cs537/p3a/p3/xv6-sp20/kernel/vectors.S:201
  106680:	e9 4c f8 ff ff       	jmp    105ed1 <alltraps>

00106685 <vector41>:
vector41():
/u/s/h/shirui/private/cs537/p3a/p3/xv6-sp20/kernel/vectors.S:204
  106685:	6a 00                	push   $0x0
/u/s/h/shirui/private/cs537/p3a/p3/xv6-sp20/kernel/vectors.S:205
  106687:	6a 29                	push   $0x29
/u/s/h/shirui/private/cs537/p3a/p3/xv6-sp20/kernel/vectors.S:206
  106689:	e9 43 f8 ff ff       	jmp    105ed1 <alltraps>

0010668e <vector42>:
vector42():
/u/s/h/shirui/private/cs537/p3a/p3/xv6-sp20/kernel/vectors.S:209
  10668e:	6a 00                	push   $0x0
/u/s/h/shirui/private/cs537/p3a/p3/xv6-sp20/kernel/vectors.S:210
  106690:	6a 2a                	push   $0x2a
/u/s/h/shirui/private/cs537/p3a/p3/xv6-sp20/kernel/vectors.S:211
  106692:	e9 3a f8 ff ff       	jmp    105ed1 <alltraps>

00106697 <vector43>:
vector43():
/u/s/h/shirui/private/cs537/p3a/p3/xv6-sp20/kernel/vectors.S:214
  106697:	6a 00                	push   $0x0
/u/s/h/shirui/private/cs537/p3a/p3/xv6-sp20/kernel/vectors.S:215
  106699:	6a 2b                	push   $0x2b
/u/s/h/shirui/private/cs537/p3a/p3/xv6-sp20/kernel/vectors.S:216
  10669b:	e9 31 f8 ff ff       	jmp    105ed1 <alltraps>

001066a0 <vector44>:
vector44():
/u/s/h/shirui/private/cs537/p3a/p3/xv6-sp20/kernel/vectors.S:219
  1066a0:	6a 00                	push   $0x0
/u/s/h/shirui/private/cs537/p3a/p3/xv6-sp20/kernel/vectors.S:220
  1066a2:	6a 2c                	push   $0x2c
/u/s/h/shirui/private/cs537/p3a/p3/xv6-sp20/kernel/vectors.S:221
  1066a4:	e9 28 f8 ff ff       	jmp    105ed1 <alltraps>

001066a9 <vector45>:
vector45():
/u/s/h/shirui/private/cs537/p3a/p3/xv6-sp20/kernel/vectors.S:224
  1066a9:	6a 00                	push   $0x0
/u/s/h/shirui/private/cs537/p3a/p3/xv6-sp20/kernel/vectors.S:225
  1066ab:	6a 2d                	push   $0x2d
/u/s/h/shirui/private/cs537/p3a/p3/xv6-sp20/kernel/vectors.S:226
  1066ad:	e9 1f f8 ff ff       	jmp    105ed1 <alltraps>

001066b2 <vector46>:
vector46():
/u/s/h/shirui/private/cs537/p3a/p3/xv6-sp20/kernel/vectors.S:229
  1066b2:	6a 00                	push   $0x0
/u/s/h/shirui/private/cs537/p3a/p3/xv6-sp20/kernel/vectors.S:230
  1066b4:	6a 2e                	push   $0x2e
/u/s/h/shirui/private/cs537/p3a/p3/xv6-sp20/kernel/vectors.S:231
  1066b6:	e9 16 f8 ff ff       	jmp    105ed1 <alltraps>

001066bb <vector47>:
vector47():
/u/s/h/shirui/private/cs537/p3a/p3/xv6-sp20/kernel/vectors.S:234
  1066bb:	6a 00                	push   $0x0
/u/s/h/shirui/private/cs537/p3a/p3/xv6-sp20/kernel/vectors.S:235
  1066bd:	6a 2f                	push   $0x2f
/u/s/h/shirui/private/cs537/p3a/p3/xv6-sp20/kernel/vectors.S:236
  1066bf:	e9 0d f8 ff ff       	jmp    105ed1 <alltraps>

001066c4 <vector48>:
vector48():
/u/s/h/shirui/private/cs537/p3a/p3/xv6-sp20/kernel/vectors.S:239
  1066c4:	6a 00                	push   $0x0
/u/s/h/shirui/private/cs537/p3a/p3/xv6-sp20/kernel/vectors.S:240
  1066c6:	6a 30                	push   $0x30
/u/s/h/shirui/private/cs537/p3a/p3/xv6-sp20/kernel/vectors.S:241
  1066c8:	e9 04 f8 ff ff       	jmp    105ed1 <alltraps>

001066cd <vector49>:
vector49():
/u/s/h/shirui/private/cs537/p3a/p3/xv6-sp20/kernel/vectors.S:244
  1066cd:	6a 00                	push   $0x0
/u/s/h/shirui/private/cs537/p3a/p3/xv6-sp20/kernel/vectors.S:245
  1066cf:	6a 31                	push   $0x31
/u/s/h/shirui/private/cs537/p3a/p3/xv6-sp20/kernel/vectors.S:246
  1066d1:	e9 fb f7 ff ff       	jmp    105ed1 <alltraps>

001066d6 <vector50>:
vector50():
/u/s/h/shirui/private/cs537/p3a/p3/xv6-sp20/kernel/vectors.S:249
  1066d6:	6a 00                	push   $0x0
/u/s/h/shirui/private/cs537/p3a/p3/xv6-sp20/kernel/vectors.S:250
  1066d8:	6a 32                	push   $0x32
/u/s/h/shirui/private/cs537/p3a/p3/xv6-sp20/kernel/vectors.S:251
  1066da:	e9 f2 f7 ff ff       	jmp    105ed1 <alltraps>

001066df <vector51>:
vector51():
/u/s/h/shirui/private/cs537/p3a/p3/xv6-sp20/kernel/vectors.S:254
  1066df:	6a 00                	push   $0x0
/u/s/h/shirui/private/cs537/p3a/p3/xv6-sp20/kernel/vectors.S:255
  1066e1:	6a 33                	push   $0x33
/u/s/h/shirui/private/cs537/p3a/p3/xv6-sp20/kernel/vectors.S:256
  1066e3:	e9 e9 f7 ff ff       	jmp    105ed1 <alltraps>

001066e8 <vector52>:
vector52():
/u/s/h/shirui/private/cs537/p3a/p3/xv6-sp20/kernel/vectors.S:259
  1066e8:	6a 00                	push   $0x0
/u/s/h/shirui/private/cs537/p3a/p3/xv6-sp20/kernel/vectors.S:260
  1066ea:	6a 34                	push   $0x34
/u/s/h/shirui/private/cs537/p3a/p3/xv6-sp20/kernel/vectors.S:261
  1066ec:	e9 e0 f7 ff ff       	jmp    105ed1 <alltraps>

001066f1 <vector53>:
vector53():
/u/s/h/shirui/private/cs537/p3a/p3/xv6-sp20/kernel/vectors.S:264
  1066f1:	6a 00                	push   $0x0
/u/s/h/shirui/private/cs537/p3a/p3/xv6-sp20/kernel/vectors.S:265
  1066f3:	6a 35                	push   $0x35
/u/s/h/shirui/private/cs537/p3a/p3/xv6-sp20/kernel/vectors.S:266
  1066f5:	e9 d7 f7 ff ff       	jmp    105ed1 <alltraps>

001066fa <vector54>:
vector54():
/u/s/h/shirui/private/cs537/p3a/p3/xv6-sp20/kernel/vectors.S:269
  1066fa:	6a 00                	push   $0x0
/u/s/h/shirui/private/cs537/p3a/p3/xv6-sp20/kernel/vectors.S:270
  1066fc:	6a 36                	push   $0x36
/u/s/h/shirui/private/cs537/p3a/p3/xv6-sp20/kernel/vectors.S:271
  1066fe:	e9 ce f7 ff ff       	jmp    105ed1 <alltraps>

00106703 <vector55>:
vector55():
/u/s/h/shirui/private/cs537/p3a/p3/xv6-sp20/kernel/vectors.S:274
  106703:	6a 00                	push   $0x0
/u/s/h/shirui/private/cs537/p3a/p3/xv6-sp20/kernel/vectors.S:275
  106705:	6a 37                	push   $0x37
/u/s/h/shirui/private/cs537/p3a/p3/xv6-sp20/kernel/vectors.S:276
  106707:	e9 c5 f7 ff ff       	jmp    105ed1 <alltraps>

0010670c <vector56>:
vector56():
/u/s/h/shirui/private/cs537/p3a/p3/xv6-sp20/kernel/vectors.S:279
  10670c:	6a 00                	push   $0x0
/u/s/h/shirui/private/cs537/p3a/p3/xv6-sp20/kernel/vectors.S:280
  10670e:	6a 38                	push   $0x38
/u/s/h/shirui/private/cs537/p3a/p3/xv6-sp20/kernel/vectors.S:281
  106710:	e9 bc f7 ff ff       	jmp    105ed1 <alltraps>

00106715 <vector57>:
vector57():
/u/s/h/shirui/private/cs537/p3a/p3/xv6-sp20/kernel/vectors.S:284
  106715:	6a 00                	push   $0x0
/u/s/h/shirui/private/cs537/p3a/p3/xv6-sp20/kernel/vectors.S:285
  106717:	6a 39                	push   $0x39
/u/s/h/shirui/private/cs537/p3a/p3/xv6-sp20/kernel/vectors.S:286
  106719:	e9 b3 f7 ff ff       	jmp    105ed1 <alltraps>

0010671e <vector58>:
vector58():
/u/s/h/shirui/private/cs537/p3a/p3/xv6-sp20/kernel/vectors.S:289
  10671e:	6a 00                	push   $0x0
/u/s/h/shirui/private/cs537/p3a/p3/xv6-sp20/kernel/vectors.S:290
  106720:	6a 3a                	push   $0x3a
/u/s/h/shirui/private/cs537/p3a/p3/xv6-sp20/kernel/vectors.S:291
  106722:	e9 aa f7 ff ff       	jmp    105ed1 <alltraps>

00106727 <vector59>:
vector59():
/u/s/h/shirui/private/cs537/p3a/p3/xv6-sp20/kernel/vectors.S:294
  106727:	6a 00                	push   $0x0
/u/s/h/shirui/private/cs537/p3a/p3/xv6-sp20/kernel/vectors.S:295
  106729:	6a 3b                	push   $0x3b
/u/s/h/shirui/private/cs537/p3a/p3/xv6-sp20/kernel/vectors.S:296
  10672b:	e9 a1 f7 ff ff       	jmp    105ed1 <alltraps>

00106730 <vector60>:
vector60():
/u/s/h/shirui/private/cs537/p3a/p3/xv6-sp20/kernel/vectors.S:299
  106730:	6a 00                	push   $0x0
/u/s/h/shirui/private/cs537/p3a/p3/xv6-sp20/kernel/vectors.S:300
  106732:	6a 3c                	push   $0x3c
/u/s/h/shirui/private/cs537/p3a/p3/xv6-sp20/kernel/vectors.S:301
  106734:	e9 98 f7 ff ff       	jmp    105ed1 <alltraps>

00106739 <vector61>:
vector61():
/u/s/h/shirui/private/cs537/p3a/p3/xv6-sp20/kernel/vectors.S:304
  106739:	6a 00                	push   $0x0
/u/s/h/shirui/private/cs537/p3a/p3/xv6-sp20/kernel/vectors.S:305
  10673b:	6a 3d                	push   $0x3d
/u/s/h/shirui/private/cs537/p3a/p3/xv6-sp20/kernel/vectors.S:306
  10673d:	e9 8f f7 ff ff       	jmp    105ed1 <alltraps>

00106742 <vector62>:
vector62():
/u/s/h/shirui/private/cs537/p3a/p3/xv6-sp20/kernel/vectors.S:309
  106742:	6a 00                	push   $0x0
/u/s/h/shirui/private/cs537/p3a/p3/xv6-sp20/kernel/vectors.S:310
  106744:	6a 3e                	push   $0x3e
/u/s/h/shirui/private/cs537/p3a/p3/xv6-sp20/kernel/vectors.S:311
  106746:	e9 86 f7 ff ff       	jmp    105ed1 <alltraps>

0010674b <vector63>:
vector63():
/u/s/h/shirui/private/cs537/p3a/p3/xv6-sp20/kernel/vectors.S:314
  10674b:	6a 00                	push   $0x0
/u/s/h/shirui/private/cs537/p3a/p3/xv6-sp20/kernel/vectors.S:315
  10674d:	6a 3f                	push   $0x3f
/u/s/h/shirui/private/cs537/p3a/p3/xv6-sp20/kernel/vectors.S:316
  10674f:	e9 7d f7 ff ff       	jmp    105ed1 <alltraps>

00106754 <vector64>:
vector64():
/u/s/h/shirui/private/cs537/p3a/p3/xv6-sp20/kernel/vectors.S:319
  106754:	6a 00                	push   $0x0
/u/s/h/shirui/private/cs537/p3a/p3/xv6-sp20/kernel/vectors.S:320
  106756:	6a 40                	push   $0x40
/u/s/h/shirui/private/cs537/p3a/p3/xv6-sp20/kernel/vectors.S:321
  106758:	e9 74 f7 ff ff       	jmp    105ed1 <alltraps>

0010675d <vector65>:
vector65():
/u/s/h/shirui/private/cs537/p3a/p3/xv6-sp20/kernel/vectors.S:324
  10675d:	6a 00                	push   $0x0
/u/s/h/shirui/private/cs537/p3a/p3/xv6-sp20/kernel/vectors.S:325
  10675f:	6a 41                	push   $0x41
/u/s/h/shirui/private/cs537/p3a/p3/xv6-sp20/kernel/vectors.S:326
  106761:	e9 6b f7 ff ff       	jmp    105ed1 <alltraps>

00106766 <vector66>:
vector66():
/u/s/h/shirui/private/cs537/p3a/p3/xv6-sp20/kernel/vectors.S:329
  106766:	6a 00                	push   $0x0
/u/s/h/shirui/private/cs537/p3a/p3/xv6-sp20/kernel/vectors.S:330
  106768:	6a 42                	push   $0x42
/u/s/h/shirui/private/cs537/p3a/p3/xv6-sp20/kernel/vectors.S:331
  10676a:	e9 62 f7 ff ff       	jmp    105ed1 <alltraps>

0010676f <vector67>:
vector67():
/u/s/h/shirui/private/cs537/p3a/p3/xv6-sp20/kernel/vectors.S:334
  10676f:	6a 00                	push   $0x0
/u/s/h/shirui/private/cs537/p3a/p3/xv6-sp20/kernel/vectors.S:335
  106771:	6a 43                	push   $0x43
/u/s/h/shirui/private/cs537/p3a/p3/xv6-sp20/kernel/vectors.S:336
  106773:	e9 59 f7 ff ff       	jmp    105ed1 <alltraps>

00106778 <vector68>:
vector68():
/u/s/h/shirui/private/cs537/p3a/p3/xv6-sp20/kernel/vectors.S:339
  106778:	6a 00                	push   $0x0
/u/s/h/shirui/private/cs537/p3a/p3/xv6-sp20/kernel/vectors.S:340
  10677a:	6a 44                	push   $0x44
/u/s/h/shirui/private/cs537/p3a/p3/xv6-sp20/kernel/vectors.S:341
  10677c:	e9 50 f7 ff ff       	jmp    105ed1 <alltraps>

00106781 <vector69>:
vector69():
/u/s/h/shirui/private/cs537/p3a/p3/xv6-sp20/kernel/vectors.S:344
  106781:	6a 00                	push   $0x0
/u/s/h/shirui/private/cs537/p3a/p3/xv6-sp20/kernel/vectors.S:345
  106783:	6a 45                	push   $0x45
/u/s/h/shirui/private/cs537/p3a/p3/xv6-sp20/kernel/vectors.S:346
  106785:	e9 47 f7 ff ff       	jmp    105ed1 <alltraps>

0010678a <vector70>:
vector70():
/u/s/h/shirui/private/cs537/p3a/p3/xv6-sp20/kernel/vectors.S:349
  10678a:	6a 00                	push   $0x0
/u/s/h/shirui/private/cs537/p3a/p3/xv6-sp20/kernel/vectors.S:350
  10678c:	6a 46                	push   $0x46
/u/s/h/shirui/private/cs537/p3a/p3/xv6-sp20/kernel/vectors.S:351
  10678e:	e9 3e f7 ff ff       	jmp    105ed1 <alltraps>

00106793 <vector71>:
vector71():
/u/s/h/shirui/private/cs537/p3a/p3/xv6-sp20/kernel/vectors.S:354
  106793:	6a 00                	push   $0x0
/u/s/h/shirui/private/cs537/p3a/p3/xv6-sp20/kernel/vectors.S:355
  106795:	6a 47                	push   $0x47
/u/s/h/shirui/private/cs537/p3a/p3/xv6-sp20/kernel/vectors.S:356
  106797:	e9 35 f7 ff ff       	jmp    105ed1 <alltraps>

0010679c <vector72>:
vector72():
/u/s/h/shirui/private/cs537/p3a/p3/xv6-sp20/kernel/vectors.S:359
  10679c:	6a 00                	push   $0x0
/u/s/h/shirui/private/cs537/p3a/p3/xv6-sp20/kernel/vectors.S:360
  10679e:	6a 48                	push   $0x48
/u/s/h/shirui/private/cs537/p3a/p3/xv6-sp20/kernel/vectors.S:361
  1067a0:	e9 2c f7 ff ff       	jmp    105ed1 <alltraps>

001067a5 <vector73>:
vector73():
/u/s/h/shirui/private/cs537/p3a/p3/xv6-sp20/kernel/vectors.S:364
  1067a5:	6a 00                	push   $0x0
/u/s/h/shirui/private/cs537/p3a/p3/xv6-sp20/kernel/vectors.S:365
  1067a7:	6a 49                	push   $0x49
/u/s/h/shirui/private/cs537/p3a/p3/xv6-sp20/kernel/vectors.S:366
  1067a9:	e9 23 f7 ff ff       	jmp    105ed1 <alltraps>

001067ae <vector74>:
vector74():
/u/s/h/shirui/private/cs537/p3a/p3/xv6-sp20/kernel/vectors.S:369
  1067ae:	6a 00                	push   $0x0
/u/s/h/shirui/private/cs537/p3a/p3/xv6-sp20/kernel/vectors.S:370
  1067b0:	6a 4a                	push   $0x4a
/u/s/h/shirui/private/cs537/p3a/p3/xv6-sp20/kernel/vectors.S:371
  1067b2:	e9 1a f7 ff ff       	jmp    105ed1 <alltraps>

001067b7 <vector75>:
vector75():
/u/s/h/shirui/private/cs537/p3a/p3/xv6-sp20/kernel/vectors.S:374
  1067b7:	6a 00                	push   $0x0
/u/s/h/shirui/private/cs537/p3a/p3/xv6-sp20/kernel/vectors.S:375
  1067b9:	6a 4b                	push   $0x4b
/u/s/h/shirui/private/cs537/p3a/p3/xv6-sp20/kernel/vectors.S:376
  1067bb:	e9 11 f7 ff ff       	jmp    105ed1 <alltraps>

001067c0 <vector76>:
vector76():
/u/s/h/shirui/private/cs537/p3a/p3/xv6-sp20/kernel/vectors.S:379
  1067c0:	6a 00                	push   $0x0
/u/s/h/shirui/private/cs537/p3a/p3/xv6-sp20/kernel/vectors.S:380
  1067c2:	6a 4c                	push   $0x4c
/u/s/h/shirui/private/cs537/p3a/p3/xv6-sp20/kernel/vectors.S:381
  1067c4:	e9 08 f7 ff ff       	jmp    105ed1 <alltraps>

001067c9 <vector77>:
vector77():
/u/s/h/shirui/private/cs537/p3a/p3/xv6-sp20/kernel/vectors.S:384
  1067c9:	6a 00                	push   $0x0
/u/s/h/shirui/private/cs537/p3a/p3/xv6-sp20/kernel/vectors.S:385
  1067cb:	6a 4d                	push   $0x4d
/u/s/h/shirui/private/cs537/p3a/p3/xv6-sp20/kernel/vectors.S:386
  1067cd:	e9 ff f6 ff ff       	jmp    105ed1 <alltraps>

001067d2 <vector78>:
vector78():
/u/s/h/shirui/private/cs537/p3a/p3/xv6-sp20/kernel/vectors.S:389
  1067d2:	6a 00                	push   $0x0
/u/s/h/shirui/private/cs537/p3a/p3/xv6-sp20/kernel/vectors.S:390
  1067d4:	6a 4e                	push   $0x4e
/u/s/h/shirui/private/cs537/p3a/p3/xv6-sp20/kernel/vectors.S:391
  1067d6:	e9 f6 f6 ff ff       	jmp    105ed1 <alltraps>

001067db <vector79>:
vector79():
/u/s/h/shirui/private/cs537/p3a/p3/xv6-sp20/kernel/vectors.S:394
  1067db:	6a 00                	push   $0x0
/u/s/h/shirui/private/cs537/p3a/p3/xv6-sp20/kernel/vectors.S:395
  1067dd:	6a 4f                	push   $0x4f
/u/s/h/shirui/private/cs537/p3a/p3/xv6-sp20/kernel/vectors.S:396
  1067df:	e9 ed f6 ff ff       	jmp    105ed1 <alltraps>

001067e4 <vector80>:
vector80():
/u/s/h/shirui/private/cs537/p3a/p3/xv6-sp20/kernel/vectors.S:399
  1067e4:	6a 00                	push   $0x0
/u/s/h/shirui/private/cs537/p3a/p3/xv6-sp20/kernel/vectors.S:400
  1067e6:	6a 50                	push   $0x50
/u/s/h/shirui/private/cs537/p3a/p3/xv6-sp20/kernel/vectors.S:401
  1067e8:	e9 e4 f6 ff ff       	jmp    105ed1 <alltraps>

001067ed <vector81>:
vector81():
/u/s/h/shirui/private/cs537/p3a/p3/xv6-sp20/kernel/vectors.S:404
  1067ed:	6a 00                	push   $0x0
/u/s/h/shirui/private/cs537/p3a/p3/xv6-sp20/kernel/vectors.S:405
  1067ef:	6a 51                	push   $0x51
/u/s/h/shirui/private/cs537/p3a/p3/xv6-sp20/kernel/vectors.S:406
  1067f1:	e9 db f6 ff ff       	jmp    105ed1 <alltraps>

001067f6 <vector82>:
vector82():
/u/s/h/shirui/private/cs537/p3a/p3/xv6-sp20/kernel/vectors.S:409
  1067f6:	6a 00                	push   $0x0
/u/s/h/shirui/private/cs537/p3a/p3/xv6-sp20/kernel/vectors.S:410
  1067f8:	6a 52                	push   $0x52
/u/s/h/shirui/private/cs537/p3a/p3/xv6-sp20/kernel/vectors.S:411
  1067fa:	e9 d2 f6 ff ff       	jmp    105ed1 <alltraps>

001067ff <vector83>:
vector83():
/u/s/h/shirui/private/cs537/p3a/p3/xv6-sp20/kernel/vectors.S:414
  1067ff:	6a 00                	push   $0x0
/u/s/h/shirui/private/cs537/p3a/p3/xv6-sp20/kernel/vectors.S:415
  106801:	6a 53                	push   $0x53
/u/s/h/shirui/private/cs537/p3a/p3/xv6-sp20/kernel/vectors.S:416
  106803:	e9 c9 f6 ff ff       	jmp    105ed1 <alltraps>

00106808 <vector84>:
vector84():
/u/s/h/shirui/private/cs537/p3a/p3/xv6-sp20/kernel/vectors.S:419
  106808:	6a 00                	push   $0x0
/u/s/h/shirui/private/cs537/p3a/p3/xv6-sp20/kernel/vectors.S:420
  10680a:	6a 54                	push   $0x54
/u/s/h/shirui/private/cs537/p3a/p3/xv6-sp20/kernel/vectors.S:421
  10680c:	e9 c0 f6 ff ff       	jmp    105ed1 <alltraps>

00106811 <vector85>:
vector85():
/u/s/h/shirui/private/cs537/p3a/p3/xv6-sp20/kernel/vectors.S:424
  106811:	6a 00                	push   $0x0
/u/s/h/shirui/private/cs537/p3a/p3/xv6-sp20/kernel/vectors.S:425
  106813:	6a 55                	push   $0x55
/u/s/h/shirui/private/cs537/p3a/p3/xv6-sp20/kernel/vectors.S:426
  106815:	e9 b7 f6 ff ff       	jmp    105ed1 <alltraps>

0010681a <vector86>:
vector86():
/u/s/h/shirui/private/cs537/p3a/p3/xv6-sp20/kernel/vectors.S:429
  10681a:	6a 00                	push   $0x0
/u/s/h/shirui/private/cs537/p3a/p3/xv6-sp20/kernel/vectors.S:430
  10681c:	6a 56                	push   $0x56
/u/s/h/shirui/private/cs537/p3a/p3/xv6-sp20/kernel/vectors.S:431
  10681e:	e9 ae f6 ff ff       	jmp    105ed1 <alltraps>

00106823 <vector87>:
vector87():
/u/s/h/shirui/private/cs537/p3a/p3/xv6-sp20/kernel/vectors.S:434
  106823:	6a 00                	push   $0x0
/u/s/h/shirui/private/cs537/p3a/p3/xv6-sp20/kernel/vectors.S:435
  106825:	6a 57                	push   $0x57
/u/s/h/shirui/private/cs537/p3a/p3/xv6-sp20/kernel/vectors.S:436
  106827:	e9 a5 f6 ff ff       	jmp    105ed1 <alltraps>

0010682c <vector88>:
vector88():
/u/s/h/shirui/private/cs537/p3a/p3/xv6-sp20/kernel/vectors.S:439
  10682c:	6a 00                	push   $0x0
/u/s/h/shirui/private/cs537/p3a/p3/xv6-sp20/kernel/vectors.S:440
  10682e:	6a 58                	push   $0x58
/u/s/h/shirui/private/cs537/p3a/p3/xv6-sp20/kernel/vectors.S:441
  106830:	e9 9c f6 ff ff       	jmp    105ed1 <alltraps>

00106835 <vector89>:
vector89():
/u/s/h/shirui/private/cs537/p3a/p3/xv6-sp20/kernel/vectors.S:444
  106835:	6a 00                	push   $0x0
/u/s/h/shirui/private/cs537/p3a/p3/xv6-sp20/kernel/vectors.S:445
  106837:	6a 59                	push   $0x59
/u/s/h/shirui/private/cs537/p3a/p3/xv6-sp20/kernel/vectors.S:446
  106839:	e9 93 f6 ff ff       	jmp    105ed1 <alltraps>

0010683e <vector90>:
vector90():
/u/s/h/shirui/private/cs537/p3a/p3/xv6-sp20/kernel/vectors.S:449
  10683e:	6a 00                	push   $0x0
/u/s/h/shirui/private/cs537/p3a/p3/xv6-sp20/kernel/vectors.S:450
  106840:	6a 5a                	push   $0x5a
/u/s/h/shirui/private/cs537/p3a/p3/xv6-sp20/kernel/vectors.S:451
  106842:	e9 8a f6 ff ff       	jmp    105ed1 <alltraps>

00106847 <vector91>:
vector91():
/u/s/h/shirui/private/cs537/p3a/p3/xv6-sp20/kernel/vectors.S:454
  106847:	6a 00                	push   $0x0
/u/s/h/shirui/private/cs537/p3a/p3/xv6-sp20/kernel/vectors.S:455
  106849:	6a 5b                	push   $0x5b
/u/s/h/shirui/private/cs537/p3a/p3/xv6-sp20/kernel/vectors.S:456
  10684b:	e9 81 f6 ff ff       	jmp    105ed1 <alltraps>

00106850 <vector92>:
vector92():
/u/s/h/shirui/private/cs537/p3a/p3/xv6-sp20/kernel/vectors.S:459
  106850:	6a 00                	push   $0x0
/u/s/h/shirui/private/cs537/p3a/p3/xv6-sp20/kernel/vectors.S:460
  106852:	6a 5c                	push   $0x5c
/u/s/h/shirui/private/cs537/p3a/p3/xv6-sp20/kernel/vectors.S:461
  106854:	e9 78 f6 ff ff       	jmp    105ed1 <alltraps>

00106859 <vector93>:
vector93():
/u/s/h/shirui/private/cs537/p3a/p3/xv6-sp20/kernel/vectors.S:464
  106859:	6a 00                	push   $0x0
/u/s/h/shirui/private/cs537/p3a/p3/xv6-sp20/kernel/vectors.S:465
  10685b:	6a 5d                	push   $0x5d
/u/s/h/shirui/private/cs537/p3a/p3/xv6-sp20/kernel/vectors.S:466
  10685d:	e9 6f f6 ff ff       	jmp    105ed1 <alltraps>

00106862 <vector94>:
vector94():
/u/s/h/shirui/private/cs537/p3a/p3/xv6-sp20/kernel/vectors.S:469
  106862:	6a 00                	push   $0x0
/u/s/h/shirui/private/cs537/p3a/p3/xv6-sp20/kernel/vectors.S:470
  106864:	6a 5e                	push   $0x5e
/u/s/h/shirui/private/cs537/p3a/p3/xv6-sp20/kernel/vectors.S:471
  106866:	e9 66 f6 ff ff       	jmp    105ed1 <alltraps>

0010686b <vector95>:
vector95():
/u/s/h/shirui/private/cs537/p3a/p3/xv6-sp20/kernel/vectors.S:474
  10686b:	6a 00                	push   $0x0
/u/s/h/shirui/private/cs537/p3a/p3/xv6-sp20/kernel/vectors.S:475
  10686d:	6a 5f                	push   $0x5f
/u/s/h/shirui/private/cs537/p3a/p3/xv6-sp20/kernel/vectors.S:476
  10686f:	e9 5d f6 ff ff       	jmp    105ed1 <alltraps>

00106874 <vector96>:
vector96():
/u/s/h/shirui/private/cs537/p3a/p3/xv6-sp20/kernel/vectors.S:479
  106874:	6a 00                	push   $0x0
/u/s/h/shirui/private/cs537/p3a/p3/xv6-sp20/kernel/vectors.S:480
  106876:	6a 60                	push   $0x60
/u/s/h/shirui/private/cs537/p3a/p3/xv6-sp20/kernel/vectors.S:481
  106878:	e9 54 f6 ff ff       	jmp    105ed1 <alltraps>

0010687d <vector97>:
vector97():
/u/s/h/shirui/private/cs537/p3a/p3/xv6-sp20/kernel/vectors.S:484
  10687d:	6a 00                	push   $0x0
/u/s/h/shirui/private/cs537/p3a/p3/xv6-sp20/kernel/vectors.S:485
  10687f:	6a 61                	push   $0x61
/u/s/h/shirui/private/cs537/p3a/p3/xv6-sp20/kernel/vectors.S:486
  106881:	e9 4b f6 ff ff       	jmp    105ed1 <alltraps>

00106886 <vector98>:
vector98():
/u/s/h/shirui/private/cs537/p3a/p3/xv6-sp20/kernel/vectors.S:489
  106886:	6a 00                	push   $0x0
/u/s/h/shirui/private/cs537/p3a/p3/xv6-sp20/kernel/vectors.S:490
  106888:	6a 62                	push   $0x62
/u/s/h/shirui/private/cs537/p3a/p3/xv6-sp20/kernel/vectors.S:491
  10688a:	e9 42 f6 ff ff       	jmp    105ed1 <alltraps>

0010688f <vector99>:
vector99():
/u/s/h/shirui/private/cs537/p3a/p3/xv6-sp20/kernel/vectors.S:494
  10688f:	6a 00                	push   $0x0
/u/s/h/shirui/private/cs537/p3a/p3/xv6-sp20/kernel/vectors.S:495
  106891:	6a 63                	push   $0x63
/u/s/h/shirui/private/cs537/p3a/p3/xv6-sp20/kernel/vectors.S:496
  106893:	e9 39 f6 ff ff       	jmp    105ed1 <alltraps>

00106898 <vector100>:
vector100():
/u/s/h/shirui/private/cs537/p3a/p3/xv6-sp20/kernel/vectors.S:499
  106898:	6a 00                	push   $0x0
/u/s/h/shirui/private/cs537/p3a/p3/xv6-sp20/kernel/vectors.S:500
  10689a:	6a 64                	push   $0x64
/u/s/h/shirui/private/cs537/p3a/p3/xv6-sp20/kernel/vectors.S:501
  10689c:	e9 30 f6 ff ff       	jmp    105ed1 <alltraps>

001068a1 <vector101>:
vector101():
/u/s/h/shirui/private/cs537/p3a/p3/xv6-sp20/kernel/vectors.S:504
  1068a1:	6a 00                	push   $0x0
/u/s/h/shirui/private/cs537/p3a/p3/xv6-sp20/kernel/vectors.S:505
  1068a3:	6a 65                	push   $0x65
/u/s/h/shirui/private/cs537/p3a/p3/xv6-sp20/kernel/vectors.S:506
  1068a5:	e9 27 f6 ff ff       	jmp    105ed1 <alltraps>

001068aa <vector102>:
vector102():
/u/s/h/shirui/private/cs537/p3a/p3/xv6-sp20/kernel/vectors.S:509
  1068aa:	6a 00                	push   $0x0
/u/s/h/shirui/private/cs537/p3a/p3/xv6-sp20/kernel/vectors.S:510
  1068ac:	6a 66                	push   $0x66
/u/s/h/shirui/private/cs537/p3a/p3/xv6-sp20/kernel/vectors.S:511
  1068ae:	e9 1e f6 ff ff       	jmp    105ed1 <alltraps>

001068b3 <vector103>:
vector103():
/u/s/h/shirui/private/cs537/p3a/p3/xv6-sp20/kernel/vectors.S:514
  1068b3:	6a 00                	push   $0x0
/u/s/h/shirui/private/cs537/p3a/p3/xv6-sp20/kernel/vectors.S:515
  1068b5:	6a 67                	push   $0x67
/u/s/h/shirui/private/cs537/p3a/p3/xv6-sp20/kernel/vectors.S:516
  1068b7:	e9 15 f6 ff ff       	jmp    105ed1 <alltraps>

001068bc <vector104>:
vector104():
/u/s/h/shirui/private/cs537/p3a/p3/xv6-sp20/kernel/vectors.S:519
  1068bc:	6a 00                	push   $0x0
/u/s/h/shirui/private/cs537/p3a/p3/xv6-sp20/kernel/vectors.S:520
  1068be:	6a 68                	push   $0x68
/u/s/h/shirui/private/cs537/p3a/p3/xv6-sp20/kernel/vectors.S:521
  1068c0:	e9 0c f6 ff ff       	jmp    105ed1 <alltraps>

001068c5 <vector105>:
vector105():
/u/s/h/shirui/private/cs537/p3a/p3/xv6-sp20/kernel/vectors.S:524
  1068c5:	6a 00                	push   $0x0
/u/s/h/shirui/private/cs537/p3a/p3/xv6-sp20/kernel/vectors.S:525
  1068c7:	6a 69                	push   $0x69
/u/s/h/shirui/private/cs537/p3a/p3/xv6-sp20/kernel/vectors.S:526
  1068c9:	e9 03 f6 ff ff       	jmp    105ed1 <alltraps>

001068ce <vector106>:
vector106():
/u/s/h/shirui/private/cs537/p3a/p3/xv6-sp20/kernel/vectors.S:529
  1068ce:	6a 00                	push   $0x0
/u/s/h/shirui/private/cs537/p3a/p3/xv6-sp20/kernel/vectors.S:530
  1068d0:	6a 6a                	push   $0x6a
/u/s/h/shirui/private/cs537/p3a/p3/xv6-sp20/kernel/vectors.S:531
  1068d2:	e9 fa f5 ff ff       	jmp    105ed1 <alltraps>

001068d7 <vector107>:
vector107():
/u/s/h/shirui/private/cs537/p3a/p3/xv6-sp20/kernel/vectors.S:534
  1068d7:	6a 00                	push   $0x0
/u/s/h/shirui/private/cs537/p3a/p3/xv6-sp20/kernel/vectors.S:535
  1068d9:	6a 6b                	push   $0x6b
/u/s/h/shirui/private/cs537/p3a/p3/xv6-sp20/kernel/vectors.S:536
  1068db:	e9 f1 f5 ff ff       	jmp    105ed1 <alltraps>

001068e0 <vector108>:
vector108():
/u/s/h/shirui/private/cs537/p3a/p3/xv6-sp20/kernel/vectors.S:539
  1068e0:	6a 00                	push   $0x0
/u/s/h/shirui/private/cs537/p3a/p3/xv6-sp20/kernel/vectors.S:540
  1068e2:	6a 6c                	push   $0x6c
/u/s/h/shirui/private/cs537/p3a/p3/xv6-sp20/kernel/vectors.S:541
  1068e4:	e9 e8 f5 ff ff       	jmp    105ed1 <alltraps>

001068e9 <vector109>:
vector109():
/u/s/h/shirui/private/cs537/p3a/p3/xv6-sp20/kernel/vectors.S:544
  1068e9:	6a 00                	push   $0x0
/u/s/h/shirui/private/cs537/p3a/p3/xv6-sp20/kernel/vectors.S:545
  1068eb:	6a 6d                	push   $0x6d
/u/s/h/shirui/private/cs537/p3a/p3/xv6-sp20/kernel/vectors.S:546
  1068ed:	e9 df f5 ff ff       	jmp    105ed1 <alltraps>

001068f2 <vector110>:
vector110():
/u/s/h/shirui/private/cs537/p3a/p3/xv6-sp20/kernel/vectors.S:549
  1068f2:	6a 00                	push   $0x0
/u/s/h/shirui/private/cs537/p3a/p3/xv6-sp20/kernel/vectors.S:550
  1068f4:	6a 6e                	push   $0x6e
/u/s/h/shirui/private/cs537/p3a/p3/xv6-sp20/kernel/vectors.S:551
  1068f6:	e9 d6 f5 ff ff       	jmp    105ed1 <alltraps>

001068fb <vector111>:
vector111():
/u/s/h/shirui/private/cs537/p3a/p3/xv6-sp20/kernel/vectors.S:554
  1068fb:	6a 00                	push   $0x0
/u/s/h/shirui/private/cs537/p3a/p3/xv6-sp20/kernel/vectors.S:555
  1068fd:	6a 6f                	push   $0x6f
/u/s/h/shirui/private/cs537/p3a/p3/xv6-sp20/kernel/vectors.S:556
  1068ff:	e9 cd f5 ff ff       	jmp    105ed1 <alltraps>

00106904 <vector112>:
vector112():
/u/s/h/shirui/private/cs537/p3a/p3/xv6-sp20/kernel/vectors.S:559
  106904:	6a 00                	push   $0x0
/u/s/h/shirui/private/cs537/p3a/p3/xv6-sp20/kernel/vectors.S:560
  106906:	6a 70                	push   $0x70
/u/s/h/shirui/private/cs537/p3a/p3/xv6-sp20/kernel/vectors.S:561
  106908:	e9 c4 f5 ff ff       	jmp    105ed1 <alltraps>

0010690d <vector113>:
vector113():
/u/s/h/shirui/private/cs537/p3a/p3/xv6-sp20/kernel/vectors.S:564
  10690d:	6a 00                	push   $0x0
/u/s/h/shirui/private/cs537/p3a/p3/xv6-sp20/kernel/vectors.S:565
  10690f:	6a 71                	push   $0x71
/u/s/h/shirui/private/cs537/p3a/p3/xv6-sp20/kernel/vectors.S:566
  106911:	e9 bb f5 ff ff       	jmp    105ed1 <alltraps>

00106916 <vector114>:
vector114():
/u/s/h/shirui/private/cs537/p3a/p3/xv6-sp20/kernel/vectors.S:569
  106916:	6a 00                	push   $0x0
/u/s/h/shirui/private/cs537/p3a/p3/xv6-sp20/kernel/vectors.S:570
  106918:	6a 72                	push   $0x72
/u/s/h/shirui/private/cs537/p3a/p3/xv6-sp20/kernel/vectors.S:571
  10691a:	e9 b2 f5 ff ff       	jmp    105ed1 <alltraps>

0010691f <vector115>:
vector115():
/u/s/h/shirui/private/cs537/p3a/p3/xv6-sp20/kernel/vectors.S:574
  10691f:	6a 00                	push   $0x0
/u/s/h/shirui/private/cs537/p3a/p3/xv6-sp20/kernel/vectors.S:575
  106921:	6a 73                	push   $0x73
/u/s/h/shirui/private/cs537/p3a/p3/xv6-sp20/kernel/vectors.S:576
  106923:	e9 a9 f5 ff ff       	jmp    105ed1 <alltraps>

00106928 <vector116>:
vector116():
/u/s/h/shirui/private/cs537/p3a/p3/xv6-sp20/kernel/vectors.S:579
  106928:	6a 00                	push   $0x0
/u/s/h/shirui/private/cs537/p3a/p3/xv6-sp20/kernel/vectors.S:580
  10692a:	6a 74                	push   $0x74
/u/s/h/shirui/private/cs537/p3a/p3/xv6-sp20/kernel/vectors.S:581
  10692c:	e9 a0 f5 ff ff       	jmp    105ed1 <alltraps>

00106931 <vector117>:
vector117():
/u/s/h/shirui/private/cs537/p3a/p3/xv6-sp20/kernel/vectors.S:584
  106931:	6a 00                	push   $0x0
/u/s/h/shirui/private/cs537/p3a/p3/xv6-sp20/kernel/vectors.S:585
  106933:	6a 75                	push   $0x75
/u/s/h/shirui/private/cs537/p3a/p3/xv6-sp20/kernel/vectors.S:586
  106935:	e9 97 f5 ff ff       	jmp    105ed1 <alltraps>

0010693a <vector118>:
vector118():
/u/s/h/shirui/private/cs537/p3a/p3/xv6-sp20/kernel/vectors.S:589
  10693a:	6a 00                	push   $0x0
/u/s/h/shirui/private/cs537/p3a/p3/xv6-sp20/kernel/vectors.S:590
  10693c:	6a 76                	push   $0x76
/u/s/h/shirui/private/cs537/p3a/p3/xv6-sp20/kernel/vectors.S:591
  10693e:	e9 8e f5 ff ff       	jmp    105ed1 <alltraps>

00106943 <vector119>:
vector119():
/u/s/h/shirui/private/cs537/p3a/p3/xv6-sp20/kernel/vectors.S:594
  106943:	6a 00                	push   $0x0
/u/s/h/shirui/private/cs537/p3a/p3/xv6-sp20/kernel/vectors.S:595
  106945:	6a 77                	push   $0x77
/u/s/h/shirui/private/cs537/p3a/p3/xv6-sp20/kernel/vectors.S:596
  106947:	e9 85 f5 ff ff       	jmp    105ed1 <alltraps>

0010694c <vector120>:
vector120():
/u/s/h/shirui/private/cs537/p3a/p3/xv6-sp20/kernel/vectors.S:599
  10694c:	6a 00                	push   $0x0
/u/s/h/shirui/private/cs537/p3a/p3/xv6-sp20/kernel/vectors.S:600
  10694e:	6a 78                	push   $0x78
/u/s/h/shirui/private/cs537/p3a/p3/xv6-sp20/kernel/vectors.S:601
  106950:	e9 7c f5 ff ff       	jmp    105ed1 <alltraps>

00106955 <vector121>:
vector121():
/u/s/h/shirui/private/cs537/p3a/p3/xv6-sp20/kernel/vectors.S:604
  106955:	6a 00                	push   $0x0
/u/s/h/shirui/private/cs537/p3a/p3/xv6-sp20/kernel/vectors.S:605
  106957:	6a 79                	push   $0x79
/u/s/h/shirui/private/cs537/p3a/p3/xv6-sp20/kernel/vectors.S:606
  106959:	e9 73 f5 ff ff       	jmp    105ed1 <alltraps>

0010695e <vector122>:
vector122():
/u/s/h/shirui/private/cs537/p3a/p3/xv6-sp20/kernel/vectors.S:609
  10695e:	6a 00                	push   $0x0
/u/s/h/shirui/private/cs537/p3a/p3/xv6-sp20/kernel/vectors.S:610
  106960:	6a 7a                	push   $0x7a
/u/s/h/shirui/private/cs537/p3a/p3/xv6-sp20/kernel/vectors.S:611
  106962:	e9 6a f5 ff ff       	jmp    105ed1 <alltraps>

00106967 <vector123>:
vector123():
/u/s/h/shirui/private/cs537/p3a/p3/xv6-sp20/kernel/vectors.S:614
  106967:	6a 00                	push   $0x0
/u/s/h/shirui/private/cs537/p3a/p3/xv6-sp20/kernel/vectors.S:615
  106969:	6a 7b                	push   $0x7b
/u/s/h/shirui/private/cs537/p3a/p3/xv6-sp20/kernel/vectors.S:616
  10696b:	e9 61 f5 ff ff       	jmp    105ed1 <alltraps>

00106970 <vector124>:
vector124():
/u/s/h/shirui/private/cs537/p3a/p3/xv6-sp20/kernel/vectors.S:619
  106970:	6a 00                	push   $0x0
/u/s/h/shirui/private/cs537/p3a/p3/xv6-sp20/kernel/vectors.S:620
  106972:	6a 7c                	push   $0x7c
/u/s/h/shirui/private/cs537/p3a/p3/xv6-sp20/kernel/vectors.S:621
  106974:	e9 58 f5 ff ff       	jmp    105ed1 <alltraps>

00106979 <vector125>:
vector125():
/u/s/h/shirui/private/cs537/p3a/p3/xv6-sp20/kernel/vectors.S:624
  106979:	6a 00                	push   $0x0
/u/s/h/shirui/private/cs537/p3a/p3/xv6-sp20/kernel/vectors.S:625
  10697b:	6a 7d                	push   $0x7d
/u/s/h/shirui/private/cs537/p3a/p3/xv6-sp20/kernel/vectors.S:626
  10697d:	e9 4f f5 ff ff       	jmp    105ed1 <alltraps>

00106982 <vector126>:
vector126():
/u/s/h/shirui/private/cs537/p3a/p3/xv6-sp20/kernel/vectors.S:629
  106982:	6a 00                	push   $0x0
/u/s/h/shirui/private/cs537/p3a/p3/xv6-sp20/kernel/vectors.S:630
  106984:	6a 7e                	push   $0x7e
/u/s/h/shirui/private/cs537/p3a/p3/xv6-sp20/kernel/vectors.S:631
  106986:	e9 46 f5 ff ff       	jmp    105ed1 <alltraps>

0010698b <vector127>:
vector127():
/u/s/h/shirui/private/cs537/p3a/p3/xv6-sp20/kernel/vectors.S:634
  10698b:	6a 00                	push   $0x0
/u/s/h/shirui/private/cs537/p3a/p3/xv6-sp20/kernel/vectors.S:635
  10698d:	6a 7f                	push   $0x7f
/u/s/h/shirui/private/cs537/p3a/p3/xv6-sp20/kernel/vectors.S:636
  10698f:	e9 3d f5 ff ff       	jmp    105ed1 <alltraps>

00106994 <vector128>:
vector128():
/u/s/h/shirui/private/cs537/p3a/p3/xv6-sp20/kernel/vectors.S:639
  106994:	6a 00                	push   $0x0
/u/s/h/shirui/private/cs537/p3a/p3/xv6-sp20/kernel/vectors.S:640
  106996:	68 80 00 00 00       	push   $0x80
/u/s/h/shirui/private/cs537/p3a/p3/xv6-sp20/kernel/vectors.S:641
  10699b:	e9 31 f5 ff ff       	jmp    105ed1 <alltraps>

001069a0 <vector129>:
vector129():
/u/s/h/shirui/private/cs537/p3a/p3/xv6-sp20/kernel/vectors.S:644
  1069a0:	6a 00                	push   $0x0
/u/s/h/shirui/private/cs537/p3a/p3/xv6-sp20/kernel/vectors.S:645
  1069a2:	68 81 00 00 00       	push   $0x81
/u/s/h/shirui/private/cs537/p3a/p3/xv6-sp20/kernel/vectors.S:646
  1069a7:	e9 25 f5 ff ff       	jmp    105ed1 <alltraps>

001069ac <vector130>:
vector130():
/u/s/h/shirui/private/cs537/p3a/p3/xv6-sp20/kernel/vectors.S:649
  1069ac:	6a 00                	push   $0x0
/u/s/h/shirui/private/cs537/p3a/p3/xv6-sp20/kernel/vectors.S:650
  1069ae:	68 82 00 00 00       	push   $0x82
/u/s/h/shirui/private/cs537/p3a/p3/xv6-sp20/kernel/vectors.S:651
  1069b3:	e9 19 f5 ff ff       	jmp    105ed1 <alltraps>

001069b8 <vector131>:
vector131():
/u/s/h/shirui/private/cs537/p3a/p3/xv6-sp20/kernel/vectors.S:654
  1069b8:	6a 00                	push   $0x0
/u/s/h/shirui/private/cs537/p3a/p3/xv6-sp20/kernel/vectors.S:655
  1069ba:	68 83 00 00 00       	push   $0x83
/u/s/h/shirui/private/cs537/p3a/p3/xv6-sp20/kernel/vectors.S:656
  1069bf:	e9 0d f5 ff ff       	jmp    105ed1 <alltraps>

001069c4 <vector132>:
vector132():
/u/s/h/shirui/private/cs537/p3a/p3/xv6-sp20/kernel/vectors.S:659
  1069c4:	6a 00                	push   $0x0
/u/s/h/shirui/private/cs537/p3a/p3/xv6-sp20/kernel/vectors.S:660
  1069c6:	68 84 00 00 00       	push   $0x84
/u/s/h/shirui/private/cs537/p3a/p3/xv6-sp20/kernel/vectors.S:661
  1069cb:	e9 01 f5 ff ff       	jmp    105ed1 <alltraps>

001069d0 <vector133>:
vector133():
/u/s/h/shirui/private/cs537/p3a/p3/xv6-sp20/kernel/vectors.S:664
  1069d0:	6a 00                	push   $0x0
/u/s/h/shirui/private/cs537/p3a/p3/xv6-sp20/kernel/vectors.S:665
  1069d2:	68 85 00 00 00       	push   $0x85
/u/s/h/shirui/private/cs537/p3a/p3/xv6-sp20/kernel/vectors.S:666
  1069d7:	e9 f5 f4 ff ff       	jmp    105ed1 <alltraps>

001069dc <vector134>:
vector134():
/u/s/h/shirui/private/cs537/p3a/p3/xv6-sp20/kernel/vectors.S:669
  1069dc:	6a 00                	push   $0x0
/u/s/h/shirui/private/cs537/p3a/p3/xv6-sp20/kernel/vectors.S:670
  1069de:	68 86 00 00 00       	push   $0x86
/u/s/h/shirui/private/cs537/p3a/p3/xv6-sp20/kernel/vectors.S:671
  1069e3:	e9 e9 f4 ff ff       	jmp    105ed1 <alltraps>

001069e8 <vector135>:
vector135():
/u/s/h/shirui/private/cs537/p3a/p3/xv6-sp20/kernel/vectors.S:674
  1069e8:	6a 00                	push   $0x0
/u/s/h/shirui/private/cs537/p3a/p3/xv6-sp20/kernel/vectors.S:675
  1069ea:	68 87 00 00 00       	push   $0x87
/u/s/h/shirui/private/cs537/p3a/p3/xv6-sp20/kernel/vectors.S:676
  1069ef:	e9 dd f4 ff ff       	jmp    105ed1 <alltraps>

001069f4 <vector136>:
vector136():
/u/s/h/shirui/private/cs537/p3a/p3/xv6-sp20/kernel/vectors.S:679
  1069f4:	6a 00                	push   $0x0
/u/s/h/shirui/private/cs537/p3a/p3/xv6-sp20/kernel/vectors.S:680
  1069f6:	68 88 00 00 00       	push   $0x88
/u/s/h/shirui/private/cs537/p3a/p3/xv6-sp20/kernel/vectors.S:681
  1069fb:	e9 d1 f4 ff ff       	jmp    105ed1 <alltraps>

00106a00 <vector137>:
vector137():
/u/s/h/shirui/private/cs537/p3a/p3/xv6-sp20/kernel/vectors.S:684
  106a00:	6a 00                	push   $0x0
/u/s/h/shirui/private/cs537/p3a/p3/xv6-sp20/kernel/vectors.S:685
  106a02:	68 89 00 00 00       	push   $0x89
/u/s/h/shirui/private/cs537/p3a/p3/xv6-sp20/kernel/vectors.S:686
  106a07:	e9 c5 f4 ff ff       	jmp    105ed1 <alltraps>

00106a0c <vector138>:
vector138():
/u/s/h/shirui/private/cs537/p3a/p3/xv6-sp20/kernel/vectors.S:689
  106a0c:	6a 00                	push   $0x0
/u/s/h/shirui/private/cs537/p3a/p3/xv6-sp20/kernel/vectors.S:690
  106a0e:	68 8a 00 00 00       	push   $0x8a
/u/s/h/shirui/private/cs537/p3a/p3/xv6-sp20/kernel/vectors.S:691
  106a13:	e9 b9 f4 ff ff       	jmp    105ed1 <alltraps>

00106a18 <vector139>:
vector139():
/u/s/h/shirui/private/cs537/p3a/p3/xv6-sp20/kernel/vectors.S:694
  106a18:	6a 00                	push   $0x0
/u/s/h/shirui/private/cs537/p3a/p3/xv6-sp20/kernel/vectors.S:695
  106a1a:	68 8b 00 00 00       	push   $0x8b
/u/s/h/shirui/private/cs537/p3a/p3/xv6-sp20/kernel/vectors.S:696
  106a1f:	e9 ad f4 ff ff       	jmp    105ed1 <alltraps>

00106a24 <vector140>:
vector140():
/u/s/h/shirui/private/cs537/p3a/p3/xv6-sp20/kernel/vectors.S:699
  106a24:	6a 00                	push   $0x0
/u/s/h/shirui/private/cs537/p3a/p3/xv6-sp20/kernel/vectors.S:700
  106a26:	68 8c 00 00 00       	push   $0x8c
/u/s/h/shirui/private/cs537/p3a/p3/xv6-sp20/kernel/vectors.S:701
  106a2b:	e9 a1 f4 ff ff       	jmp    105ed1 <alltraps>

00106a30 <vector141>:
vector141():
/u/s/h/shirui/private/cs537/p3a/p3/xv6-sp20/kernel/vectors.S:704
  106a30:	6a 00                	push   $0x0
/u/s/h/shirui/private/cs537/p3a/p3/xv6-sp20/kernel/vectors.S:705
  106a32:	68 8d 00 00 00       	push   $0x8d
/u/s/h/shirui/private/cs537/p3a/p3/xv6-sp20/kernel/vectors.S:706
  106a37:	e9 95 f4 ff ff       	jmp    105ed1 <alltraps>

00106a3c <vector142>:
vector142():
/u/s/h/shirui/private/cs537/p3a/p3/xv6-sp20/kernel/vectors.S:709
  106a3c:	6a 00                	push   $0x0
/u/s/h/shirui/private/cs537/p3a/p3/xv6-sp20/kernel/vectors.S:710
  106a3e:	68 8e 00 00 00       	push   $0x8e
/u/s/h/shirui/private/cs537/p3a/p3/xv6-sp20/kernel/vectors.S:711
  106a43:	e9 89 f4 ff ff       	jmp    105ed1 <alltraps>

00106a48 <vector143>:
vector143():
/u/s/h/shirui/private/cs537/p3a/p3/xv6-sp20/kernel/vectors.S:714
  106a48:	6a 00                	push   $0x0
/u/s/h/shirui/private/cs537/p3a/p3/xv6-sp20/kernel/vectors.S:715
  106a4a:	68 8f 00 00 00       	push   $0x8f
/u/s/h/shirui/private/cs537/p3a/p3/xv6-sp20/kernel/vectors.S:716
  106a4f:	e9 7d f4 ff ff       	jmp    105ed1 <alltraps>

00106a54 <vector144>:
vector144():
/u/s/h/shirui/private/cs537/p3a/p3/xv6-sp20/kernel/vectors.S:719
  106a54:	6a 00                	push   $0x0
/u/s/h/shirui/private/cs537/p3a/p3/xv6-sp20/kernel/vectors.S:720
  106a56:	68 90 00 00 00       	push   $0x90
/u/s/h/shirui/private/cs537/p3a/p3/xv6-sp20/kernel/vectors.S:721
  106a5b:	e9 71 f4 ff ff       	jmp    105ed1 <alltraps>

00106a60 <vector145>:
vector145():
/u/s/h/shirui/private/cs537/p3a/p3/xv6-sp20/kernel/vectors.S:724
  106a60:	6a 00                	push   $0x0
/u/s/h/shirui/private/cs537/p3a/p3/xv6-sp20/kernel/vectors.S:725
  106a62:	68 91 00 00 00       	push   $0x91
/u/s/h/shirui/private/cs537/p3a/p3/xv6-sp20/kernel/vectors.S:726
  106a67:	e9 65 f4 ff ff       	jmp    105ed1 <alltraps>

00106a6c <vector146>:
vector146():
/u/s/h/shirui/private/cs537/p3a/p3/xv6-sp20/kernel/vectors.S:729
  106a6c:	6a 00                	push   $0x0
/u/s/h/shirui/private/cs537/p3a/p3/xv6-sp20/kernel/vectors.S:730
  106a6e:	68 92 00 00 00       	push   $0x92
/u/s/h/shirui/private/cs537/p3a/p3/xv6-sp20/kernel/vectors.S:731
  106a73:	e9 59 f4 ff ff       	jmp    105ed1 <alltraps>

00106a78 <vector147>:
vector147():
/u/s/h/shirui/private/cs537/p3a/p3/xv6-sp20/kernel/vectors.S:734
  106a78:	6a 00                	push   $0x0
/u/s/h/shirui/private/cs537/p3a/p3/xv6-sp20/kernel/vectors.S:735
  106a7a:	68 93 00 00 00       	push   $0x93
/u/s/h/shirui/private/cs537/p3a/p3/xv6-sp20/kernel/vectors.S:736
  106a7f:	e9 4d f4 ff ff       	jmp    105ed1 <alltraps>

00106a84 <vector148>:
vector148():
/u/s/h/shirui/private/cs537/p3a/p3/xv6-sp20/kernel/vectors.S:739
  106a84:	6a 00                	push   $0x0
/u/s/h/shirui/private/cs537/p3a/p3/xv6-sp20/kernel/vectors.S:740
  106a86:	68 94 00 00 00       	push   $0x94
/u/s/h/shirui/private/cs537/p3a/p3/xv6-sp20/kernel/vectors.S:741
  106a8b:	e9 41 f4 ff ff       	jmp    105ed1 <alltraps>

00106a90 <vector149>:
vector149():
/u/s/h/shirui/private/cs537/p3a/p3/xv6-sp20/kernel/vectors.S:744
  106a90:	6a 00                	push   $0x0
/u/s/h/shirui/private/cs537/p3a/p3/xv6-sp20/kernel/vectors.S:745
  106a92:	68 95 00 00 00       	push   $0x95
/u/s/h/shirui/private/cs537/p3a/p3/xv6-sp20/kernel/vectors.S:746
  106a97:	e9 35 f4 ff ff       	jmp    105ed1 <alltraps>

00106a9c <vector150>:
vector150():
/u/s/h/shirui/private/cs537/p3a/p3/xv6-sp20/kernel/vectors.S:749
  106a9c:	6a 00                	push   $0x0
/u/s/h/shirui/private/cs537/p3a/p3/xv6-sp20/kernel/vectors.S:750
  106a9e:	68 96 00 00 00       	push   $0x96
/u/s/h/shirui/private/cs537/p3a/p3/xv6-sp20/kernel/vectors.S:751
  106aa3:	e9 29 f4 ff ff       	jmp    105ed1 <alltraps>

00106aa8 <vector151>:
vector151():
/u/s/h/shirui/private/cs537/p3a/p3/xv6-sp20/kernel/vectors.S:754
  106aa8:	6a 00                	push   $0x0
/u/s/h/shirui/private/cs537/p3a/p3/xv6-sp20/kernel/vectors.S:755
  106aaa:	68 97 00 00 00       	push   $0x97
/u/s/h/shirui/private/cs537/p3a/p3/xv6-sp20/kernel/vectors.S:756
  106aaf:	e9 1d f4 ff ff       	jmp    105ed1 <alltraps>

00106ab4 <vector152>:
vector152():
/u/s/h/shirui/private/cs537/p3a/p3/xv6-sp20/kernel/vectors.S:759
  106ab4:	6a 00                	push   $0x0
/u/s/h/shirui/private/cs537/p3a/p3/xv6-sp20/kernel/vectors.S:760
  106ab6:	68 98 00 00 00       	push   $0x98
/u/s/h/shirui/private/cs537/p3a/p3/xv6-sp20/kernel/vectors.S:761
  106abb:	e9 11 f4 ff ff       	jmp    105ed1 <alltraps>

00106ac0 <vector153>:
vector153():
/u/s/h/shirui/private/cs537/p3a/p3/xv6-sp20/kernel/vectors.S:764
  106ac0:	6a 00                	push   $0x0
/u/s/h/shirui/private/cs537/p3a/p3/xv6-sp20/kernel/vectors.S:765
  106ac2:	68 99 00 00 00       	push   $0x99
/u/s/h/shirui/private/cs537/p3a/p3/xv6-sp20/kernel/vectors.S:766
  106ac7:	e9 05 f4 ff ff       	jmp    105ed1 <alltraps>

00106acc <vector154>:
vector154():
/u/s/h/shirui/private/cs537/p3a/p3/xv6-sp20/kernel/vectors.S:769
  106acc:	6a 00                	push   $0x0
/u/s/h/shirui/private/cs537/p3a/p3/xv6-sp20/kernel/vectors.S:770
  106ace:	68 9a 00 00 00       	push   $0x9a
/u/s/h/shirui/private/cs537/p3a/p3/xv6-sp20/kernel/vectors.S:771
  106ad3:	e9 f9 f3 ff ff       	jmp    105ed1 <alltraps>

00106ad8 <vector155>:
vector155():
/u/s/h/shirui/private/cs537/p3a/p3/xv6-sp20/kernel/vectors.S:774
  106ad8:	6a 00                	push   $0x0
/u/s/h/shirui/private/cs537/p3a/p3/xv6-sp20/kernel/vectors.S:775
  106ada:	68 9b 00 00 00       	push   $0x9b
/u/s/h/shirui/private/cs537/p3a/p3/xv6-sp20/kernel/vectors.S:776
  106adf:	e9 ed f3 ff ff       	jmp    105ed1 <alltraps>

00106ae4 <vector156>:
vector156():
/u/s/h/shirui/private/cs537/p3a/p3/xv6-sp20/kernel/vectors.S:779
  106ae4:	6a 00                	push   $0x0
/u/s/h/shirui/private/cs537/p3a/p3/xv6-sp20/kernel/vectors.S:780
  106ae6:	68 9c 00 00 00       	push   $0x9c
/u/s/h/shirui/private/cs537/p3a/p3/xv6-sp20/kernel/vectors.S:781
  106aeb:	e9 e1 f3 ff ff       	jmp    105ed1 <alltraps>

00106af0 <vector157>:
vector157():
/u/s/h/shirui/private/cs537/p3a/p3/xv6-sp20/kernel/vectors.S:784
  106af0:	6a 00                	push   $0x0
/u/s/h/shirui/private/cs537/p3a/p3/xv6-sp20/kernel/vectors.S:785
  106af2:	68 9d 00 00 00       	push   $0x9d
/u/s/h/shirui/private/cs537/p3a/p3/xv6-sp20/kernel/vectors.S:786
  106af7:	e9 d5 f3 ff ff       	jmp    105ed1 <alltraps>

00106afc <vector158>:
vector158():
/u/s/h/shirui/private/cs537/p3a/p3/xv6-sp20/kernel/vectors.S:789
  106afc:	6a 00                	push   $0x0
/u/s/h/shirui/private/cs537/p3a/p3/xv6-sp20/kernel/vectors.S:790
  106afe:	68 9e 00 00 00       	push   $0x9e
/u/s/h/shirui/private/cs537/p3a/p3/xv6-sp20/kernel/vectors.S:791
  106b03:	e9 c9 f3 ff ff       	jmp    105ed1 <alltraps>

00106b08 <vector159>:
vector159():
/u/s/h/shirui/private/cs537/p3a/p3/xv6-sp20/kernel/vectors.S:794
  106b08:	6a 00                	push   $0x0
/u/s/h/shirui/private/cs537/p3a/p3/xv6-sp20/kernel/vectors.S:795
  106b0a:	68 9f 00 00 00       	push   $0x9f
/u/s/h/shirui/private/cs537/p3a/p3/xv6-sp20/kernel/vectors.S:796
  106b0f:	e9 bd f3 ff ff       	jmp    105ed1 <alltraps>

00106b14 <vector160>:
vector160():
/u/s/h/shirui/private/cs537/p3a/p3/xv6-sp20/kernel/vectors.S:799
  106b14:	6a 00                	push   $0x0
/u/s/h/shirui/private/cs537/p3a/p3/xv6-sp20/kernel/vectors.S:800
  106b16:	68 a0 00 00 00       	push   $0xa0
/u/s/h/shirui/private/cs537/p3a/p3/xv6-sp20/kernel/vectors.S:801
  106b1b:	e9 b1 f3 ff ff       	jmp    105ed1 <alltraps>

00106b20 <vector161>:
vector161():
/u/s/h/shirui/private/cs537/p3a/p3/xv6-sp20/kernel/vectors.S:804
  106b20:	6a 00                	push   $0x0
/u/s/h/shirui/private/cs537/p3a/p3/xv6-sp20/kernel/vectors.S:805
  106b22:	68 a1 00 00 00       	push   $0xa1
/u/s/h/shirui/private/cs537/p3a/p3/xv6-sp20/kernel/vectors.S:806
  106b27:	e9 a5 f3 ff ff       	jmp    105ed1 <alltraps>

00106b2c <vector162>:
vector162():
/u/s/h/shirui/private/cs537/p3a/p3/xv6-sp20/kernel/vectors.S:809
  106b2c:	6a 00                	push   $0x0
/u/s/h/shirui/private/cs537/p3a/p3/xv6-sp20/kernel/vectors.S:810
  106b2e:	68 a2 00 00 00       	push   $0xa2
/u/s/h/shirui/private/cs537/p3a/p3/xv6-sp20/kernel/vectors.S:811
  106b33:	e9 99 f3 ff ff       	jmp    105ed1 <alltraps>

00106b38 <vector163>:
vector163():
/u/s/h/shirui/private/cs537/p3a/p3/xv6-sp20/kernel/vectors.S:814
  106b38:	6a 00                	push   $0x0
/u/s/h/shirui/private/cs537/p3a/p3/xv6-sp20/kernel/vectors.S:815
  106b3a:	68 a3 00 00 00       	push   $0xa3
/u/s/h/shirui/private/cs537/p3a/p3/xv6-sp20/kernel/vectors.S:816
  106b3f:	e9 8d f3 ff ff       	jmp    105ed1 <alltraps>

00106b44 <vector164>:
vector164():
/u/s/h/shirui/private/cs537/p3a/p3/xv6-sp20/kernel/vectors.S:819
  106b44:	6a 00                	push   $0x0
/u/s/h/shirui/private/cs537/p3a/p3/xv6-sp20/kernel/vectors.S:820
  106b46:	68 a4 00 00 00       	push   $0xa4
/u/s/h/shirui/private/cs537/p3a/p3/xv6-sp20/kernel/vectors.S:821
  106b4b:	e9 81 f3 ff ff       	jmp    105ed1 <alltraps>

00106b50 <vector165>:
vector165():
/u/s/h/shirui/private/cs537/p3a/p3/xv6-sp20/kernel/vectors.S:824
  106b50:	6a 00                	push   $0x0
/u/s/h/shirui/private/cs537/p3a/p3/xv6-sp20/kernel/vectors.S:825
  106b52:	68 a5 00 00 00       	push   $0xa5
/u/s/h/shirui/private/cs537/p3a/p3/xv6-sp20/kernel/vectors.S:826
  106b57:	e9 75 f3 ff ff       	jmp    105ed1 <alltraps>

00106b5c <vector166>:
vector166():
/u/s/h/shirui/private/cs537/p3a/p3/xv6-sp20/kernel/vectors.S:829
  106b5c:	6a 00                	push   $0x0
/u/s/h/shirui/private/cs537/p3a/p3/xv6-sp20/kernel/vectors.S:830
  106b5e:	68 a6 00 00 00       	push   $0xa6
/u/s/h/shirui/private/cs537/p3a/p3/xv6-sp20/kernel/vectors.S:831
  106b63:	e9 69 f3 ff ff       	jmp    105ed1 <alltraps>

00106b68 <vector167>:
vector167():
/u/s/h/shirui/private/cs537/p3a/p3/xv6-sp20/kernel/vectors.S:834
  106b68:	6a 00                	push   $0x0
/u/s/h/shirui/private/cs537/p3a/p3/xv6-sp20/kernel/vectors.S:835
  106b6a:	68 a7 00 00 00       	push   $0xa7
/u/s/h/shirui/private/cs537/p3a/p3/xv6-sp20/kernel/vectors.S:836
  106b6f:	e9 5d f3 ff ff       	jmp    105ed1 <alltraps>

00106b74 <vector168>:
vector168():
/u/s/h/shirui/private/cs537/p3a/p3/xv6-sp20/kernel/vectors.S:839
  106b74:	6a 00                	push   $0x0
/u/s/h/shirui/private/cs537/p3a/p3/xv6-sp20/kernel/vectors.S:840
  106b76:	68 a8 00 00 00       	push   $0xa8
/u/s/h/shirui/private/cs537/p3a/p3/xv6-sp20/kernel/vectors.S:841
  106b7b:	e9 51 f3 ff ff       	jmp    105ed1 <alltraps>

00106b80 <vector169>:
vector169():
/u/s/h/shirui/private/cs537/p3a/p3/xv6-sp20/kernel/vectors.S:844
  106b80:	6a 00                	push   $0x0
/u/s/h/shirui/private/cs537/p3a/p3/xv6-sp20/kernel/vectors.S:845
  106b82:	68 a9 00 00 00       	push   $0xa9
/u/s/h/shirui/private/cs537/p3a/p3/xv6-sp20/kernel/vectors.S:846
  106b87:	e9 45 f3 ff ff       	jmp    105ed1 <alltraps>

00106b8c <vector170>:
vector170():
/u/s/h/shirui/private/cs537/p3a/p3/xv6-sp20/kernel/vectors.S:849
  106b8c:	6a 00                	push   $0x0
/u/s/h/shirui/private/cs537/p3a/p3/xv6-sp20/kernel/vectors.S:850
  106b8e:	68 aa 00 00 00       	push   $0xaa
/u/s/h/shirui/private/cs537/p3a/p3/xv6-sp20/kernel/vectors.S:851
  106b93:	e9 39 f3 ff ff       	jmp    105ed1 <alltraps>

00106b98 <vector171>:
vector171():
/u/s/h/shirui/private/cs537/p3a/p3/xv6-sp20/kernel/vectors.S:854
  106b98:	6a 00                	push   $0x0
/u/s/h/shirui/private/cs537/p3a/p3/xv6-sp20/kernel/vectors.S:855
  106b9a:	68 ab 00 00 00       	push   $0xab
/u/s/h/shirui/private/cs537/p3a/p3/xv6-sp20/kernel/vectors.S:856
  106b9f:	e9 2d f3 ff ff       	jmp    105ed1 <alltraps>

00106ba4 <vector172>:
vector172():
/u/s/h/shirui/private/cs537/p3a/p3/xv6-sp20/kernel/vectors.S:859
  106ba4:	6a 00                	push   $0x0
/u/s/h/shirui/private/cs537/p3a/p3/xv6-sp20/kernel/vectors.S:860
  106ba6:	68 ac 00 00 00       	push   $0xac
/u/s/h/shirui/private/cs537/p3a/p3/xv6-sp20/kernel/vectors.S:861
  106bab:	e9 21 f3 ff ff       	jmp    105ed1 <alltraps>

00106bb0 <vector173>:
vector173():
/u/s/h/shirui/private/cs537/p3a/p3/xv6-sp20/kernel/vectors.S:864
  106bb0:	6a 00                	push   $0x0
/u/s/h/shirui/private/cs537/p3a/p3/xv6-sp20/kernel/vectors.S:865
  106bb2:	68 ad 00 00 00       	push   $0xad
/u/s/h/shirui/private/cs537/p3a/p3/xv6-sp20/kernel/vectors.S:866
  106bb7:	e9 15 f3 ff ff       	jmp    105ed1 <alltraps>

00106bbc <vector174>:
vector174():
/u/s/h/shirui/private/cs537/p3a/p3/xv6-sp20/kernel/vectors.S:869
  106bbc:	6a 00                	push   $0x0
/u/s/h/shirui/private/cs537/p3a/p3/xv6-sp20/kernel/vectors.S:870
  106bbe:	68 ae 00 00 00       	push   $0xae
/u/s/h/shirui/private/cs537/p3a/p3/xv6-sp20/kernel/vectors.S:871
  106bc3:	e9 09 f3 ff ff       	jmp    105ed1 <alltraps>

00106bc8 <vector175>:
vector175():
/u/s/h/shirui/private/cs537/p3a/p3/xv6-sp20/kernel/vectors.S:874
  106bc8:	6a 00                	push   $0x0
/u/s/h/shirui/private/cs537/p3a/p3/xv6-sp20/kernel/vectors.S:875
  106bca:	68 af 00 00 00       	push   $0xaf
/u/s/h/shirui/private/cs537/p3a/p3/xv6-sp20/kernel/vectors.S:876
  106bcf:	e9 fd f2 ff ff       	jmp    105ed1 <alltraps>

00106bd4 <vector176>:
vector176():
/u/s/h/shirui/private/cs537/p3a/p3/xv6-sp20/kernel/vectors.S:879
  106bd4:	6a 00                	push   $0x0
/u/s/h/shirui/private/cs537/p3a/p3/xv6-sp20/kernel/vectors.S:880
  106bd6:	68 b0 00 00 00       	push   $0xb0
/u/s/h/shirui/private/cs537/p3a/p3/xv6-sp20/kernel/vectors.S:881
  106bdb:	e9 f1 f2 ff ff       	jmp    105ed1 <alltraps>

00106be0 <vector177>:
vector177():
/u/s/h/shirui/private/cs537/p3a/p3/xv6-sp20/kernel/vectors.S:884
  106be0:	6a 00                	push   $0x0
/u/s/h/shirui/private/cs537/p3a/p3/xv6-sp20/kernel/vectors.S:885
  106be2:	68 b1 00 00 00       	push   $0xb1
/u/s/h/shirui/private/cs537/p3a/p3/xv6-sp20/kernel/vectors.S:886
  106be7:	e9 e5 f2 ff ff       	jmp    105ed1 <alltraps>

00106bec <vector178>:
vector178():
/u/s/h/shirui/private/cs537/p3a/p3/xv6-sp20/kernel/vectors.S:889
  106bec:	6a 00                	push   $0x0
/u/s/h/shirui/private/cs537/p3a/p3/xv6-sp20/kernel/vectors.S:890
  106bee:	68 b2 00 00 00       	push   $0xb2
/u/s/h/shirui/private/cs537/p3a/p3/xv6-sp20/kernel/vectors.S:891
  106bf3:	e9 d9 f2 ff ff       	jmp    105ed1 <alltraps>

00106bf8 <vector179>:
vector179():
/u/s/h/shirui/private/cs537/p3a/p3/xv6-sp20/kernel/vectors.S:894
  106bf8:	6a 00                	push   $0x0
/u/s/h/shirui/private/cs537/p3a/p3/xv6-sp20/kernel/vectors.S:895
  106bfa:	68 b3 00 00 00       	push   $0xb3
/u/s/h/shirui/private/cs537/p3a/p3/xv6-sp20/kernel/vectors.S:896
  106bff:	e9 cd f2 ff ff       	jmp    105ed1 <alltraps>

00106c04 <vector180>:
vector180():
/u/s/h/shirui/private/cs537/p3a/p3/xv6-sp20/kernel/vectors.S:899
  106c04:	6a 00                	push   $0x0
/u/s/h/shirui/private/cs537/p3a/p3/xv6-sp20/kernel/vectors.S:900
  106c06:	68 b4 00 00 00       	push   $0xb4
/u/s/h/shirui/private/cs537/p3a/p3/xv6-sp20/kernel/vectors.S:901
  106c0b:	e9 c1 f2 ff ff       	jmp    105ed1 <alltraps>

00106c10 <vector181>:
vector181():
/u/s/h/shirui/private/cs537/p3a/p3/xv6-sp20/kernel/vectors.S:904
  106c10:	6a 00                	push   $0x0
/u/s/h/shirui/private/cs537/p3a/p3/xv6-sp20/kernel/vectors.S:905
  106c12:	68 b5 00 00 00       	push   $0xb5
/u/s/h/shirui/private/cs537/p3a/p3/xv6-sp20/kernel/vectors.S:906
  106c17:	e9 b5 f2 ff ff       	jmp    105ed1 <alltraps>

00106c1c <vector182>:
vector182():
/u/s/h/shirui/private/cs537/p3a/p3/xv6-sp20/kernel/vectors.S:909
  106c1c:	6a 00                	push   $0x0
/u/s/h/shirui/private/cs537/p3a/p3/xv6-sp20/kernel/vectors.S:910
  106c1e:	68 b6 00 00 00       	push   $0xb6
/u/s/h/shirui/private/cs537/p3a/p3/xv6-sp20/kernel/vectors.S:911
  106c23:	e9 a9 f2 ff ff       	jmp    105ed1 <alltraps>

00106c28 <vector183>:
vector183():
/u/s/h/shirui/private/cs537/p3a/p3/xv6-sp20/kernel/vectors.S:914
  106c28:	6a 00                	push   $0x0
/u/s/h/shirui/private/cs537/p3a/p3/xv6-sp20/kernel/vectors.S:915
  106c2a:	68 b7 00 00 00       	push   $0xb7
/u/s/h/shirui/private/cs537/p3a/p3/xv6-sp20/kernel/vectors.S:916
  106c2f:	e9 9d f2 ff ff       	jmp    105ed1 <alltraps>

00106c34 <vector184>:
vector184():
/u/s/h/shirui/private/cs537/p3a/p3/xv6-sp20/kernel/vectors.S:919
  106c34:	6a 00                	push   $0x0
/u/s/h/shirui/private/cs537/p3a/p3/xv6-sp20/kernel/vectors.S:920
  106c36:	68 b8 00 00 00       	push   $0xb8
/u/s/h/shirui/private/cs537/p3a/p3/xv6-sp20/kernel/vectors.S:921
  106c3b:	e9 91 f2 ff ff       	jmp    105ed1 <alltraps>

00106c40 <vector185>:
vector185():
/u/s/h/shirui/private/cs537/p3a/p3/xv6-sp20/kernel/vectors.S:924
  106c40:	6a 00                	push   $0x0
/u/s/h/shirui/private/cs537/p3a/p3/xv6-sp20/kernel/vectors.S:925
  106c42:	68 b9 00 00 00       	push   $0xb9
/u/s/h/shirui/private/cs537/p3a/p3/xv6-sp20/kernel/vectors.S:926
  106c47:	e9 85 f2 ff ff       	jmp    105ed1 <alltraps>

00106c4c <vector186>:
vector186():
/u/s/h/shirui/private/cs537/p3a/p3/xv6-sp20/kernel/vectors.S:929
  106c4c:	6a 00                	push   $0x0
/u/s/h/shirui/private/cs537/p3a/p3/xv6-sp20/kernel/vectors.S:930
  106c4e:	68 ba 00 00 00       	push   $0xba
/u/s/h/shirui/private/cs537/p3a/p3/xv6-sp20/kernel/vectors.S:931
  106c53:	e9 79 f2 ff ff       	jmp    105ed1 <alltraps>

00106c58 <vector187>:
vector187():
/u/s/h/shirui/private/cs537/p3a/p3/xv6-sp20/kernel/vectors.S:934
  106c58:	6a 00                	push   $0x0
/u/s/h/shirui/private/cs537/p3a/p3/xv6-sp20/kernel/vectors.S:935
  106c5a:	68 bb 00 00 00       	push   $0xbb
/u/s/h/shirui/private/cs537/p3a/p3/xv6-sp20/kernel/vectors.S:936
  106c5f:	e9 6d f2 ff ff       	jmp    105ed1 <alltraps>

00106c64 <vector188>:
vector188():
/u/s/h/shirui/private/cs537/p3a/p3/xv6-sp20/kernel/vectors.S:939
  106c64:	6a 00                	push   $0x0
/u/s/h/shirui/private/cs537/p3a/p3/xv6-sp20/kernel/vectors.S:940
  106c66:	68 bc 00 00 00       	push   $0xbc
/u/s/h/shirui/private/cs537/p3a/p3/xv6-sp20/kernel/vectors.S:941
  106c6b:	e9 61 f2 ff ff       	jmp    105ed1 <alltraps>

00106c70 <vector189>:
vector189():
/u/s/h/shirui/private/cs537/p3a/p3/xv6-sp20/kernel/vectors.S:944
  106c70:	6a 00                	push   $0x0
/u/s/h/shirui/private/cs537/p3a/p3/xv6-sp20/kernel/vectors.S:945
  106c72:	68 bd 00 00 00       	push   $0xbd
/u/s/h/shirui/private/cs537/p3a/p3/xv6-sp20/kernel/vectors.S:946
  106c77:	e9 55 f2 ff ff       	jmp    105ed1 <alltraps>

00106c7c <vector190>:
vector190():
/u/s/h/shirui/private/cs537/p3a/p3/xv6-sp20/kernel/vectors.S:949
  106c7c:	6a 00                	push   $0x0
/u/s/h/shirui/private/cs537/p3a/p3/xv6-sp20/kernel/vectors.S:950
  106c7e:	68 be 00 00 00       	push   $0xbe
/u/s/h/shirui/private/cs537/p3a/p3/xv6-sp20/kernel/vectors.S:951
  106c83:	e9 49 f2 ff ff       	jmp    105ed1 <alltraps>

00106c88 <vector191>:
vector191():
/u/s/h/shirui/private/cs537/p3a/p3/xv6-sp20/kernel/vectors.S:954
  106c88:	6a 00                	push   $0x0
/u/s/h/shirui/private/cs537/p3a/p3/xv6-sp20/kernel/vectors.S:955
  106c8a:	68 bf 00 00 00       	push   $0xbf
/u/s/h/shirui/private/cs537/p3a/p3/xv6-sp20/kernel/vectors.S:956
  106c8f:	e9 3d f2 ff ff       	jmp    105ed1 <alltraps>

00106c94 <vector192>:
vector192():
/u/s/h/shirui/private/cs537/p3a/p3/xv6-sp20/kernel/vectors.S:959
  106c94:	6a 00                	push   $0x0
/u/s/h/shirui/private/cs537/p3a/p3/xv6-sp20/kernel/vectors.S:960
  106c96:	68 c0 00 00 00       	push   $0xc0
/u/s/h/shirui/private/cs537/p3a/p3/xv6-sp20/kernel/vectors.S:961
  106c9b:	e9 31 f2 ff ff       	jmp    105ed1 <alltraps>

00106ca0 <vector193>:
vector193():
/u/s/h/shirui/private/cs537/p3a/p3/xv6-sp20/kernel/vectors.S:964
  106ca0:	6a 00                	push   $0x0
/u/s/h/shirui/private/cs537/p3a/p3/xv6-sp20/kernel/vectors.S:965
  106ca2:	68 c1 00 00 00       	push   $0xc1
/u/s/h/shirui/private/cs537/p3a/p3/xv6-sp20/kernel/vectors.S:966
  106ca7:	e9 25 f2 ff ff       	jmp    105ed1 <alltraps>

00106cac <vector194>:
vector194():
/u/s/h/shirui/private/cs537/p3a/p3/xv6-sp20/kernel/vectors.S:969
  106cac:	6a 00                	push   $0x0
/u/s/h/shirui/private/cs537/p3a/p3/xv6-sp20/kernel/vectors.S:970
  106cae:	68 c2 00 00 00       	push   $0xc2
/u/s/h/shirui/private/cs537/p3a/p3/xv6-sp20/kernel/vectors.S:971
  106cb3:	e9 19 f2 ff ff       	jmp    105ed1 <alltraps>

00106cb8 <vector195>:
vector195():
/u/s/h/shirui/private/cs537/p3a/p3/xv6-sp20/kernel/vectors.S:974
  106cb8:	6a 00                	push   $0x0
/u/s/h/shirui/private/cs537/p3a/p3/xv6-sp20/kernel/vectors.S:975
  106cba:	68 c3 00 00 00       	push   $0xc3
/u/s/h/shirui/private/cs537/p3a/p3/xv6-sp20/kernel/vectors.S:976
  106cbf:	e9 0d f2 ff ff       	jmp    105ed1 <alltraps>

00106cc4 <vector196>:
vector196():
/u/s/h/shirui/private/cs537/p3a/p3/xv6-sp20/kernel/vectors.S:979
  106cc4:	6a 00                	push   $0x0
/u/s/h/shirui/private/cs537/p3a/p3/xv6-sp20/kernel/vectors.S:980
  106cc6:	68 c4 00 00 00       	push   $0xc4
/u/s/h/shirui/private/cs537/p3a/p3/xv6-sp20/kernel/vectors.S:981
  106ccb:	e9 01 f2 ff ff       	jmp    105ed1 <alltraps>

00106cd0 <vector197>:
vector197():
/u/s/h/shirui/private/cs537/p3a/p3/xv6-sp20/kernel/vectors.S:984
  106cd0:	6a 00                	push   $0x0
/u/s/h/shirui/private/cs537/p3a/p3/xv6-sp20/kernel/vectors.S:985
  106cd2:	68 c5 00 00 00       	push   $0xc5
/u/s/h/shirui/private/cs537/p3a/p3/xv6-sp20/kernel/vectors.S:986
  106cd7:	e9 f5 f1 ff ff       	jmp    105ed1 <alltraps>

00106cdc <vector198>:
vector198():
/u/s/h/shirui/private/cs537/p3a/p3/xv6-sp20/kernel/vectors.S:989
  106cdc:	6a 00                	push   $0x0
/u/s/h/shirui/private/cs537/p3a/p3/xv6-sp20/kernel/vectors.S:990
  106cde:	68 c6 00 00 00       	push   $0xc6
/u/s/h/shirui/private/cs537/p3a/p3/xv6-sp20/kernel/vectors.S:991
  106ce3:	e9 e9 f1 ff ff       	jmp    105ed1 <alltraps>

00106ce8 <vector199>:
vector199():
/u/s/h/shirui/private/cs537/p3a/p3/xv6-sp20/kernel/vectors.S:994
  106ce8:	6a 00                	push   $0x0
/u/s/h/shirui/private/cs537/p3a/p3/xv6-sp20/kernel/vectors.S:995
  106cea:	68 c7 00 00 00       	push   $0xc7
/u/s/h/shirui/private/cs537/p3a/p3/xv6-sp20/kernel/vectors.S:996
  106cef:	e9 dd f1 ff ff       	jmp    105ed1 <alltraps>

00106cf4 <vector200>:
vector200():
/u/s/h/shirui/private/cs537/p3a/p3/xv6-sp20/kernel/vectors.S:999
  106cf4:	6a 00                	push   $0x0
/u/s/h/shirui/private/cs537/p3a/p3/xv6-sp20/kernel/vectors.S:1000
  106cf6:	68 c8 00 00 00       	push   $0xc8
/u/s/h/shirui/private/cs537/p3a/p3/xv6-sp20/kernel/vectors.S:1001
  106cfb:	e9 d1 f1 ff ff       	jmp    105ed1 <alltraps>

00106d00 <vector201>:
vector201():
/u/s/h/shirui/private/cs537/p3a/p3/xv6-sp20/kernel/vectors.S:1004
  106d00:	6a 00                	push   $0x0
/u/s/h/shirui/private/cs537/p3a/p3/xv6-sp20/kernel/vectors.S:1005
  106d02:	68 c9 00 00 00       	push   $0xc9
/u/s/h/shirui/private/cs537/p3a/p3/xv6-sp20/kernel/vectors.S:1006
  106d07:	e9 c5 f1 ff ff       	jmp    105ed1 <alltraps>

00106d0c <vector202>:
vector202():
/u/s/h/shirui/private/cs537/p3a/p3/xv6-sp20/kernel/vectors.S:1009
  106d0c:	6a 00                	push   $0x0
/u/s/h/shirui/private/cs537/p3a/p3/xv6-sp20/kernel/vectors.S:1010
  106d0e:	68 ca 00 00 00       	push   $0xca
/u/s/h/shirui/private/cs537/p3a/p3/xv6-sp20/kernel/vectors.S:1011
  106d13:	e9 b9 f1 ff ff       	jmp    105ed1 <alltraps>

00106d18 <vector203>:
vector203():
/u/s/h/shirui/private/cs537/p3a/p3/xv6-sp20/kernel/vectors.S:1014
  106d18:	6a 00                	push   $0x0
/u/s/h/shirui/private/cs537/p3a/p3/xv6-sp20/kernel/vectors.S:1015
  106d1a:	68 cb 00 00 00       	push   $0xcb
/u/s/h/shirui/private/cs537/p3a/p3/xv6-sp20/kernel/vectors.S:1016
  106d1f:	e9 ad f1 ff ff       	jmp    105ed1 <alltraps>

00106d24 <vector204>:
vector204():
/u/s/h/shirui/private/cs537/p3a/p3/xv6-sp20/kernel/vectors.S:1019
  106d24:	6a 00                	push   $0x0
/u/s/h/shirui/private/cs537/p3a/p3/xv6-sp20/kernel/vectors.S:1020
  106d26:	68 cc 00 00 00       	push   $0xcc
/u/s/h/shirui/private/cs537/p3a/p3/xv6-sp20/kernel/vectors.S:1021
  106d2b:	e9 a1 f1 ff ff       	jmp    105ed1 <alltraps>

00106d30 <vector205>:
vector205():
/u/s/h/shirui/private/cs537/p3a/p3/xv6-sp20/kernel/vectors.S:1024
  106d30:	6a 00                	push   $0x0
/u/s/h/shirui/private/cs537/p3a/p3/xv6-sp20/kernel/vectors.S:1025
  106d32:	68 cd 00 00 00       	push   $0xcd
/u/s/h/shirui/private/cs537/p3a/p3/xv6-sp20/kernel/vectors.S:1026
  106d37:	e9 95 f1 ff ff       	jmp    105ed1 <alltraps>

00106d3c <vector206>:
vector206():
/u/s/h/shirui/private/cs537/p3a/p3/xv6-sp20/kernel/vectors.S:1029
  106d3c:	6a 00                	push   $0x0
/u/s/h/shirui/private/cs537/p3a/p3/xv6-sp20/kernel/vectors.S:1030
  106d3e:	68 ce 00 00 00       	push   $0xce
/u/s/h/shirui/private/cs537/p3a/p3/xv6-sp20/kernel/vectors.S:1031
  106d43:	e9 89 f1 ff ff       	jmp    105ed1 <alltraps>

00106d48 <vector207>:
vector207():
/u/s/h/shirui/private/cs537/p3a/p3/xv6-sp20/kernel/vectors.S:1034
  106d48:	6a 00                	push   $0x0
/u/s/h/shirui/private/cs537/p3a/p3/xv6-sp20/kernel/vectors.S:1035
  106d4a:	68 cf 00 00 00       	push   $0xcf
/u/s/h/shirui/private/cs537/p3a/p3/xv6-sp20/kernel/vectors.S:1036
  106d4f:	e9 7d f1 ff ff       	jmp    105ed1 <alltraps>

00106d54 <vector208>:
vector208():
/u/s/h/shirui/private/cs537/p3a/p3/xv6-sp20/kernel/vectors.S:1039
  106d54:	6a 00                	push   $0x0
/u/s/h/shirui/private/cs537/p3a/p3/xv6-sp20/kernel/vectors.S:1040
  106d56:	68 d0 00 00 00       	push   $0xd0
/u/s/h/shirui/private/cs537/p3a/p3/xv6-sp20/kernel/vectors.S:1041
  106d5b:	e9 71 f1 ff ff       	jmp    105ed1 <alltraps>

00106d60 <vector209>:
vector209():
/u/s/h/shirui/private/cs537/p3a/p3/xv6-sp20/kernel/vectors.S:1044
  106d60:	6a 00                	push   $0x0
/u/s/h/shirui/private/cs537/p3a/p3/xv6-sp20/kernel/vectors.S:1045
  106d62:	68 d1 00 00 00       	push   $0xd1
/u/s/h/shirui/private/cs537/p3a/p3/xv6-sp20/kernel/vectors.S:1046
  106d67:	e9 65 f1 ff ff       	jmp    105ed1 <alltraps>

00106d6c <vector210>:
vector210():
/u/s/h/shirui/private/cs537/p3a/p3/xv6-sp20/kernel/vectors.S:1049
  106d6c:	6a 00                	push   $0x0
/u/s/h/shirui/private/cs537/p3a/p3/xv6-sp20/kernel/vectors.S:1050
  106d6e:	68 d2 00 00 00       	push   $0xd2
/u/s/h/shirui/private/cs537/p3a/p3/xv6-sp20/kernel/vectors.S:1051
  106d73:	e9 59 f1 ff ff       	jmp    105ed1 <alltraps>

00106d78 <vector211>:
vector211():
/u/s/h/shirui/private/cs537/p3a/p3/xv6-sp20/kernel/vectors.S:1054
  106d78:	6a 00                	push   $0x0
/u/s/h/shirui/private/cs537/p3a/p3/xv6-sp20/kernel/vectors.S:1055
  106d7a:	68 d3 00 00 00       	push   $0xd3
/u/s/h/shirui/private/cs537/p3a/p3/xv6-sp20/kernel/vectors.S:1056
  106d7f:	e9 4d f1 ff ff       	jmp    105ed1 <alltraps>

00106d84 <vector212>:
vector212():
/u/s/h/shirui/private/cs537/p3a/p3/xv6-sp20/kernel/vectors.S:1059
  106d84:	6a 00                	push   $0x0
/u/s/h/shirui/private/cs537/p3a/p3/xv6-sp20/kernel/vectors.S:1060
  106d86:	68 d4 00 00 00       	push   $0xd4
/u/s/h/shirui/private/cs537/p3a/p3/xv6-sp20/kernel/vectors.S:1061
  106d8b:	e9 41 f1 ff ff       	jmp    105ed1 <alltraps>

00106d90 <vector213>:
vector213():
/u/s/h/shirui/private/cs537/p3a/p3/xv6-sp20/kernel/vectors.S:1064
  106d90:	6a 00                	push   $0x0
/u/s/h/shirui/private/cs537/p3a/p3/xv6-sp20/kernel/vectors.S:1065
  106d92:	68 d5 00 00 00       	push   $0xd5
/u/s/h/shirui/private/cs537/p3a/p3/xv6-sp20/kernel/vectors.S:1066
  106d97:	e9 35 f1 ff ff       	jmp    105ed1 <alltraps>

00106d9c <vector214>:
vector214():
/u/s/h/shirui/private/cs537/p3a/p3/xv6-sp20/kernel/vectors.S:1069
  106d9c:	6a 00                	push   $0x0
/u/s/h/shirui/private/cs537/p3a/p3/xv6-sp20/kernel/vectors.S:1070
  106d9e:	68 d6 00 00 00       	push   $0xd6
/u/s/h/shirui/private/cs537/p3a/p3/xv6-sp20/kernel/vectors.S:1071
  106da3:	e9 29 f1 ff ff       	jmp    105ed1 <alltraps>

00106da8 <vector215>:
vector215():
/u/s/h/shirui/private/cs537/p3a/p3/xv6-sp20/kernel/vectors.S:1074
  106da8:	6a 00                	push   $0x0
/u/s/h/shirui/private/cs537/p3a/p3/xv6-sp20/kernel/vectors.S:1075
  106daa:	68 d7 00 00 00       	push   $0xd7
/u/s/h/shirui/private/cs537/p3a/p3/xv6-sp20/kernel/vectors.S:1076
  106daf:	e9 1d f1 ff ff       	jmp    105ed1 <alltraps>

00106db4 <vector216>:
vector216():
/u/s/h/shirui/private/cs537/p3a/p3/xv6-sp20/kernel/vectors.S:1079
  106db4:	6a 00                	push   $0x0
/u/s/h/shirui/private/cs537/p3a/p3/xv6-sp20/kernel/vectors.S:1080
  106db6:	68 d8 00 00 00       	push   $0xd8
/u/s/h/shirui/private/cs537/p3a/p3/xv6-sp20/kernel/vectors.S:1081
  106dbb:	e9 11 f1 ff ff       	jmp    105ed1 <alltraps>

00106dc0 <vector217>:
vector217():
/u/s/h/shirui/private/cs537/p3a/p3/xv6-sp20/kernel/vectors.S:1084
  106dc0:	6a 00                	push   $0x0
/u/s/h/shirui/private/cs537/p3a/p3/xv6-sp20/kernel/vectors.S:1085
  106dc2:	68 d9 00 00 00       	push   $0xd9
/u/s/h/shirui/private/cs537/p3a/p3/xv6-sp20/kernel/vectors.S:1086
  106dc7:	e9 05 f1 ff ff       	jmp    105ed1 <alltraps>

00106dcc <vector218>:
vector218():
/u/s/h/shirui/private/cs537/p3a/p3/xv6-sp20/kernel/vectors.S:1089
  106dcc:	6a 00                	push   $0x0
/u/s/h/shirui/private/cs537/p3a/p3/xv6-sp20/kernel/vectors.S:1090
  106dce:	68 da 00 00 00       	push   $0xda
/u/s/h/shirui/private/cs537/p3a/p3/xv6-sp20/kernel/vectors.S:1091
  106dd3:	e9 f9 f0 ff ff       	jmp    105ed1 <alltraps>

00106dd8 <vector219>:
vector219():
/u/s/h/shirui/private/cs537/p3a/p3/xv6-sp20/kernel/vectors.S:1094
  106dd8:	6a 00                	push   $0x0
/u/s/h/shirui/private/cs537/p3a/p3/xv6-sp20/kernel/vectors.S:1095
  106dda:	68 db 00 00 00       	push   $0xdb
/u/s/h/shirui/private/cs537/p3a/p3/xv6-sp20/kernel/vectors.S:1096
  106ddf:	e9 ed f0 ff ff       	jmp    105ed1 <alltraps>

00106de4 <vector220>:
vector220():
/u/s/h/shirui/private/cs537/p3a/p3/xv6-sp20/kernel/vectors.S:1099
  106de4:	6a 00                	push   $0x0
/u/s/h/shirui/private/cs537/p3a/p3/xv6-sp20/kernel/vectors.S:1100
  106de6:	68 dc 00 00 00       	push   $0xdc
/u/s/h/shirui/private/cs537/p3a/p3/xv6-sp20/kernel/vectors.S:1101
  106deb:	e9 e1 f0 ff ff       	jmp    105ed1 <alltraps>

00106df0 <vector221>:
vector221():
/u/s/h/shirui/private/cs537/p3a/p3/xv6-sp20/kernel/vectors.S:1104
  106df0:	6a 00                	push   $0x0
/u/s/h/shirui/private/cs537/p3a/p3/xv6-sp20/kernel/vectors.S:1105
  106df2:	68 dd 00 00 00       	push   $0xdd
/u/s/h/shirui/private/cs537/p3a/p3/xv6-sp20/kernel/vectors.S:1106
  106df7:	e9 d5 f0 ff ff       	jmp    105ed1 <alltraps>

00106dfc <vector222>:
vector222():
/u/s/h/shirui/private/cs537/p3a/p3/xv6-sp20/kernel/vectors.S:1109
  106dfc:	6a 00                	push   $0x0
/u/s/h/shirui/private/cs537/p3a/p3/xv6-sp20/kernel/vectors.S:1110
  106dfe:	68 de 00 00 00       	push   $0xde
/u/s/h/shirui/private/cs537/p3a/p3/xv6-sp20/kernel/vectors.S:1111
  106e03:	e9 c9 f0 ff ff       	jmp    105ed1 <alltraps>

00106e08 <vector223>:
vector223():
/u/s/h/shirui/private/cs537/p3a/p3/xv6-sp20/kernel/vectors.S:1114
  106e08:	6a 00                	push   $0x0
/u/s/h/shirui/private/cs537/p3a/p3/xv6-sp20/kernel/vectors.S:1115
  106e0a:	68 df 00 00 00       	push   $0xdf
/u/s/h/shirui/private/cs537/p3a/p3/xv6-sp20/kernel/vectors.S:1116
  106e0f:	e9 bd f0 ff ff       	jmp    105ed1 <alltraps>

00106e14 <vector224>:
vector224():
/u/s/h/shirui/private/cs537/p3a/p3/xv6-sp20/kernel/vectors.S:1119
  106e14:	6a 00                	push   $0x0
/u/s/h/shirui/private/cs537/p3a/p3/xv6-sp20/kernel/vectors.S:1120
  106e16:	68 e0 00 00 00       	push   $0xe0
/u/s/h/shirui/private/cs537/p3a/p3/xv6-sp20/kernel/vectors.S:1121
  106e1b:	e9 b1 f0 ff ff       	jmp    105ed1 <alltraps>

00106e20 <vector225>:
vector225():
/u/s/h/shirui/private/cs537/p3a/p3/xv6-sp20/kernel/vectors.S:1124
  106e20:	6a 00                	push   $0x0
/u/s/h/shirui/private/cs537/p3a/p3/xv6-sp20/kernel/vectors.S:1125
  106e22:	68 e1 00 00 00       	push   $0xe1
/u/s/h/shirui/private/cs537/p3a/p3/xv6-sp20/kernel/vectors.S:1126
  106e27:	e9 a5 f0 ff ff       	jmp    105ed1 <alltraps>

00106e2c <vector226>:
vector226():
/u/s/h/shirui/private/cs537/p3a/p3/xv6-sp20/kernel/vectors.S:1129
  106e2c:	6a 00                	push   $0x0
/u/s/h/shirui/private/cs537/p3a/p3/xv6-sp20/kernel/vectors.S:1130
  106e2e:	68 e2 00 00 00       	push   $0xe2
/u/s/h/shirui/private/cs537/p3a/p3/xv6-sp20/kernel/vectors.S:1131
  106e33:	e9 99 f0 ff ff       	jmp    105ed1 <alltraps>

00106e38 <vector227>:
vector227():
/u/s/h/shirui/private/cs537/p3a/p3/xv6-sp20/kernel/vectors.S:1134
  106e38:	6a 00                	push   $0x0
/u/s/h/shirui/private/cs537/p3a/p3/xv6-sp20/kernel/vectors.S:1135
  106e3a:	68 e3 00 00 00       	push   $0xe3
/u/s/h/shirui/private/cs537/p3a/p3/xv6-sp20/kernel/vectors.S:1136
  106e3f:	e9 8d f0 ff ff       	jmp    105ed1 <alltraps>

00106e44 <vector228>:
vector228():
/u/s/h/shirui/private/cs537/p3a/p3/xv6-sp20/kernel/vectors.S:1139
  106e44:	6a 00                	push   $0x0
/u/s/h/shirui/private/cs537/p3a/p3/xv6-sp20/kernel/vectors.S:1140
  106e46:	68 e4 00 00 00       	push   $0xe4
/u/s/h/shirui/private/cs537/p3a/p3/xv6-sp20/kernel/vectors.S:1141
  106e4b:	e9 81 f0 ff ff       	jmp    105ed1 <alltraps>

00106e50 <vector229>:
vector229():
/u/s/h/shirui/private/cs537/p3a/p3/xv6-sp20/kernel/vectors.S:1144
  106e50:	6a 00                	push   $0x0
/u/s/h/shirui/private/cs537/p3a/p3/xv6-sp20/kernel/vectors.S:1145
  106e52:	68 e5 00 00 00       	push   $0xe5
/u/s/h/shirui/private/cs537/p3a/p3/xv6-sp20/kernel/vectors.S:1146
  106e57:	e9 75 f0 ff ff       	jmp    105ed1 <alltraps>

00106e5c <vector230>:
vector230():
/u/s/h/shirui/private/cs537/p3a/p3/xv6-sp20/kernel/vectors.S:1149
  106e5c:	6a 00                	push   $0x0
/u/s/h/shirui/private/cs537/p3a/p3/xv6-sp20/kernel/vectors.S:1150
  106e5e:	68 e6 00 00 00       	push   $0xe6
/u/s/h/shirui/private/cs537/p3a/p3/xv6-sp20/kernel/vectors.S:1151
  106e63:	e9 69 f0 ff ff       	jmp    105ed1 <alltraps>

00106e68 <vector231>:
vector231():
/u/s/h/shirui/private/cs537/p3a/p3/xv6-sp20/kernel/vectors.S:1154
  106e68:	6a 00                	push   $0x0
/u/s/h/shirui/private/cs537/p3a/p3/xv6-sp20/kernel/vectors.S:1155
  106e6a:	68 e7 00 00 00       	push   $0xe7
/u/s/h/shirui/private/cs537/p3a/p3/xv6-sp20/kernel/vectors.S:1156
  106e6f:	e9 5d f0 ff ff       	jmp    105ed1 <alltraps>

00106e74 <vector232>:
vector232():
/u/s/h/shirui/private/cs537/p3a/p3/xv6-sp20/kernel/vectors.S:1159
  106e74:	6a 00                	push   $0x0
/u/s/h/shirui/private/cs537/p3a/p3/xv6-sp20/kernel/vectors.S:1160
  106e76:	68 e8 00 00 00       	push   $0xe8
/u/s/h/shirui/private/cs537/p3a/p3/xv6-sp20/kernel/vectors.S:1161
  106e7b:	e9 51 f0 ff ff       	jmp    105ed1 <alltraps>

00106e80 <vector233>:
vector233():
/u/s/h/shirui/private/cs537/p3a/p3/xv6-sp20/kernel/vectors.S:1164
  106e80:	6a 00                	push   $0x0
/u/s/h/shirui/private/cs537/p3a/p3/xv6-sp20/kernel/vectors.S:1165
  106e82:	68 e9 00 00 00       	push   $0xe9
/u/s/h/shirui/private/cs537/p3a/p3/xv6-sp20/kernel/vectors.S:1166
  106e87:	e9 45 f0 ff ff       	jmp    105ed1 <alltraps>

00106e8c <vector234>:
vector234():
/u/s/h/shirui/private/cs537/p3a/p3/xv6-sp20/kernel/vectors.S:1169
  106e8c:	6a 00                	push   $0x0
/u/s/h/shirui/private/cs537/p3a/p3/xv6-sp20/kernel/vectors.S:1170
  106e8e:	68 ea 00 00 00       	push   $0xea
/u/s/h/shirui/private/cs537/p3a/p3/xv6-sp20/kernel/vectors.S:1171
  106e93:	e9 39 f0 ff ff       	jmp    105ed1 <alltraps>

00106e98 <vector235>:
vector235():
/u/s/h/shirui/private/cs537/p3a/p3/xv6-sp20/kernel/vectors.S:1174
  106e98:	6a 00                	push   $0x0
/u/s/h/shirui/private/cs537/p3a/p3/xv6-sp20/kernel/vectors.S:1175
  106e9a:	68 eb 00 00 00       	push   $0xeb
/u/s/h/shirui/private/cs537/p3a/p3/xv6-sp20/kernel/vectors.S:1176
  106e9f:	e9 2d f0 ff ff       	jmp    105ed1 <alltraps>

00106ea4 <vector236>:
vector236():
/u/s/h/shirui/private/cs537/p3a/p3/xv6-sp20/kernel/vectors.S:1179
  106ea4:	6a 00                	push   $0x0
/u/s/h/shirui/private/cs537/p3a/p3/xv6-sp20/kernel/vectors.S:1180
  106ea6:	68 ec 00 00 00       	push   $0xec
/u/s/h/shirui/private/cs537/p3a/p3/xv6-sp20/kernel/vectors.S:1181
  106eab:	e9 21 f0 ff ff       	jmp    105ed1 <alltraps>

00106eb0 <vector237>:
vector237():
/u/s/h/shirui/private/cs537/p3a/p3/xv6-sp20/kernel/vectors.S:1184
  106eb0:	6a 00                	push   $0x0
/u/s/h/shirui/private/cs537/p3a/p3/xv6-sp20/kernel/vectors.S:1185
  106eb2:	68 ed 00 00 00       	push   $0xed
/u/s/h/shirui/private/cs537/p3a/p3/xv6-sp20/kernel/vectors.S:1186
  106eb7:	e9 15 f0 ff ff       	jmp    105ed1 <alltraps>

00106ebc <vector238>:
vector238():
/u/s/h/shirui/private/cs537/p3a/p3/xv6-sp20/kernel/vectors.S:1189
  106ebc:	6a 00                	push   $0x0
/u/s/h/shirui/private/cs537/p3a/p3/xv6-sp20/kernel/vectors.S:1190
  106ebe:	68 ee 00 00 00       	push   $0xee
/u/s/h/shirui/private/cs537/p3a/p3/xv6-sp20/kernel/vectors.S:1191
  106ec3:	e9 09 f0 ff ff       	jmp    105ed1 <alltraps>

00106ec8 <vector239>:
vector239():
/u/s/h/shirui/private/cs537/p3a/p3/xv6-sp20/kernel/vectors.S:1194
  106ec8:	6a 00                	push   $0x0
/u/s/h/shirui/private/cs537/p3a/p3/xv6-sp20/kernel/vectors.S:1195
  106eca:	68 ef 00 00 00       	push   $0xef
/u/s/h/shirui/private/cs537/p3a/p3/xv6-sp20/kernel/vectors.S:1196
  106ecf:	e9 fd ef ff ff       	jmp    105ed1 <alltraps>

00106ed4 <vector240>:
vector240():
/u/s/h/shirui/private/cs537/p3a/p3/xv6-sp20/kernel/vectors.S:1199
  106ed4:	6a 00                	push   $0x0
/u/s/h/shirui/private/cs537/p3a/p3/xv6-sp20/kernel/vectors.S:1200
  106ed6:	68 f0 00 00 00       	push   $0xf0
/u/s/h/shirui/private/cs537/p3a/p3/xv6-sp20/kernel/vectors.S:1201
  106edb:	e9 f1 ef ff ff       	jmp    105ed1 <alltraps>

00106ee0 <vector241>:
vector241():
/u/s/h/shirui/private/cs537/p3a/p3/xv6-sp20/kernel/vectors.S:1204
  106ee0:	6a 00                	push   $0x0
/u/s/h/shirui/private/cs537/p3a/p3/xv6-sp20/kernel/vectors.S:1205
  106ee2:	68 f1 00 00 00       	push   $0xf1
/u/s/h/shirui/private/cs537/p3a/p3/xv6-sp20/kernel/vectors.S:1206
  106ee7:	e9 e5 ef ff ff       	jmp    105ed1 <alltraps>

00106eec <vector242>:
vector242():
/u/s/h/shirui/private/cs537/p3a/p3/xv6-sp20/kernel/vectors.S:1209
  106eec:	6a 00                	push   $0x0
/u/s/h/shirui/private/cs537/p3a/p3/xv6-sp20/kernel/vectors.S:1210
  106eee:	68 f2 00 00 00       	push   $0xf2
/u/s/h/shirui/private/cs537/p3a/p3/xv6-sp20/kernel/vectors.S:1211
  106ef3:	e9 d9 ef ff ff       	jmp    105ed1 <alltraps>

00106ef8 <vector243>:
vector243():
/u/s/h/shirui/private/cs537/p3a/p3/xv6-sp20/kernel/vectors.S:1214
  106ef8:	6a 00                	push   $0x0
/u/s/h/shirui/private/cs537/p3a/p3/xv6-sp20/kernel/vectors.S:1215
  106efa:	68 f3 00 00 00       	push   $0xf3
/u/s/h/shirui/private/cs537/p3a/p3/xv6-sp20/kernel/vectors.S:1216
  106eff:	e9 cd ef ff ff       	jmp    105ed1 <alltraps>

00106f04 <vector244>:
vector244():
/u/s/h/shirui/private/cs537/p3a/p3/xv6-sp20/kernel/vectors.S:1219
  106f04:	6a 00                	push   $0x0
/u/s/h/shirui/private/cs537/p3a/p3/xv6-sp20/kernel/vectors.S:1220
  106f06:	68 f4 00 00 00       	push   $0xf4
/u/s/h/shirui/private/cs537/p3a/p3/xv6-sp20/kernel/vectors.S:1221
  106f0b:	e9 c1 ef ff ff       	jmp    105ed1 <alltraps>

00106f10 <vector245>:
vector245():
/u/s/h/shirui/private/cs537/p3a/p3/xv6-sp20/kernel/vectors.S:1224
  106f10:	6a 00                	push   $0x0
/u/s/h/shirui/private/cs537/p3a/p3/xv6-sp20/kernel/vectors.S:1225
  106f12:	68 f5 00 00 00       	push   $0xf5
/u/s/h/shirui/private/cs537/p3a/p3/xv6-sp20/kernel/vectors.S:1226
  106f17:	e9 b5 ef ff ff       	jmp    105ed1 <alltraps>

00106f1c <vector246>:
vector246():
/u/s/h/shirui/private/cs537/p3a/p3/xv6-sp20/kernel/vectors.S:1229
  106f1c:	6a 00                	push   $0x0
/u/s/h/shirui/private/cs537/p3a/p3/xv6-sp20/kernel/vectors.S:1230
  106f1e:	68 f6 00 00 00       	push   $0xf6
/u/s/h/shirui/private/cs537/p3a/p3/xv6-sp20/kernel/vectors.S:1231
  106f23:	e9 a9 ef ff ff       	jmp    105ed1 <alltraps>

00106f28 <vector247>:
vector247():
/u/s/h/shirui/private/cs537/p3a/p3/xv6-sp20/kernel/vectors.S:1234
  106f28:	6a 00                	push   $0x0
/u/s/h/shirui/private/cs537/p3a/p3/xv6-sp20/kernel/vectors.S:1235
  106f2a:	68 f7 00 00 00       	push   $0xf7
/u/s/h/shirui/private/cs537/p3a/p3/xv6-sp20/kernel/vectors.S:1236
  106f2f:	e9 9d ef ff ff       	jmp    105ed1 <alltraps>

00106f34 <vector248>:
vector248():
/u/s/h/shirui/private/cs537/p3a/p3/xv6-sp20/kernel/vectors.S:1239
  106f34:	6a 00                	push   $0x0
/u/s/h/shirui/private/cs537/p3a/p3/xv6-sp20/kernel/vectors.S:1240
  106f36:	68 f8 00 00 00       	push   $0xf8
/u/s/h/shirui/private/cs537/p3a/p3/xv6-sp20/kernel/vectors.S:1241
  106f3b:	e9 91 ef ff ff       	jmp    105ed1 <alltraps>

00106f40 <vector249>:
vector249():
/u/s/h/shirui/private/cs537/p3a/p3/xv6-sp20/kernel/vectors.S:1244
  106f40:	6a 00                	push   $0x0
/u/s/h/shirui/private/cs537/p3a/p3/xv6-sp20/kernel/vectors.S:1245
  106f42:	68 f9 00 00 00       	push   $0xf9
/u/s/h/shirui/private/cs537/p3a/p3/xv6-sp20/kernel/vectors.S:1246
  106f47:	e9 85 ef ff ff       	jmp    105ed1 <alltraps>

00106f4c <vector250>:
vector250():
/u/s/h/shirui/private/cs537/p3a/p3/xv6-sp20/kernel/vectors.S:1249
  106f4c:	6a 00                	push   $0x0
/u/s/h/shirui/private/cs537/p3a/p3/xv6-sp20/kernel/vectors.S:1250
  106f4e:	68 fa 00 00 00       	push   $0xfa
/u/s/h/shirui/private/cs537/p3a/p3/xv6-sp20/kernel/vectors.S:1251
  106f53:	e9 79 ef ff ff       	jmp    105ed1 <alltraps>

00106f58 <vector251>:
vector251():
/u/s/h/shirui/private/cs537/p3a/p3/xv6-sp20/kernel/vectors.S:1254
  106f58:	6a 00                	push   $0x0
/u/s/h/shirui/private/cs537/p3a/p3/xv6-sp20/kernel/vectors.S:1255
  106f5a:	68 fb 00 00 00       	push   $0xfb
/u/s/h/shirui/private/cs537/p3a/p3/xv6-sp20/kernel/vectors.S:1256
  106f5f:	e9 6d ef ff ff       	jmp    105ed1 <alltraps>

00106f64 <vector252>:
vector252():
/u/s/h/shirui/private/cs537/p3a/p3/xv6-sp20/kernel/vectors.S:1259
  106f64:	6a 00                	push   $0x0
/u/s/h/shirui/private/cs537/p3a/p3/xv6-sp20/kernel/vectors.S:1260
  106f66:	68 fc 00 00 00       	push   $0xfc
/u/s/h/shirui/private/cs537/p3a/p3/xv6-sp20/kernel/vectors.S:1261
  106f6b:	e9 61 ef ff ff       	jmp    105ed1 <alltraps>

00106f70 <vector253>:
vector253():
/u/s/h/shirui/private/cs537/p3a/p3/xv6-sp20/kernel/vectors.S:1264
  106f70:	6a 00                	push   $0x0
/u/s/h/shirui/private/cs537/p3a/p3/xv6-sp20/kernel/vectors.S:1265
  106f72:	68 fd 00 00 00       	push   $0xfd
/u/s/h/shirui/private/cs537/p3a/p3/xv6-sp20/kernel/vectors.S:1266
  106f77:	e9 55 ef ff ff       	jmp    105ed1 <alltraps>

00106f7c <vector254>:
vector254():
/u/s/h/shirui/private/cs537/p3a/p3/xv6-sp20/kernel/vectors.S:1269
  106f7c:	6a 00                	push   $0x0
/u/s/h/shirui/private/cs537/p3a/p3/xv6-sp20/kernel/vectors.S:1270
  106f7e:	68 fe 00 00 00       	push   $0xfe
/u/s/h/shirui/private/cs537/p3a/p3/xv6-sp20/kernel/vectors.S:1271
  106f83:	e9 49 ef ff ff       	jmp    105ed1 <alltraps>

00106f88 <vector255>:
vector255():
/u/s/h/shirui/private/cs537/p3a/p3/xv6-sp20/kernel/vectors.S:1274
  106f88:	6a 00                	push   $0x0
/u/s/h/shirui/private/cs537/p3a/p3/xv6-sp20/kernel/vectors.S:1275
  106f8a:	68 ff 00 00 00       	push   $0xff
/u/s/h/shirui/private/cs537/p3a/p3/xv6-sp20/kernel/vectors.S:1276
  106f8f:	e9 3d ef ff ff       	jmp    105ed1 <alltraps>

00106f94 <lgdt>:
lgdt():
/u/s/h/shirui/private/cs537/p3a/p3/xv6-sp20/include/x86.h:57
  106f94:	55                   	push   %ebp
  106f95:	89 e5                	mov    %esp,%ebp
  106f97:	83 ec 10             	sub    $0x10,%esp
/u/s/h/shirui/private/cs537/p3a/p3/xv6-sp20/include/x86.h:60
  106f9a:	8b 45 0c             	mov    0xc(%ebp),%eax
  106f9d:	83 e8 01             	sub    $0x1,%eax
  106fa0:	66 89 45 fa          	mov    %ax,-0x6(%ebp)
/u/s/h/shirui/private/cs537/p3a/p3/xv6-sp20/include/x86.h:61
  106fa4:	8b 45 08             	mov    0x8(%ebp),%eax
  106fa7:	66 89 45 fc          	mov    %ax,-0x4(%ebp)
/u/s/h/shirui/private/cs537/p3a/p3/xv6-sp20/include/x86.h:62
  106fab:	8b 45 08             	mov    0x8(%ebp),%eax
  106fae:	c1 e8 10             	shr    $0x10,%eax
  106fb1:	66 89 45 fe          	mov    %ax,-0x2(%ebp)
/u/s/h/shirui/private/cs537/p3a/p3/xv6-sp20/include/x86.h:64
  106fb5:	8d 45 fa             	lea    -0x6(%ebp),%eax
  106fb8:	0f 01 10             	lgdtl  (%eax)
/u/s/h/shirui/private/cs537/p3a/p3/xv6-sp20/include/x86.h:65
  106fbb:	90                   	nop
  106fbc:	c9                   	leave  
  106fbd:	c3                   	ret    

00106fbe <ltr>:
ltr():
/u/s/h/shirui/private/cs537/p3a/p3/xv6-sp20/include/x86.h:83
  106fbe:	55                   	push   %ebp
  106fbf:	89 e5                	mov    %esp,%ebp
  106fc1:	83 ec 04             	sub    $0x4,%esp
  106fc4:	8b 45 08             	mov    0x8(%ebp),%eax
  106fc7:	66 89 45 fc          	mov    %ax,-0x4(%ebp)
/u/s/h/shirui/private/cs537/p3a/p3/xv6-sp20/include/x86.h:84
  106fcb:	0f b7 45 fc          	movzwl -0x4(%ebp),%eax
  106fcf:	0f 00 d8             	ltr    %ax
/u/s/h/shirui/private/cs537/p3a/p3/xv6-sp20/include/x86.h:85
  106fd2:	90                   	nop
  106fd3:	c9                   	leave  
  106fd4:	c3                   	ret    

00106fd5 <loadgs>:
loadgs():
/u/s/h/shirui/private/cs537/p3a/p3/xv6-sp20/include/x86.h:97
  106fd5:	55                   	push   %ebp
  106fd6:	89 e5                	mov    %esp,%ebp
  106fd8:	83 ec 04             	sub    $0x4,%esp
  106fdb:	8b 45 08             	mov    0x8(%ebp),%eax
  106fde:	66 89 45 fc          	mov    %ax,-0x4(%ebp)
/u/s/h/shirui/private/cs537/p3a/p3/xv6-sp20/include/x86.h:98
  106fe2:	0f b7 45 fc          	movzwl -0x4(%ebp),%eax
  106fe6:	8e e8                	mov    %eax,%gs
/u/s/h/shirui/private/cs537/p3a/p3/xv6-sp20/include/x86.h:99
  106fe8:	90                   	nop
  106fe9:	c9                   	leave  
  106fea:	c3                   	ret    

00106feb <lcr0>:
lcr0():
/u/s/h/shirui/private/cs537/p3a/p3/xv6-sp20/include/x86.h:144
  106feb:	55                   	push   %ebp
  106fec:	89 e5                	mov    %esp,%ebp
/u/s/h/shirui/private/cs537/p3a/p3/xv6-sp20/include/x86.h:145
  106fee:	8b 45 08             	mov    0x8(%ebp),%eax
  106ff1:	0f 22 c0             	mov    %eax,%cr0
/u/s/h/shirui/private/cs537/p3a/p3/xv6-sp20/include/x86.h:146
  106ff4:	90                   	nop
  106ff5:	5d                   	pop    %ebp
  106ff6:	c3                   	ret    

00106ff7 <rcr0>:
rcr0():
/u/s/h/shirui/private/cs537/p3a/p3/xv6-sp20/include/x86.h:150
  106ff7:	55                   	push   %ebp
  106ff8:	89 e5                	mov    %esp,%ebp
  106ffa:	83 ec 10             	sub    $0x10,%esp
/u/s/h/shirui/private/cs537/p3a/p3/xv6-sp20/include/x86.h:152
  106ffd:	0f 20 c0             	mov    %cr0,%eax
  107000:	89 45 fc             	mov    %eax,-0x4(%ebp)
/u/s/h/shirui/private/cs537/p3a/p3/xv6-sp20/include/x86.h:153
  107003:	8b 45 fc             	mov    -0x4(%ebp),%eax
/u/s/h/shirui/private/cs537/p3a/p3/xv6-sp20/include/x86.h:154
  107006:	c9                   	leave  
  107007:	c3                   	ret    

00107008 <lcr3>:
lcr3():
/u/s/h/shirui/private/cs537/p3a/p3/xv6-sp20/include/x86.h:166
  107008:	55                   	push   %ebp
  107009:	89 e5                	mov    %esp,%ebp
/u/s/h/shirui/private/cs537/p3a/p3/xv6-sp20/include/x86.h:167
  10700b:	8b 45 08             	mov    0x8(%ebp),%eax
  10700e:	0f 22 d8             	mov    %eax,%cr3
/u/s/h/shirui/private/cs537/p3a/p3/xv6-sp20/include/x86.h:168
  107011:	90                   	nop
  107012:	5d                   	pop    %ebp
  107013:	c3                   	ret    

00107014 <kvmalloc>:
kvmalloc():
/u/s/h/shirui/private/cs537/p3a/p3/xv6-sp20/kernel/vm.c:17
  107014:	55                   	push   %ebp
  107015:	89 e5                	mov    %esp,%ebp
  107017:	83 ec 08             	sub    $0x8,%esp
/u/s/h/shirui/private/cs537/p3a/p3/xv6-sp20/kernel/vm.c:18
  10701a:	e8 b9 07 00 00       	call   1077d8 <setupkvm>
  10701f:	a3 70 bb 10 00       	mov    %eax,0x10bb70
/u/s/h/shirui/private/cs537/p3a/p3/xv6-sp20/kernel/vm.c:19
  107024:	90                   	nop
  107025:	c9                   	leave  
  107026:	c3                   	ret    

00107027 <seginit>:
seginit():
/u/s/h/shirui/private/cs537/p3a/p3/xv6-sp20/kernel/vm.c:25
  107027:	55                   	push   %ebp
  107028:	89 e5                	mov    %esp,%ebp
  10702a:	53                   	push   %ebx
  10702b:	83 ec 14             	sub    $0x14,%esp
/u/s/h/shirui/private/cs537/p3a/p3/xv6-sp20/kernel/vm.c:32
  10702e:	e8 8c bf ff ff       	call   102fbf <cpunum>
  107033:	69 c0 bc 00 00 00    	imul   $0xbc,%eax,%eax
  107039:	05 e0 fd 10 00       	add    $0x10fde0,%eax
  10703e:	89 45 f4             	mov    %eax,-0xc(%ebp)
/u/s/h/shirui/private/cs537/p3a/p3/xv6-sp20/kernel/vm.c:33
  107041:	8b 45 f4             	mov    -0xc(%ebp),%eax
  107044:	66 c7 40 78 ff ff    	movw   $0xffff,0x78(%eax)
  10704a:	8b 45 f4             	mov    -0xc(%ebp),%eax
  10704d:	66 c7 40 7a 00 00    	movw   $0x0,0x7a(%eax)
  107053:	8b 45 f4             	mov    -0xc(%ebp),%eax
  107056:	c6 40 7c 00          	movb   $0x0,0x7c(%eax)
  10705a:	8b 45 f4             	mov    -0xc(%ebp),%eax
  10705d:	0f b6 50 7d          	movzbl 0x7d(%eax),%edx
  107061:	83 e2 f0             	and    $0xfffffff0,%edx
  107064:	83 ca 0a             	or     $0xa,%edx
  107067:	88 50 7d             	mov    %dl,0x7d(%eax)
  10706a:	8b 45 f4             	mov    -0xc(%ebp),%eax
  10706d:	0f b6 50 7d          	movzbl 0x7d(%eax),%edx
  107071:	83 ca 10             	or     $0x10,%edx
  107074:	88 50 7d             	mov    %dl,0x7d(%eax)
  107077:	8b 45 f4             	mov    -0xc(%ebp),%eax
  10707a:	0f b6 50 7d          	movzbl 0x7d(%eax),%edx
  10707e:	83 e2 9f             	and    $0xffffff9f,%edx
  107081:	88 50 7d             	mov    %dl,0x7d(%eax)
  107084:	8b 45 f4             	mov    -0xc(%ebp),%eax
  107087:	0f b6 50 7d          	movzbl 0x7d(%eax),%edx
  10708b:	83 ca 80             	or     $0xffffff80,%edx
  10708e:	88 50 7d             	mov    %dl,0x7d(%eax)
  107091:	8b 45 f4             	mov    -0xc(%ebp),%eax
  107094:	0f b6 50 7e          	movzbl 0x7e(%eax),%edx
  107098:	83 ca 0f             	or     $0xf,%edx
  10709b:	88 50 7e             	mov    %dl,0x7e(%eax)
  10709e:	8b 45 f4             	mov    -0xc(%ebp),%eax
  1070a1:	0f b6 50 7e          	movzbl 0x7e(%eax),%edx
  1070a5:	83 e2 ef             	and    $0xffffffef,%edx
  1070a8:	88 50 7e             	mov    %dl,0x7e(%eax)
  1070ab:	8b 45 f4             	mov    -0xc(%ebp),%eax
  1070ae:	0f b6 50 7e          	movzbl 0x7e(%eax),%edx
  1070b2:	83 e2 df             	and    $0xffffffdf,%edx
  1070b5:	88 50 7e             	mov    %dl,0x7e(%eax)
  1070b8:	8b 45 f4             	mov    -0xc(%ebp),%eax
  1070bb:	0f b6 50 7e          	movzbl 0x7e(%eax),%edx
  1070bf:	83 ca 40             	or     $0x40,%edx
  1070c2:	88 50 7e             	mov    %dl,0x7e(%eax)
  1070c5:	8b 45 f4             	mov    -0xc(%ebp),%eax
  1070c8:	0f b6 50 7e          	movzbl 0x7e(%eax),%edx
  1070cc:	83 ca 80             	or     $0xffffff80,%edx
  1070cf:	88 50 7e             	mov    %dl,0x7e(%eax)
  1070d2:	8b 45 f4             	mov    -0xc(%ebp),%eax
  1070d5:	c6 40 7f 00          	movb   $0x0,0x7f(%eax)
/u/s/h/shirui/private/cs537/p3a/p3/xv6-sp20/kernel/vm.c:34
  1070d9:	8b 45 f4             	mov    -0xc(%ebp),%eax
  1070dc:	66 c7 80 80 00 00 00 	movw   $0xffff,0x80(%eax)
  1070e3:	ff ff 
  1070e5:	8b 45 f4             	mov    -0xc(%ebp),%eax
  1070e8:	66 c7 80 82 00 00 00 	movw   $0x0,0x82(%eax)
  1070ef:	00 00 
  1070f1:	8b 45 f4             	mov    -0xc(%ebp),%eax
  1070f4:	c6 80 84 00 00 00 00 	movb   $0x0,0x84(%eax)
  1070fb:	8b 45 f4             	mov    -0xc(%ebp),%eax
  1070fe:	0f b6 90 85 00 00 00 	movzbl 0x85(%eax),%edx
  107105:	83 e2 f0             	and    $0xfffffff0,%edx
  107108:	83 ca 02             	or     $0x2,%edx
  10710b:	88 90 85 00 00 00    	mov    %dl,0x85(%eax)
  107111:	8b 45 f4             	mov    -0xc(%ebp),%eax
  107114:	0f b6 90 85 00 00 00 	movzbl 0x85(%eax),%edx
  10711b:	83 ca 10             	or     $0x10,%edx
  10711e:	88 90 85 00 00 00    	mov    %dl,0x85(%eax)
  107124:	8b 45 f4             	mov    -0xc(%ebp),%eax
  107127:	0f b6 90 85 00 00 00 	movzbl 0x85(%eax),%edx
  10712e:	83 e2 9f             	and    $0xffffff9f,%edx
  107131:	88 90 85 00 00 00    	mov    %dl,0x85(%eax)
  107137:	8b 45 f4             	mov    -0xc(%ebp),%eax
  10713a:	0f b6 90 85 00 00 00 	movzbl 0x85(%eax),%edx
  107141:	83 ca 80             	or     $0xffffff80,%edx
  107144:	88 90 85 00 00 00    	mov    %dl,0x85(%eax)
  10714a:	8b 45 f4             	mov    -0xc(%ebp),%eax
  10714d:	0f b6 90 86 00 00 00 	movzbl 0x86(%eax),%edx
  107154:	83 ca 0f             	or     $0xf,%edx
  107157:	88 90 86 00 00 00    	mov    %dl,0x86(%eax)
  10715d:	8b 45 f4             	mov    -0xc(%ebp),%eax
  107160:	0f b6 90 86 00 00 00 	movzbl 0x86(%eax),%edx
  107167:	83 e2 ef             	and    $0xffffffef,%edx
  10716a:	88 90 86 00 00 00    	mov    %dl,0x86(%eax)
  107170:	8b 45 f4             	mov    -0xc(%ebp),%eax
  107173:	0f b6 90 86 00 00 00 	movzbl 0x86(%eax),%edx
  10717a:	83 e2 df             	and    $0xffffffdf,%edx
  10717d:	88 90 86 00 00 00    	mov    %dl,0x86(%eax)
  107183:	8b 45 f4             	mov    -0xc(%ebp),%eax
  107186:	0f b6 90 86 00 00 00 	movzbl 0x86(%eax),%edx
  10718d:	83 ca 40             	or     $0x40,%edx
  107190:	88 90 86 00 00 00    	mov    %dl,0x86(%eax)
  107196:	8b 45 f4             	mov    -0xc(%ebp),%eax
  107199:	0f b6 90 86 00 00 00 	movzbl 0x86(%eax),%edx
  1071a0:	83 ca 80             	or     $0xffffff80,%edx
  1071a3:	88 90 86 00 00 00    	mov    %dl,0x86(%eax)
  1071a9:	8b 45 f4             	mov    -0xc(%ebp),%eax
  1071ac:	c6 80 87 00 00 00 00 	movb   $0x0,0x87(%eax)
/u/s/h/shirui/private/cs537/p3a/p3/xv6-sp20/kernel/vm.c:35
  1071b3:	8b 45 f4             	mov    -0xc(%ebp),%eax
  1071b6:	66 c7 80 90 00 00 00 	movw   $0xffff,0x90(%eax)
  1071bd:	ff ff 
  1071bf:	8b 45 f4             	mov    -0xc(%ebp),%eax
  1071c2:	66 c7 80 92 00 00 00 	movw   $0x0,0x92(%eax)
  1071c9:	00 00 
  1071cb:	8b 45 f4             	mov    -0xc(%ebp),%eax
  1071ce:	c6 80 94 00 00 00 00 	movb   $0x0,0x94(%eax)
  1071d5:	8b 45 f4             	mov    -0xc(%ebp),%eax
  1071d8:	0f b6 90 95 00 00 00 	movzbl 0x95(%eax),%edx
  1071df:	83 e2 f0             	and    $0xfffffff0,%edx
  1071e2:	83 ca 0a             	or     $0xa,%edx
  1071e5:	88 90 95 00 00 00    	mov    %dl,0x95(%eax)
  1071eb:	8b 45 f4             	mov    -0xc(%ebp),%eax
  1071ee:	0f b6 90 95 00 00 00 	movzbl 0x95(%eax),%edx
  1071f5:	83 ca 10             	or     $0x10,%edx
  1071f8:	88 90 95 00 00 00    	mov    %dl,0x95(%eax)
  1071fe:	8b 45 f4             	mov    -0xc(%ebp),%eax
  107201:	0f b6 90 95 00 00 00 	movzbl 0x95(%eax),%edx
  107208:	83 ca 60             	or     $0x60,%edx
  10720b:	88 90 95 00 00 00    	mov    %dl,0x95(%eax)
  107211:	8b 45 f4             	mov    -0xc(%ebp),%eax
  107214:	0f b6 90 95 00 00 00 	movzbl 0x95(%eax),%edx
  10721b:	83 ca 80             	or     $0xffffff80,%edx
  10721e:	88 90 95 00 00 00    	mov    %dl,0x95(%eax)
  107224:	8b 45 f4             	mov    -0xc(%ebp),%eax
  107227:	0f b6 90 96 00 00 00 	movzbl 0x96(%eax),%edx
  10722e:	83 ca 0f             	or     $0xf,%edx
  107231:	88 90 96 00 00 00    	mov    %dl,0x96(%eax)
  107237:	8b 45 f4             	mov    -0xc(%ebp),%eax
  10723a:	0f b6 90 96 00 00 00 	movzbl 0x96(%eax),%edx
  107241:	83 e2 ef             	and    $0xffffffef,%edx
  107244:	88 90 96 00 00 00    	mov    %dl,0x96(%eax)
  10724a:	8b 45 f4             	mov    -0xc(%ebp),%eax
  10724d:	0f b6 90 96 00 00 00 	movzbl 0x96(%eax),%edx
  107254:	83 e2 df             	and    $0xffffffdf,%edx
  107257:	88 90 96 00 00 00    	mov    %dl,0x96(%eax)
  10725d:	8b 45 f4             	mov    -0xc(%ebp),%eax
  107260:	0f b6 90 96 00 00 00 	movzbl 0x96(%eax),%edx
  107267:	83 ca 40             	or     $0x40,%edx
  10726a:	88 90 96 00 00 00    	mov    %dl,0x96(%eax)
  107270:	8b 45 f4             	mov    -0xc(%ebp),%eax
  107273:	0f b6 90 96 00 00 00 	movzbl 0x96(%eax),%edx
  10727a:	83 ca 80             	or     $0xffffff80,%edx
  10727d:	88 90 96 00 00 00    	mov    %dl,0x96(%eax)
  107283:	8b 45 f4             	mov    -0xc(%ebp),%eax
  107286:	c6 80 97 00 00 00 00 	movb   $0x0,0x97(%eax)
/u/s/h/shirui/private/cs537/p3a/p3/xv6-sp20/kernel/vm.c:36
  10728d:	8b 45 f4             	mov    -0xc(%ebp),%eax
  107290:	66 c7 80 98 00 00 00 	movw   $0xffff,0x98(%eax)
  107297:	ff ff 
  107299:	8b 45 f4             	mov    -0xc(%ebp),%eax
  10729c:	66 c7 80 9a 00 00 00 	movw   $0x0,0x9a(%eax)
  1072a3:	00 00 
  1072a5:	8b 45 f4             	mov    -0xc(%ebp),%eax
  1072a8:	c6 80 9c 00 00 00 00 	movb   $0x0,0x9c(%eax)
  1072af:	8b 45 f4             	mov    -0xc(%ebp),%eax
  1072b2:	0f b6 90 9d 00 00 00 	movzbl 0x9d(%eax),%edx
  1072b9:	83 e2 f0             	and    $0xfffffff0,%edx
  1072bc:	83 ca 02             	or     $0x2,%edx
  1072bf:	88 90 9d 00 00 00    	mov    %dl,0x9d(%eax)
  1072c5:	8b 45 f4             	mov    -0xc(%ebp),%eax
  1072c8:	0f b6 90 9d 00 00 00 	movzbl 0x9d(%eax),%edx
  1072cf:	83 ca 10             	or     $0x10,%edx
  1072d2:	88 90 9d 00 00 00    	mov    %dl,0x9d(%eax)
  1072d8:	8b 45 f4             	mov    -0xc(%ebp),%eax
  1072db:	0f b6 90 9d 00 00 00 	movzbl 0x9d(%eax),%edx
  1072e2:	83 ca 60             	or     $0x60,%edx
  1072e5:	88 90 9d 00 00 00    	mov    %dl,0x9d(%eax)
  1072eb:	8b 45 f4             	mov    -0xc(%ebp),%eax
  1072ee:	0f b6 90 9d 00 00 00 	movzbl 0x9d(%eax),%edx
  1072f5:	83 ca 80             	or     $0xffffff80,%edx
  1072f8:	88 90 9d 00 00 00    	mov    %dl,0x9d(%eax)
  1072fe:	8b 45 f4             	mov    -0xc(%ebp),%eax
  107301:	0f b6 90 9e 00 00 00 	movzbl 0x9e(%eax),%edx
  107308:	83 ca 0f             	or     $0xf,%edx
  10730b:	88 90 9e 00 00 00    	mov    %dl,0x9e(%eax)
  107311:	8b 45 f4             	mov    -0xc(%ebp),%eax
  107314:	0f b6 90 9e 00 00 00 	movzbl 0x9e(%eax),%edx
  10731b:	83 e2 ef             	and    $0xffffffef,%edx
  10731e:	88 90 9e 00 00 00    	mov    %dl,0x9e(%eax)
  107324:	8b 45 f4             	mov    -0xc(%ebp),%eax
  107327:	0f b6 90 9e 00 00 00 	movzbl 0x9e(%eax),%edx
  10732e:	83 e2 df             	and    $0xffffffdf,%edx
  107331:	88 90 9e 00 00 00    	mov    %dl,0x9e(%eax)
  107337:	8b 45 f4             	mov    -0xc(%ebp),%eax
  10733a:	0f b6 90 9e 00 00 00 	movzbl 0x9e(%eax),%edx
  107341:	83 ca 40             	or     $0x40,%edx
  107344:	88 90 9e 00 00 00    	mov    %dl,0x9e(%eax)
  10734a:	8b 45 f4             	mov    -0xc(%ebp),%eax
  10734d:	0f b6 90 9e 00 00 00 	movzbl 0x9e(%eax),%edx
  107354:	83 ca 80             	or     $0xffffff80,%edx
  107357:	88 90 9e 00 00 00    	mov    %dl,0x9e(%eax)
  10735d:	8b 45 f4             	mov    -0xc(%ebp),%eax
  107360:	c6 80 9f 00 00 00 00 	movb   $0x0,0x9f(%eax)
/u/s/h/shirui/private/cs537/p3a/p3/xv6-sp20/kernel/vm.c:39
  107367:	8b 45 f4             	mov    -0xc(%ebp),%eax
  10736a:	05 b4 00 00 00       	add    $0xb4,%eax
  10736f:	89 c3                	mov    %eax,%ebx
  107371:	8b 45 f4             	mov    -0xc(%ebp),%eax
  107374:	05 b4 00 00 00       	add    $0xb4,%eax
  107379:	c1 e8 10             	shr    $0x10,%eax
  10737c:	89 c2                	mov    %eax,%edx
  10737e:	8b 45 f4             	mov    -0xc(%ebp),%eax
  107381:	05 b4 00 00 00       	add    $0xb4,%eax
  107386:	c1 e8 18             	shr    $0x18,%eax
  107389:	89 c1                	mov    %eax,%ecx
  10738b:	8b 45 f4             	mov    -0xc(%ebp),%eax
  10738e:	66 c7 80 88 00 00 00 	movw   $0x0,0x88(%eax)
  107395:	00 00 
  107397:	8b 45 f4             	mov    -0xc(%ebp),%eax
  10739a:	66 89 98 8a 00 00 00 	mov    %bx,0x8a(%eax)
  1073a1:	8b 45 f4             	mov    -0xc(%ebp),%eax
  1073a4:	88 90 8c 00 00 00    	mov    %dl,0x8c(%eax)
  1073aa:	8b 45 f4             	mov    -0xc(%ebp),%eax
  1073ad:	0f b6 90 8d 00 00 00 	movzbl 0x8d(%eax),%edx
  1073b4:	83 e2 f0             	and    $0xfffffff0,%edx
  1073b7:	83 ca 02             	or     $0x2,%edx
  1073ba:	88 90 8d 00 00 00    	mov    %dl,0x8d(%eax)
  1073c0:	8b 45 f4             	mov    -0xc(%ebp),%eax
  1073c3:	0f b6 90 8d 00 00 00 	movzbl 0x8d(%eax),%edx
  1073ca:	83 ca 10             	or     $0x10,%edx
  1073cd:	88 90 8d 00 00 00    	mov    %dl,0x8d(%eax)
  1073d3:	8b 45 f4             	mov    -0xc(%ebp),%eax
  1073d6:	0f b6 90 8d 00 00 00 	movzbl 0x8d(%eax),%edx
  1073dd:	83 e2 9f             	and    $0xffffff9f,%edx
  1073e0:	88 90 8d 00 00 00    	mov    %dl,0x8d(%eax)
  1073e6:	8b 45 f4             	mov    -0xc(%ebp),%eax
  1073e9:	0f b6 90 8d 00 00 00 	movzbl 0x8d(%eax),%edx
  1073f0:	83 ca 80             	or     $0xffffff80,%edx
  1073f3:	88 90 8d 00 00 00    	mov    %dl,0x8d(%eax)
  1073f9:	8b 45 f4             	mov    -0xc(%ebp),%eax
  1073fc:	0f b6 90 8e 00 00 00 	movzbl 0x8e(%eax),%edx
  107403:	83 e2 f0             	and    $0xfffffff0,%edx
  107406:	88 90 8e 00 00 00    	mov    %dl,0x8e(%eax)
  10740c:	8b 45 f4             	mov    -0xc(%ebp),%eax
  10740f:	0f b6 90 8e 00 00 00 	movzbl 0x8e(%eax),%edx
  107416:	83 e2 ef             	and    $0xffffffef,%edx
  107419:	88 90 8e 00 00 00    	mov    %dl,0x8e(%eax)
  10741f:	8b 45 f4             	mov    -0xc(%ebp),%eax
  107422:	0f b6 90 8e 00 00 00 	movzbl 0x8e(%eax),%edx
  107429:	83 e2 df             	and    $0xffffffdf,%edx
  10742c:	88 90 8e 00 00 00    	mov    %dl,0x8e(%eax)
  107432:	8b 45 f4             	mov    -0xc(%ebp),%eax
  107435:	0f b6 90 8e 00 00 00 	movzbl 0x8e(%eax),%edx
  10743c:	83 ca 40             	or     $0x40,%edx
  10743f:	88 90 8e 00 00 00    	mov    %dl,0x8e(%eax)
  107445:	8b 45 f4             	mov    -0xc(%ebp),%eax
  107448:	0f b6 90 8e 00 00 00 	movzbl 0x8e(%eax),%edx
  10744f:	83 ca 80             	or     $0xffffff80,%edx
  107452:	88 90 8e 00 00 00    	mov    %dl,0x8e(%eax)
  107458:	8b 45 f4             	mov    -0xc(%ebp),%eax
  10745b:	88 88 8f 00 00 00    	mov    %cl,0x8f(%eax)
/u/s/h/shirui/private/cs537/p3a/p3/xv6-sp20/kernel/vm.c:41
  107461:	8b 45 f4             	mov    -0xc(%ebp),%eax
  107464:	83 c0 70             	add    $0x70,%eax
  107467:	83 ec 08             	sub    $0x8,%esp
  10746a:	6a 38                	push   $0x38
  10746c:	50                   	push   %eax
  10746d:	e8 22 fb ff ff       	call   106f94 <lgdt>
  107472:	83 c4 10             	add    $0x10,%esp
/u/s/h/shirui/private/cs537/p3a/p3/xv6-sp20/kernel/vm.c:42
  107475:	83 ec 0c             	sub    $0xc,%esp
  107478:	6a 18                	push   $0x18
  10747a:	e8 56 fb ff ff       	call   106fd5 <loadgs>
  10747f:	83 c4 10             	add    $0x10,%esp
/u/s/h/shirui/private/cs537/p3a/p3/xv6-sp20/kernel/vm.c:45
  107482:	8b 45 f4             	mov    -0xc(%ebp),%eax
  107485:	65 a3 00 00 00 00    	mov    %eax,%gs:0x0
/u/s/h/shirui/private/cs537/p3a/p3/xv6-sp20/kernel/vm.c:46
  10748b:	65 c7 05 04 00 00 00 	movl   $0x0,%gs:0x4
  107492:	00 00 00 00 
/u/s/h/shirui/private/cs537/p3a/p3/xv6-sp20/kernel/vm.c:47
  107496:	90                   	nop
  107497:	8b 5d fc             	mov    -0x4(%ebp),%ebx
  10749a:	c9                   	leave  
  10749b:	c3                   	ret    

0010749c <walkpgdir>:
walkpgdir():
/u/s/h/shirui/private/cs537/p3a/p3/xv6-sp20/kernel/vm.c:54
  10749c:	55                   	push   %ebp
  10749d:	89 e5                	mov    %esp,%ebp
  10749f:	83 ec 18             	sub    $0x18,%esp
/u/s/h/shirui/private/cs537/p3a/p3/xv6-sp20/kernel/vm.c:58
  1074a2:	8b 45 0c             	mov    0xc(%ebp),%eax
  1074a5:	c1 e8 16             	shr    $0x16,%eax
  1074a8:	8d 14 85 00 00 00 00 	lea    0x0(,%eax,4),%edx
  1074af:	8b 45 08             	mov    0x8(%ebp),%eax
  1074b2:	01 d0                	add    %edx,%eax
  1074b4:	89 45 f0             	mov    %eax,-0x10(%ebp)
/u/s/h/shirui/private/cs537/p3a/p3/xv6-sp20/kernel/vm.c:59
  1074b7:	8b 45 f0             	mov    -0x10(%ebp),%eax
  1074ba:	8b 00                	mov    (%eax),%eax
  1074bc:	83 e0 01             	and    $0x1,%eax
  1074bf:	85 c0                	test   %eax,%eax
  1074c1:	74 0f                	je     1074d2 <walkpgdir+0x36>
/u/s/h/shirui/private/cs537/p3a/p3/xv6-sp20/kernel/vm.c:60
  1074c3:	8b 45 f0             	mov    -0x10(%ebp),%eax
  1074c6:	8b 00                	mov    (%eax),%eax
  1074c8:	25 00 f0 ff ff       	and    $0xfffff000,%eax
  1074cd:	89 45 f4             	mov    %eax,-0xc(%ebp)
  1074d0:	eb 3d                	jmp    10750f <walkpgdir+0x73>
/u/s/h/shirui/private/cs537/p3a/p3/xv6-sp20/kernel/vm.c:62
  1074d2:	83 7d 10 00          	cmpl   $0x0,0x10(%ebp)
  1074d6:	74 0e                	je     1074e6 <walkpgdir+0x4a>
/u/s/h/shirui/private/cs537/p3a/p3/xv6-sp20/kernel/vm.c:62 (discriminator 1)
  1074d8:	e8 c7 b6 ff ff       	call   102ba4 <kalloc>
  1074dd:	89 45 f4             	mov    %eax,-0xc(%ebp)
  1074e0:	83 7d f4 00          	cmpl   $0x0,-0xc(%ebp)
  1074e4:	75 07                	jne    1074ed <walkpgdir+0x51>
/u/s/h/shirui/private/cs537/p3a/p3/xv6-sp20/kernel/vm.c:63
  1074e6:	b8 00 00 00 00       	mov    $0x0,%eax
  1074eb:	eb 39                	jmp    107526 <walkpgdir+0x8a>
/u/s/h/shirui/private/cs537/p3a/p3/xv6-sp20/kernel/vm.c:65
  1074ed:	83 ec 04             	sub    $0x4,%esp
  1074f0:	68 00 10 00 00       	push   $0x1000
  1074f5:	6a 00                	push   $0x0
  1074f7:	ff 75 f4             	pushl  -0xc(%ebp)
  1074fa:	e8 be d5 ff ff       	call   104abd <memset>
  1074ff:	83 c4 10             	add    $0x10,%esp
/u/s/h/shirui/private/cs537/p3a/p3/xv6-sp20/kernel/vm.c:69
  107502:	8b 45 f4             	mov    -0xc(%ebp),%eax
  107505:	83 c8 07             	or     $0x7,%eax
  107508:	89 c2                	mov    %eax,%edx
  10750a:	8b 45 f0             	mov    -0x10(%ebp),%eax
  10750d:	89 10                	mov    %edx,(%eax)
/u/s/h/shirui/private/cs537/p3a/p3/xv6-sp20/kernel/vm.c:71
  10750f:	8b 45 0c             	mov    0xc(%ebp),%eax
  107512:	c1 e8 0c             	shr    $0xc,%eax
  107515:	25 ff 03 00 00       	and    $0x3ff,%eax
  10751a:	8d 14 85 00 00 00 00 	lea    0x0(,%eax,4),%edx
  107521:	8b 45 f4             	mov    -0xc(%ebp),%eax
  107524:	01 d0                	add    %edx,%eax
/u/s/h/shirui/private/cs537/p3a/p3/xv6-sp20/kernel/vm.c:72
  107526:	c9                   	leave  
  107527:	c3                   	ret    

00107528 <mprotect>:
mprotect():
/u/s/h/shirui/private/cs537/p3a/p3/xv6-sp20/kernel/vm.c:77
  107528:	55                   	push   %ebp
  107529:	89 e5                	mov    %esp,%ebp
  10752b:	83 ec 18             	sub    $0x18,%esp
/u/s/h/shirui/private/cs537/p3a/p3/xv6-sp20/kernel/vm.c:80
  10752e:	8b 45 08             	mov    0x8(%ebp),%eax
  107531:	25 00 f0 ff ff       	and    $0xfffff000,%eax
  107536:	89 45 f4             	mov    %eax,-0xc(%ebp)
/u/s/h/shirui/private/cs537/p3a/p3/xv6-sp20/kernel/vm.c:81
  107539:	8b 45 f4             	mov    -0xc(%ebp),%eax
  10753c:	3b 45 08             	cmp    0x8(%ebp),%eax
  10753f:	74 0a                	je     10754b <mprotect+0x23>
/u/s/h/shirui/private/cs537/p3a/p3/xv6-sp20/kernel/vm.c:81 (discriminator 1)
  107541:	b8 ff ff ff ff       	mov    $0xffffffff,%eax
  107546:	e9 dc 00 00 00       	jmp    107627 <mprotect+0xff>
/u/s/h/shirui/private/cs537/p3a/p3/xv6-sp20/kernel/vm.c:82
  10754b:	83 7d 0c 00          	cmpl   $0x0,0xc(%ebp)
  10754f:	7f 0a                	jg     10755b <mprotect+0x33>
/u/s/h/shirui/private/cs537/p3a/p3/xv6-sp20/kernel/vm.c:82 (discriminator 1)
  107551:	b8 ff ff ff ff       	mov    $0xffffffff,%eax
  107556:	e9 cc 00 00 00       	jmp    107627 <mprotect+0xff>
/u/s/h/shirui/private/cs537/p3a/p3/xv6-sp20/kernel/vm.c:83
  10755b:	c7 45 f0 00 00 00 00 	movl   $0x0,-0x10(%ebp)
  107562:	eb 4e                	jmp    1075b2 <mprotect+0x8a>
/u/s/h/shirui/private/cs537/p3a/p3/xv6-sp20/kernel/vm.c:84
  107564:	65 a1 04 00 00 00    	mov    %gs:0x4,%eax
  10756a:	8b 40 04             	mov    0x4(%eax),%eax
  10756d:	83 ec 04             	sub    $0x4,%esp
  107570:	6a 00                	push   $0x0
  107572:	ff 75 f4             	pushl  -0xc(%ebp)
  107575:	50                   	push   %eax
  107576:	e8 21 ff ff ff       	call   10749c <walkpgdir>
  10757b:	83 c4 10             	add    $0x10,%esp
  10757e:	89 45 e8             	mov    %eax,-0x18(%ebp)
/u/s/h/shirui/private/cs537/p3a/p3/xv6-sp20/kernel/vm.c:85
  107581:	83 7d e8 00          	cmpl   $0x0,-0x18(%ebp)
  107585:	75 0a                	jne    107591 <mprotect+0x69>
/u/s/h/shirui/private/cs537/p3a/p3/xv6-sp20/kernel/vm.c:85 (discriminator 1)
  107587:	b8 ff ff ff ff       	mov    $0xffffffff,%eax
  10758c:	e9 96 00 00 00       	jmp    107627 <mprotect+0xff>
/u/s/h/shirui/private/cs537/p3a/p3/xv6-sp20/kernel/vm.c:86
  107591:	8b 45 e8             	mov    -0x18(%ebp),%eax
  107594:	8b 00                	mov    (%eax),%eax
  107596:	83 e0 01             	and    $0x1,%eax
  107599:	85 c0                	test   %eax,%eax
  10759b:	75 0a                	jne    1075a7 <mprotect+0x7f>
/u/s/h/shirui/private/cs537/p3a/p3/xv6-sp20/kernel/vm.c:86 (discriminator 1)
  10759d:	b8 ff ff ff ff       	mov    $0xffffffff,%eax
  1075a2:	e9 80 00 00 00       	jmp    107627 <mprotect+0xff>
/u/s/h/shirui/private/cs537/p3a/p3/xv6-sp20/kernel/vm.c:87 (discriminator 2)
  1075a7:	81 45 f4 00 10 00 00 	addl   $0x1000,-0xc(%ebp)
/u/s/h/shirui/private/cs537/p3a/p3/xv6-sp20/kernel/vm.c:83 (discriminator 2)
  1075ae:	83 45 f0 01          	addl   $0x1,-0x10(%ebp)
/u/s/h/shirui/private/cs537/p3a/p3/xv6-sp20/kernel/vm.c:83 (discriminator 1)
  1075b2:	8b 45 f0             	mov    -0x10(%ebp),%eax
  1075b5:	3b 45 0c             	cmp    0xc(%ebp),%eax
  1075b8:	7c aa                	jl     107564 <mprotect+0x3c>
/u/s/h/shirui/private/cs537/p3a/p3/xv6-sp20/kernel/vm.c:89
  1075ba:	8b 45 08             	mov    0x8(%ebp),%eax
  1075bd:	25 00 f0 ff ff       	and    $0xfffff000,%eax
  1075c2:	89 45 f4             	mov    %eax,-0xc(%ebp)
/u/s/h/shirui/private/cs537/p3a/p3/xv6-sp20/kernel/vm.c:90
  1075c5:	c7 45 ec 00 00 00 00 	movl   $0x0,-0x14(%ebp)
  1075cc:	eb 4c                	jmp    10761a <mprotect+0xf2>
/u/s/h/shirui/private/cs537/p3a/p3/xv6-sp20/kernel/vm.c:91 (discriminator 3)
  1075ce:	65 a1 04 00 00 00    	mov    %gs:0x4,%eax
  1075d4:	8b 40 04             	mov    0x4(%eax),%eax
  1075d7:	83 ec 04             	sub    $0x4,%esp
  1075da:	6a 00                	push   $0x0
  1075dc:	ff 75 f4             	pushl  -0xc(%ebp)
  1075df:	50                   	push   %eax
  1075e0:	e8 b7 fe ff ff       	call   10749c <walkpgdir>
  1075e5:	83 c4 10             	add    $0x10,%esp
  1075e8:	89 45 e8             	mov    %eax,-0x18(%ebp)
/u/s/h/shirui/private/cs537/p3a/p3/xv6-sp20/kernel/vm.c:92 (discriminator 3)
  1075eb:	8b 45 e8             	mov    -0x18(%ebp),%eax
  1075ee:	8b 00                	mov    (%eax),%eax
  1075f0:	83 e0 fd             	and    $0xfffffffd,%eax
  1075f3:	89 c2                	mov    %eax,%edx
  1075f5:	8b 45 e8             	mov    -0x18(%ebp),%eax
  1075f8:	89 10                	mov    %edx,(%eax)
/u/s/h/shirui/private/cs537/p3a/p3/xv6-sp20/kernel/vm.c:93 (discriminator 3)
  1075fa:	65 a1 04 00 00 00    	mov    %gs:0x4,%eax
  107600:	8b 40 04             	mov    0x4(%eax),%eax
  107603:	83 ec 0c             	sub    $0xc,%esp
  107606:	50                   	push   %eax
  107607:	e8 fc f9 ff ff       	call   107008 <lcr3>
  10760c:	83 c4 10             	add    $0x10,%esp
/u/s/h/shirui/private/cs537/p3a/p3/xv6-sp20/kernel/vm.c:94 (discriminator 3)
  10760f:	81 45 f4 00 10 00 00 	addl   $0x1000,-0xc(%ebp)
/u/s/h/shirui/private/cs537/p3a/p3/xv6-sp20/kernel/vm.c:90 (discriminator 3)
  107616:	83 45 ec 01          	addl   $0x1,-0x14(%ebp)
/u/s/h/shirui/private/cs537/p3a/p3/xv6-sp20/kernel/vm.c:90 (discriminator 1)
  10761a:	8b 45 ec             	mov    -0x14(%ebp),%eax
  10761d:	3b 45 0c             	cmp    0xc(%ebp),%eax
  107620:	7c ac                	jl     1075ce <mprotect+0xa6>
/u/s/h/shirui/private/cs537/p3a/p3/xv6-sp20/kernel/vm.c:96
  107622:	b8 00 00 00 00       	mov    $0x0,%eax
/u/s/h/shirui/private/cs537/p3a/p3/xv6-sp20/kernel/vm.c:97
  107627:	c9                   	leave  
  107628:	c3                   	ret    

00107629 <mappages>:
mappages():
/u/s/h/shirui/private/cs537/p3a/p3/xv6-sp20/kernel/vm.c:104
  107629:	55                   	push   %ebp
  10762a:	89 e5                	mov    %esp,%ebp
  10762c:	83 ec 18             	sub    $0x18,%esp
/u/s/h/shirui/private/cs537/p3a/p3/xv6-sp20/kernel/vm.c:108
  10762f:	8b 45 0c             	mov    0xc(%ebp),%eax
  107632:	25 00 f0 ff ff       	and    $0xfffff000,%eax
  107637:	89 45 f4             	mov    %eax,-0xc(%ebp)
/u/s/h/shirui/private/cs537/p3a/p3/xv6-sp20/kernel/vm.c:109
  10763a:	8b 45 10             	mov    0x10(%ebp),%eax
  10763d:	8d 50 ff             	lea    -0x1(%eax),%edx
  107640:	8b 45 0c             	mov    0xc(%ebp),%eax
  107643:	01 d0                	add    %edx,%eax
  107645:	25 00 f0 ff ff       	and    $0xfffff000,%eax
  10764a:	89 45 f0             	mov    %eax,-0x10(%ebp)
/u/s/h/shirui/private/cs537/p3a/p3/xv6-sp20/kernel/vm.c:111
  10764d:	83 ec 04             	sub    $0x4,%esp
  107650:	6a 01                	push   $0x1
  107652:	ff 75 f4             	pushl  -0xc(%ebp)
  107655:	ff 75 08             	pushl  0x8(%ebp)
  107658:	e8 3f fe ff ff       	call   10749c <walkpgdir>
  10765d:	83 c4 10             	add    $0x10,%esp
  107660:	89 45 ec             	mov    %eax,-0x14(%ebp)
/u/s/h/shirui/private/cs537/p3a/p3/xv6-sp20/kernel/vm.c:112
  107663:	83 7d ec 00          	cmpl   $0x0,-0x14(%ebp)
  107667:	75 07                	jne    107670 <mappages+0x47>
/u/s/h/shirui/private/cs537/p3a/p3/xv6-sp20/kernel/vm.c:113
  107669:	b8 ff ff ff ff       	mov    $0xffffffff,%eax
  10766e:	eb 47                	jmp    1076b7 <mappages+0x8e>
/u/s/h/shirui/private/cs537/p3a/p3/xv6-sp20/kernel/vm.c:114
  107670:	8b 45 ec             	mov    -0x14(%ebp),%eax
  107673:	8b 00                	mov    (%eax),%eax
  107675:	83 e0 01             	and    $0x1,%eax
  107678:	85 c0                	test   %eax,%eax
  10767a:	74 0d                	je     107689 <mappages+0x60>
/u/s/h/shirui/private/cs537/p3a/p3/xv6-sp20/kernel/vm.c:115
  10767c:	83 ec 0c             	sub    $0xc,%esp
  10767f:	68 78 84 10 00       	push   $0x108478
  107684:	e8 ef 8e ff ff       	call   100578 <panic>
/u/s/h/shirui/private/cs537/p3a/p3/xv6-sp20/kernel/vm.c:116
  107689:	8b 45 18             	mov    0x18(%ebp),%eax
  10768c:	0b 45 14             	or     0x14(%ebp),%eax
  10768f:	83 c8 01             	or     $0x1,%eax
  107692:	89 c2                	mov    %eax,%edx
  107694:	8b 45 ec             	mov    -0x14(%ebp),%eax
  107697:	89 10                	mov    %edx,(%eax)
/u/s/h/shirui/private/cs537/p3a/p3/xv6-sp20/kernel/vm.c:117
  107699:	8b 45 f4             	mov    -0xc(%ebp),%eax
  10769c:	3b 45 f0             	cmp    -0x10(%ebp),%eax
  10769f:	74 10                	je     1076b1 <mappages+0x88>
/u/s/h/shirui/private/cs537/p3a/p3/xv6-sp20/kernel/vm.c:119
  1076a1:	81 45 f4 00 10 00 00 	addl   $0x1000,-0xc(%ebp)
/u/s/h/shirui/private/cs537/p3a/p3/xv6-sp20/kernel/vm.c:120
  1076a8:	81 45 14 00 10 00 00 	addl   $0x1000,0x14(%ebp)
/u/s/h/shirui/private/cs537/p3a/p3/xv6-sp20/kernel/vm.c:111
  1076af:	eb 9c                	jmp    10764d <mappages+0x24>
/u/s/h/shirui/private/cs537/p3a/p3/xv6-sp20/kernel/vm.c:118
  1076b1:	90                   	nop
/u/s/h/shirui/private/cs537/p3a/p3/xv6-sp20/kernel/vm.c:122
  1076b2:	b8 00 00 00 00       	mov    $0x0,%eax
/u/s/h/shirui/private/cs537/p3a/p3/xv6-sp20/kernel/vm.c:123
  1076b7:	c9                   	leave  
  1076b8:	c3                   	ret    

001076b9 <munprotect>:
munprotect():
/u/s/h/shirui/private/cs537/p3a/p3/xv6-sp20/kernel/vm.c:127
  1076b9:	55                   	push   %ebp
  1076ba:	89 e5                	mov    %esp,%ebp
  1076bc:	83 ec 18             	sub    $0x18,%esp
/u/s/h/shirui/private/cs537/p3a/p3/xv6-sp20/kernel/vm.c:129
  1076bf:	8b 45 08             	mov    0x8(%ebp),%eax
  1076c2:	25 00 f0 ff ff       	and    $0xfffff000,%eax
  1076c7:	89 45 f4             	mov    %eax,-0xc(%ebp)
/u/s/h/shirui/private/cs537/p3a/p3/xv6-sp20/kernel/vm.c:131
  1076ca:	8b 45 f4             	mov    -0xc(%ebp),%eax
  1076cd:	3b 45 08             	cmp    0x8(%ebp),%eax
  1076d0:	75 10                	jne    1076e2 <munprotect+0x29>
/u/s/h/shirui/private/cs537/p3a/p3/xv6-sp20/kernel/vm.c:131 (discriminator 2)
  1076d2:	83 7d 0c 00          	cmpl   $0x0,0xc(%ebp)
  1076d6:	7e 0a                	jle    1076e2 <munprotect+0x29>
/u/s/h/shirui/private/cs537/p3a/p3/xv6-sp20/kernel/vm.c:131 (discriminator 4)
  1076d8:	8b 45 08             	mov    0x8(%ebp),%eax
  1076db:	3d 00 00 0a 00       	cmp    $0xa0000,%eax
  1076e0:	76 0a                	jbe    1076ec <munprotect+0x33>
/u/s/h/shirui/private/cs537/p3a/p3/xv6-sp20/kernel/vm.c:131 (discriminator 5)
  1076e2:	b8 ff ff ff ff       	mov    $0xffffffff,%eax
  1076e7:	e9 ea 00 00 00       	jmp    1077d6 <munprotect+0x11d>
/u/s/h/shirui/private/cs537/p3a/p3/xv6-sp20/kernel/vm.c:132
  1076ec:	8b 45 0c             	mov    0xc(%ebp),%eax
  1076ef:	c1 e0 0c             	shl    $0xc,%eax
  1076f2:	89 c2                	mov    %eax,%edx
  1076f4:	8b 45 08             	mov    0x8(%ebp),%eax
  1076f7:	01 d0                	add    %edx,%eax
  1076f9:	3d 00 00 0a 00       	cmp    $0xa0000,%eax
  1076fe:	76 0a                	jbe    10770a <munprotect+0x51>
/u/s/h/shirui/private/cs537/p3a/p3/xv6-sp20/kernel/vm.c:132 (discriminator 1)
  107700:	b8 ff ff ff ff       	mov    $0xffffffff,%eax
  107705:	e9 cc 00 00 00       	jmp    1077d6 <munprotect+0x11d>
/u/s/h/shirui/private/cs537/p3a/p3/xv6-sp20/kernel/vm.c:136
  10770a:	c7 45 f0 00 00 00 00 	movl   $0x0,-0x10(%ebp)
  107711:	eb 4e                	jmp    107761 <munprotect+0xa8>
/u/s/h/shirui/private/cs537/p3a/p3/xv6-sp20/kernel/vm.c:137
  107713:	65 a1 04 00 00 00    	mov    %gs:0x4,%eax
  107719:	8b 40 04             	mov    0x4(%eax),%eax
  10771c:	83 ec 04             	sub    $0x4,%esp
  10771f:	6a 00                	push   $0x0
  107721:	ff 75 f4             	pushl  -0xc(%ebp)
  107724:	50                   	push   %eax
  107725:	e8 72 fd ff ff       	call   10749c <walkpgdir>
  10772a:	83 c4 10             	add    $0x10,%esp
  10772d:	89 45 e8             	mov    %eax,-0x18(%ebp)
/u/s/h/shirui/private/cs537/p3a/p3/xv6-sp20/kernel/vm.c:139
  107730:	83 7d e8 00          	cmpl   $0x0,-0x18(%ebp)
  107734:	75 0a                	jne    107740 <munprotect+0x87>
/u/s/h/shirui/private/cs537/p3a/p3/xv6-sp20/kernel/vm.c:139 (discriminator 1)
  107736:	b8 ff ff ff ff       	mov    $0xffffffff,%eax
  10773b:	e9 96 00 00 00       	jmp    1077d6 <munprotect+0x11d>
/u/s/h/shirui/private/cs537/p3a/p3/xv6-sp20/kernel/vm.c:140
  107740:	8b 45 e8             	mov    -0x18(%ebp),%eax
  107743:	8b 00                	mov    (%eax),%eax
  107745:	83 e0 01             	and    $0x1,%eax
  107748:	85 c0                	test   %eax,%eax
  10774a:	75 0a                	jne    107756 <munprotect+0x9d>
/u/s/h/shirui/private/cs537/p3a/p3/xv6-sp20/kernel/vm.c:140 (discriminator 1)
  10774c:	b8 ff ff ff ff       	mov    $0xffffffff,%eax
  107751:	e9 80 00 00 00       	jmp    1077d6 <munprotect+0x11d>
/u/s/h/shirui/private/cs537/p3a/p3/xv6-sp20/kernel/vm.c:142 (discriminator 2)
  107756:	81 45 f4 00 10 00 00 	addl   $0x1000,-0xc(%ebp)
/u/s/h/shirui/private/cs537/p3a/p3/xv6-sp20/kernel/vm.c:136 (discriminator 2)
  10775d:	83 45 f0 01          	addl   $0x1,-0x10(%ebp)
/u/s/h/shirui/private/cs537/p3a/p3/xv6-sp20/kernel/vm.c:136 (discriminator 1)
  107761:	8b 45 f0             	mov    -0x10(%ebp),%eax
  107764:	3b 45 0c             	cmp    0xc(%ebp),%eax
  107767:	7c aa                	jl     107713 <munprotect+0x5a>
/u/s/h/shirui/private/cs537/p3a/p3/xv6-sp20/kernel/vm.c:145
  107769:	8b 45 08             	mov    0x8(%ebp),%eax
  10776c:	25 00 f0 ff ff       	and    $0xfffff000,%eax
  107771:	89 45 f4             	mov    %eax,-0xc(%ebp)
/u/s/h/shirui/private/cs537/p3a/p3/xv6-sp20/kernel/vm.c:146
  107774:	c7 45 ec 00 00 00 00 	movl   $0x0,-0x14(%ebp)
  10777b:	eb 4c                	jmp    1077c9 <munprotect+0x110>
/u/s/h/shirui/private/cs537/p3a/p3/xv6-sp20/kernel/vm.c:147 (discriminator 3)
  10777d:	65 a1 04 00 00 00    	mov    %gs:0x4,%eax
  107783:	8b 40 04             	mov    0x4(%eax),%eax
  107786:	83 ec 04             	sub    $0x4,%esp
  107789:	6a 00                	push   $0x0
  10778b:	ff 75 f4             	pushl  -0xc(%ebp)
  10778e:	50                   	push   %eax
  10778f:	e8 08 fd ff ff       	call   10749c <walkpgdir>
  107794:	83 c4 10             	add    $0x10,%esp
  107797:	89 45 e8             	mov    %eax,-0x18(%ebp)
/u/s/h/shirui/private/cs537/p3a/p3/xv6-sp20/kernel/vm.c:148 (discriminator 3)
  10779a:	8b 45 e8             	mov    -0x18(%ebp),%eax
  10779d:	8b 00                	mov    (%eax),%eax
  10779f:	83 c8 02             	or     $0x2,%eax
  1077a2:	89 c2                	mov    %eax,%edx
  1077a4:	8b 45 e8             	mov    -0x18(%ebp),%eax
  1077a7:	89 10                	mov    %edx,(%eax)
/u/s/h/shirui/private/cs537/p3a/p3/xv6-sp20/kernel/vm.c:150 (discriminator 3)
  1077a9:	65 a1 04 00 00 00    	mov    %gs:0x4,%eax
  1077af:	8b 40 04             	mov    0x4(%eax),%eax
  1077b2:	83 ec 0c             	sub    $0xc,%esp
  1077b5:	50                   	push   %eax
  1077b6:	e8 4d f8 ff ff       	call   107008 <lcr3>
  1077bb:	83 c4 10             	add    $0x10,%esp
/u/s/h/shirui/private/cs537/p3a/p3/xv6-sp20/kernel/vm.c:151 (discriminator 3)
  1077be:	81 45 f4 00 10 00 00 	addl   $0x1000,-0xc(%ebp)
/u/s/h/shirui/private/cs537/p3a/p3/xv6-sp20/kernel/vm.c:146 (discriminator 3)
  1077c5:	83 45 ec 01          	addl   $0x1,-0x14(%ebp)
/u/s/h/shirui/private/cs537/p3a/p3/xv6-sp20/kernel/vm.c:146 (discriminator 1)
  1077c9:	8b 45 ec             	mov    -0x14(%ebp),%eax
  1077cc:	3b 45 0c             	cmp    0xc(%ebp),%eax
  1077cf:	7c ac                	jl     10777d <munprotect+0xc4>
/u/s/h/shirui/private/cs537/p3a/p3/xv6-sp20/kernel/vm.c:155
  1077d1:	b8 00 00 00 00       	mov    $0x0,%eax
/u/s/h/shirui/private/cs537/p3a/p3/xv6-sp20/kernel/vm.c:157
  1077d6:	c9                   	leave  
  1077d7:	c3                   	ret    

001077d8 <setupkvm>:
setupkvm():
/u/s/h/shirui/private/cs537/p3a/p3/xv6-sp20/kernel/vm.c:195
  1077d8:	55                   	push   %ebp
  1077d9:	89 e5                	mov    %esp,%ebp
  1077db:	53                   	push   %ebx
  1077dc:	83 ec 14             	sub    $0x14,%esp
/u/s/h/shirui/private/cs537/p3a/p3/xv6-sp20/kernel/vm.c:199
  1077df:	e8 c0 b3 ff ff       	call   102ba4 <kalloc>
  1077e4:	89 45 f0             	mov    %eax,-0x10(%ebp)
  1077e7:	83 7d f0 00          	cmpl   $0x0,-0x10(%ebp)
  1077eb:	75 07                	jne    1077f4 <setupkvm+0x1c>
/u/s/h/shirui/private/cs537/p3a/p3/xv6-sp20/kernel/vm.c:200
  1077ed:	b8 00 00 00 00       	mov    $0x0,%eax
  1077f2:	eb 77                	jmp    10786b <setupkvm+0x93>
/u/s/h/shirui/private/cs537/p3a/p3/xv6-sp20/kernel/vm.c:201
  1077f4:	83 ec 04             	sub    $0x4,%esp
  1077f7:	68 00 10 00 00       	push   $0x1000
  1077fc:	6a 00                	push   $0x0
  1077fe:	ff 75 f0             	pushl  -0x10(%ebp)
  107801:	e8 b7 d2 ff ff       	call   104abd <memset>
  107806:	83 c4 10             	add    $0x10,%esp
/u/s/h/shirui/private/cs537/p3a/p3/xv6-sp20/kernel/vm.c:202
  107809:	c7 45 f4 e0 b9 10 00 	movl   $0x10b9e0,-0xc(%ebp)
/u/s/h/shirui/private/cs537/p3a/p3/xv6-sp20/kernel/vm.c:203
  107810:	c7 45 f4 e0 b9 10 00 	movl   $0x10b9e0,-0xc(%ebp)
  107817:	eb 46                	jmp    10785f <setupkvm+0x87>
/u/s/h/shirui/private/cs537/p3a/p3/xv6-sp20/kernel/vm.c:204
  107819:	8b 45 f4             	mov    -0xc(%ebp),%eax
  10781c:	8b 50 08             	mov    0x8(%eax),%edx
  10781f:	8b 45 f4             	mov    -0xc(%ebp),%eax
  107822:	8b 00                	mov    (%eax),%eax
  107824:	89 c3                	mov    %eax,%ebx
  107826:	8b 45 f4             	mov    -0xc(%ebp),%eax
  107829:	8b 40 04             	mov    0x4(%eax),%eax
  10782c:	89 c1                	mov    %eax,%ecx
  10782e:	8b 45 f4             	mov    -0xc(%ebp),%eax
  107831:	8b 00                	mov    (%eax),%eax
  107833:	29 c1                	sub    %eax,%ecx
  107835:	89 c8                	mov    %ecx,%eax
  107837:	89 c1                	mov    %eax,%ecx
  107839:	8b 45 f4             	mov    -0xc(%ebp),%eax
  10783c:	8b 00                	mov    (%eax),%eax
  10783e:	83 ec 0c             	sub    $0xc,%esp
  107841:	52                   	push   %edx
  107842:	53                   	push   %ebx
  107843:	51                   	push   %ecx
  107844:	50                   	push   %eax
  107845:	ff 75 f0             	pushl  -0x10(%ebp)
  107848:	e8 dc fd ff ff       	call   107629 <mappages>
  10784d:	83 c4 20             	add    $0x20,%esp
  107850:	85 c0                	test   %eax,%eax
  107852:	79 07                	jns    10785b <setupkvm+0x83>
/u/s/h/shirui/private/cs537/p3a/p3/xv6-sp20/kernel/vm.c:205
  107854:	b8 00 00 00 00       	mov    $0x0,%eax
  107859:	eb 10                	jmp    10786b <setupkvm+0x93>
/u/s/h/shirui/private/cs537/p3a/p3/xv6-sp20/kernel/vm.c:203 (discriminator 2)
  10785b:	83 45 f4 0c          	addl   $0xc,-0xc(%ebp)
/u/s/h/shirui/private/cs537/p3a/p3/xv6-sp20/kernel/vm.c:203 (discriminator 1)
  10785f:	81 7d f4 10 ba 10 00 	cmpl   $0x10ba10,-0xc(%ebp)
  107866:	72 b1                	jb     107819 <setupkvm+0x41>
/u/s/h/shirui/private/cs537/p3a/p3/xv6-sp20/kernel/vm.c:207
  107868:	8b 45 f0             	mov    -0x10(%ebp),%eax
/u/s/h/shirui/private/cs537/p3a/p3/xv6-sp20/kernel/vm.c:208
  10786b:	8b 5d fc             	mov    -0x4(%ebp),%ebx
  10786e:	c9                   	leave  
  10786f:	c3                   	ret    

00107870 <vmenable>:
vmenable():
/u/s/h/shirui/private/cs537/p3a/p3/xv6-sp20/kernel/vm.c:213
  107870:	55                   	push   %ebp
  107871:	89 e5                	mov    %esp,%ebp
  107873:	83 ec 18             	sub    $0x18,%esp
/u/s/h/shirui/private/cs537/p3a/p3/xv6-sp20/kernel/vm.c:216
  107876:	e8 20 00 00 00       	call   10789b <switchkvm>
/u/s/h/shirui/private/cs537/p3a/p3/xv6-sp20/kernel/vm.c:217
  10787b:	e8 77 f7 ff ff       	call   106ff7 <rcr0>
  107880:	89 45 f4             	mov    %eax,-0xc(%ebp)
/u/s/h/shirui/private/cs537/p3a/p3/xv6-sp20/kernel/vm.c:218
  107883:	81 4d f4 00 00 00 80 	orl    $0x80000000,-0xc(%ebp)
/u/s/h/shirui/private/cs537/p3a/p3/xv6-sp20/kernel/vm.c:219
  10788a:	83 ec 0c             	sub    $0xc,%esp
  10788d:	ff 75 f4             	pushl  -0xc(%ebp)
  107890:	e8 56 f7 ff ff       	call   106feb <lcr0>
  107895:	83 c4 10             	add    $0x10,%esp
/u/s/h/shirui/private/cs537/p3a/p3/xv6-sp20/kernel/vm.c:220
  107898:	90                   	nop
  107899:	c9                   	leave  
  10789a:	c3                   	ret    

0010789b <switchkvm>:
switchkvm():
/u/s/h/shirui/private/cs537/p3a/p3/xv6-sp20/kernel/vm.c:226
  10789b:	55                   	push   %ebp
  10789c:	89 e5                	mov    %esp,%ebp
/u/s/h/shirui/private/cs537/p3a/p3/xv6-sp20/kernel/vm.c:227
  10789e:	a1 70 bb 10 00       	mov    0x10bb70,%eax
  1078a3:	50                   	push   %eax
  1078a4:	e8 5f f7 ff ff       	call   107008 <lcr3>
  1078a9:	83 c4 04             	add    $0x4,%esp
/u/s/h/shirui/private/cs537/p3a/p3/xv6-sp20/kernel/vm.c:228
  1078ac:	90                   	nop
  1078ad:	c9                   	leave  
  1078ae:	c3                   	ret    

001078af <switchuvm>:
switchuvm():
/u/s/h/shirui/private/cs537/p3a/p3/xv6-sp20/kernel/vm.c:233
  1078af:	55                   	push   %ebp
  1078b0:	89 e5                	mov    %esp,%ebp
  1078b2:	56                   	push   %esi
  1078b3:	53                   	push   %ebx
/u/s/h/shirui/private/cs537/p3a/p3/xv6-sp20/kernel/vm.c:234
  1078b4:	e8 24 d1 ff ff       	call   1049dd <pushcli>
/u/s/h/shirui/private/cs537/p3a/p3/xv6-sp20/kernel/vm.c:235
  1078b9:	65 a1 00 00 00 00    	mov    %gs:0x0,%eax
  1078bf:	65 8b 15 00 00 00 00 	mov    %gs:0x0,%edx
  1078c6:	83 c2 08             	add    $0x8,%edx
  1078c9:	89 d6                	mov    %edx,%esi
  1078cb:	65 8b 15 00 00 00 00 	mov    %gs:0x0,%edx
  1078d2:	83 c2 08             	add    $0x8,%edx
  1078d5:	c1 ea 10             	shr    $0x10,%edx
  1078d8:	89 d3                	mov    %edx,%ebx
  1078da:	65 8b 15 00 00 00 00 	mov    %gs:0x0,%edx
  1078e1:	83 c2 08             	add    $0x8,%edx
  1078e4:	c1 ea 18             	shr    $0x18,%edx
  1078e7:	89 d1                	mov    %edx,%ecx
  1078e9:	66 c7 80 a0 00 00 00 	movw   $0x67,0xa0(%eax)
  1078f0:	67 00 
  1078f2:	66 89 b0 a2 00 00 00 	mov    %si,0xa2(%eax)
  1078f9:	88 98 a4 00 00 00    	mov    %bl,0xa4(%eax)
  1078ff:	0f b6 90 a5 00 00 00 	movzbl 0xa5(%eax),%edx
  107906:	83 e2 f0             	and    $0xfffffff0,%edx
  107909:	83 ca 09             	or     $0x9,%edx
  10790c:	88 90 a5 00 00 00    	mov    %dl,0xa5(%eax)
  107912:	0f b6 90 a5 00 00 00 	movzbl 0xa5(%eax),%edx
  107919:	83 ca 10             	or     $0x10,%edx
  10791c:	88 90 a5 00 00 00    	mov    %dl,0xa5(%eax)
  107922:	0f b6 90 a5 00 00 00 	movzbl 0xa5(%eax),%edx
  107929:	83 e2 9f             	and    $0xffffff9f,%edx
  10792c:	88 90 a5 00 00 00    	mov    %dl,0xa5(%eax)
  107932:	0f b6 90 a5 00 00 00 	movzbl 0xa5(%eax),%edx
  107939:	83 ca 80             	or     $0xffffff80,%edx
  10793c:	88 90 a5 00 00 00    	mov    %dl,0xa5(%eax)
  107942:	0f b6 90 a6 00 00 00 	movzbl 0xa6(%eax),%edx
  107949:	83 e2 f0             	and    $0xfffffff0,%edx
  10794c:	88 90 a6 00 00 00    	mov    %dl,0xa6(%eax)
  107952:	0f b6 90 a6 00 00 00 	movzbl 0xa6(%eax),%edx
  107959:	83 e2 ef             	and    $0xffffffef,%edx
  10795c:	88 90 a6 00 00 00    	mov    %dl,0xa6(%eax)
  107962:	0f b6 90 a6 00 00 00 	movzbl 0xa6(%eax),%edx
  107969:	83 e2 df             	and    $0xffffffdf,%edx
  10796c:	88 90 a6 00 00 00    	mov    %dl,0xa6(%eax)
  107972:	0f b6 90 a6 00 00 00 	movzbl 0xa6(%eax),%edx
  107979:	83 ca 40             	or     $0x40,%edx
  10797c:	88 90 a6 00 00 00    	mov    %dl,0xa6(%eax)
  107982:	0f b6 90 a6 00 00 00 	movzbl 0xa6(%eax),%edx
  107989:	83 e2 7f             	and    $0x7f,%edx
  10798c:	88 90 a6 00 00 00    	mov    %dl,0xa6(%eax)
  107992:	88 88 a7 00 00 00    	mov    %cl,0xa7(%eax)
/u/s/h/shirui/private/cs537/p3a/p3/xv6-sp20/kernel/vm.c:236
  107998:	65 a1 00 00 00 00    	mov    %gs:0x0,%eax
  10799e:	0f b6 90 a5 00 00 00 	movzbl 0xa5(%eax),%edx
  1079a5:	83 e2 ef             	and    $0xffffffef,%edx
  1079a8:	88 90 a5 00 00 00    	mov    %dl,0xa5(%eax)
/u/s/h/shirui/private/cs537/p3a/p3/xv6-sp20/kernel/vm.c:237
  1079ae:	65 a1 00 00 00 00    	mov    %gs:0x0,%eax
  1079b4:	66 c7 40 10 10 00    	movw   $0x10,0x10(%eax)
/u/s/h/shirui/private/cs537/p3a/p3/xv6-sp20/kernel/vm.c:238
  1079ba:	65 a1 04 00 00 00    	mov    %gs:0x4,%eax
  1079c0:	8b 40 08             	mov    0x8(%eax),%eax
  1079c3:	89 c2                	mov    %eax,%edx
  1079c5:	65 a1 00 00 00 00    	mov    %gs:0x0,%eax
  1079cb:	81 c2 00 10 00 00    	add    $0x1000,%edx
  1079d1:	89 50 0c             	mov    %edx,0xc(%eax)
/u/s/h/shirui/private/cs537/p3a/p3/xv6-sp20/kernel/vm.c:239
  1079d4:	83 ec 0c             	sub    $0xc,%esp
  1079d7:	6a 30                	push   $0x30
  1079d9:	e8 e0 f5 ff ff       	call   106fbe <ltr>
  1079de:	83 c4 10             	add    $0x10,%esp
/u/s/h/shirui/private/cs537/p3a/p3/xv6-sp20/kernel/vm.c:240
  1079e1:	8b 45 08             	mov    0x8(%ebp),%eax
  1079e4:	8b 40 04             	mov    0x4(%eax),%eax
  1079e7:	85 c0                	test   %eax,%eax
  1079e9:	75 0d                	jne    1079f8 <switchuvm+0x149>
/u/s/h/shirui/private/cs537/p3a/p3/xv6-sp20/kernel/vm.c:241
  1079eb:	83 ec 0c             	sub    $0xc,%esp
  1079ee:	68 7e 84 10 00       	push   $0x10847e
  1079f3:	e8 80 8b ff ff       	call   100578 <panic>
/u/s/h/shirui/private/cs537/p3a/p3/xv6-sp20/kernel/vm.c:242
  1079f8:	8b 45 08             	mov    0x8(%ebp),%eax
  1079fb:	8b 40 04             	mov    0x4(%eax),%eax
  1079fe:	83 ec 0c             	sub    $0xc,%esp
  107a01:	50                   	push   %eax
  107a02:	e8 01 f6 ff ff       	call   107008 <lcr3>
  107a07:	83 c4 10             	add    $0x10,%esp
/u/s/h/shirui/private/cs537/p3a/p3/xv6-sp20/kernel/vm.c:243
  107a0a:	e8 13 d0 ff ff       	call   104a22 <popcli>
/u/s/h/shirui/private/cs537/p3a/p3/xv6-sp20/kernel/vm.c:244
  107a0f:	90                   	nop
  107a10:	8d 65 f8             	lea    -0x8(%ebp),%esp
  107a13:	5b                   	pop    %ebx
  107a14:	5e                   	pop    %esi
  107a15:	5d                   	pop    %ebp
  107a16:	c3                   	ret    

00107a17 <inituvm>:
inituvm():
/u/s/h/shirui/private/cs537/p3a/p3/xv6-sp20/kernel/vm.c:250
  107a17:	55                   	push   %ebp
  107a18:	89 e5                	mov    %esp,%ebp
  107a1a:	83 ec 18             	sub    $0x18,%esp
/u/s/h/shirui/private/cs537/p3a/p3/xv6-sp20/kernel/vm.c:253
  107a1d:	81 7d 10 ff 0f 00 00 	cmpl   $0xfff,0x10(%ebp)
  107a24:	76 0d                	jbe    107a33 <inituvm+0x1c>
/u/s/h/shirui/private/cs537/p3a/p3/xv6-sp20/kernel/vm.c:254
  107a26:	83 ec 0c             	sub    $0xc,%esp
  107a29:	68 92 84 10 00       	push   $0x108492
  107a2e:	e8 45 8b ff ff       	call   100578 <panic>
/u/s/h/shirui/private/cs537/p3a/p3/xv6-sp20/kernel/vm.c:255
  107a33:	e8 6c b1 ff ff       	call   102ba4 <kalloc>
  107a38:	89 45 f4             	mov    %eax,-0xc(%ebp)
/u/s/h/shirui/private/cs537/p3a/p3/xv6-sp20/kernel/vm.c:256
  107a3b:	83 ec 04             	sub    $0x4,%esp
  107a3e:	68 00 10 00 00       	push   $0x1000
  107a43:	6a 00                	push   $0x0
  107a45:	ff 75 f4             	pushl  -0xc(%ebp)
  107a48:	e8 70 d0 ff ff       	call   104abd <memset>
  107a4d:	83 c4 10             	add    $0x10,%esp
/u/s/h/shirui/private/cs537/p3a/p3/xv6-sp20/kernel/vm.c:257
  107a50:	8b 45 f4             	mov    -0xc(%ebp),%eax
  107a53:	83 ec 0c             	sub    $0xc,%esp
  107a56:	6a 06                	push   $0x6
  107a58:	50                   	push   %eax
  107a59:	68 00 10 00 00       	push   $0x1000
  107a5e:	6a 00                	push   $0x0
  107a60:	ff 75 08             	pushl  0x8(%ebp)
  107a63:	e8 c1 fb ff ff       	call   107629 <mappages>
  107a68:	83 c4 20             	add    $0x20,%esp
/u/s/h/shirui/private/cs537/p3a/p3/xv6-sp20/kernel/vm.c:258
  107a6b:	83 ec 04             	sub    $0x4,%esp
  107a6e:	ff 75 10             	pushl  0x10(%ebp)
  107a71:	ff 75 0c             	pushl  0xc(%ebp)
  107a74:	ff 75 f4             	pushl  -0xc(%ebp)
  107a77:	e8 b3 d0 ff ff       	call   104b2f <memmove>
  107a7c:	83 c4 10             	add    $0x10,%esp
/u/s/h/shirui/private/cs537/p3a/p3/xv6-sp20/kernel/vm.c:259
  107a7f:	90                   	nop
  107a80:	c9                   	leave  
  107a81:	c3                   	ret    

00107a82 <loaduvm>:
loaduvm():
/u/s/h/shirui/private/cs537/p3a/p3/xv6-sp20/kernel/vm.c:265
  107a82:	55                   	push   %ebp
  107a83:	89 e5                	mov    %esp,%ebp
  107a85:	83 ec 18             	sub    $0x18,%esp
/u/s/h/shirui/private/cs537/p3a/p3/xv6-sp20/kernel/vm.c:269
  107a88:	8b 45 0c             	mov    0xc(%ebp),%eax
  107a8b:	25 ff 0f 00 00       	and    $0xfff,%eax
  107a90:	85 c0                	test   %eax,%eax
  107a92:	74 0d                	je     107aa1 <loaduvm+0x1f>
/u/s/h/shirui/private/cs537/p3a/p3/xv6-sp20/kernel/vm.c:270
  107a94:	83 ec 0c             	sub    $0xc,%esp
  107a97:	68 ac 84 10 00       	push   $0x1084ac
  107a9c:	e8 d7 8a ff ff       	call   100578 <panic>
/u/s/h/shirui/private/cs537/p3a/p3/xv6-sp20/kernel/vm.c:271
  107aa1:	c7 45 f4 00 00 00 00 	movl   $0x0,-0xc(%ebp)
  107aa8:	e9 89 00 00 00       	jmp    107b36 <loaduvm+0xb4>
/u/s/h/shirui/private/cs537/p3a/p3/xv6-sp20/kernel/vm.c:272
  107aad:	8b 55 0c             	mov    0xc(%ebp),%edx
  107ab0:	8b 45 f4             	mov    -0xc(%ebp),%eax
  107ab3:	01 d0                	add    %edx,%eax
  107ab5:	83 ec 04             	sub    $0x4,%esp
  107ab8:	6a 00                	push   $0x0
  107aba:	50                   	push   %eax
  107abb:	ff 75 08             	pushl  0x8(%ebp)
  107abe:	e8 d9 f9 ff ff       	call   10749c <walkpgdir>
  107ac3:	83 c4 10             	add    $0x10,%esp
  107ac6:	89 45 ec             	mov    %eax,-0x14(%ebp)
  107ac9:	83 7d ec 00          	cmpl   $0x0,-0x14(%ebp)
  107acd:	75 0d                	jne    107adc <loaduvm+0x5a>
/u/s/h/shirui/private/cs537/p3a/p3/xv6-sp20/kernel/vm.c:273
  107acf:	83 ec 0c             	sub    $0xc,%esp
  107ad2:	68 cf 84 10 00       	push   $0x1084cf
  107ad7:	e8 9c 8a ff ff       	call   100578 <panic>
/u/s/h/shirui/private/cs537/p3a/p3/xv6-sp20/kernel/vm.c:274
  107adc:	8b 45 ec             	mov    -0x14(%ebp),%eax
  107adf:	8b 00                	mov    (%eax),%eax
  107ae1:	25 00 f0 ff ff       	and    $0xfffff000,%eax
  107ae6:	89 45 e8             	mov    %eax,-0x18(%ebp)
/u/s/h/shirui/private/cs537/p3a/p3/xv6-sp20/kernel/vm.c:275
  107ae9:	8b 45 18             	mov    0x18(%ebp),%eax
  107aec:	2b 45 f4             	sub    -0xc(%ebp),%eax
  107aef:	3d ff 0f 00 00       	cmp    $0xfff,%eax
  107af4:	77 0b                	ja     107b01 <loaduvm+0x7f>
/u/s/h/shirui/private/cs537/p3a/p3/xv6-sp20/kernel/vm.c:276
  107af6:	8b 45 18             	mov    0x18(%ebp),%eax
  107af9:	2b 45 f4             	sub    -0xc(%ebp),%eax
  107afc:	89 45 f0             	mov    %eax,-0x10(%ebp)
  107aff:	eb 07                	jmp    107b08 <loaduvm+0x86>
/u/s/h/shirui/private/cs537/p3a/p3/xv6-sp20/kernel/vm.c:278
  107b01:	c7 45 f0 00 10 00 00 	movl   $0x1000,-0x10(%ebp)
/u/s/h/shirui/private/cs537/p3a/p3/xv6-sp20/kernel/vm.c:279
  107b08:	8b 55 14             	mov    0x14(%ebp),%edx
  107b0b:	8b 45 f4             	mov    -0xc(%ebp),%eax
  107b0e:	01 c2                	add    %eax,%edx
  107b10:	8b 45 e8             	mov    -0x18(%ebp),%eax
  107b13:	ff 75 f0             	pushl  -0x10(%ebp)
  107b16:	52                   	push   %edx
  107b17:	50                   	push   %eax
  107b18:	ff 75 10             	pushl  0x10(%ebp)
  107b1b:	e8 92 a2 ff ff       	call   101db2 <readi>
  107b20:	83 c4 10             	add    $0x10,%esp
  107b23:	39 45 f0             	cmp    %eax,-0x10(%ebp)
  107b26:	74 07                	je     107b2f <loaduvm+0xad>
/u/s/h/shirui/private/cs537/p3a/p3/xv6-sp20/kernel/vm.c:280
  107b28:	b8 ff ff ff ff       	mov    $0xffffffff,%eax
  107b2d:	eb 18                	jmp    107b47 <loaduvm+0xc5>
/u/s/h/shirui/private/cs537/p3a/p3/xv6-sp20/kernel/vm.c:271 (discriminator 2)
  107b2f:	81 45 f4 00 10 00 00 	addl   $0x1000,-0xc(%ebp)
/u/s/h/shirui/private/cs537/p3a/p3/xv6-sp20/kernel/vm.c:271 (discriminator 1)
  107b36:	8b 45 f4             	mov    -0xc(%ebp),%eax
  107b39:	3b 45 18             	cmp    0x18(%ebp),%eax
  107b3c:	0f 82 6b ff ff ff    	jb     107aad <loaduvm+0x2b>
/u/s/h/shirui/private/cs537/p3a/p3/xv6-sp20/kernel/vm.c:282
  107b42:	b8 00 00 00 00       	mov    $0x0,%eax
/u/s/h/shirui/private/cs537/p3a/p3/xv6-sp20/kernel/vm.c:283
  107b47:	c9                   	leave  
  107b48:	c3                   	ret    

00107b49 <allocuvm>:
allocuvm():
/u/s/h/shirui/private/cs537/p3a/p3/xv6-sp20/kernel/vm.c:289
  107b49:	55                   	push   %ebp
  107b4a:	89 e5                	mov    %esp,%ebp
  107b4c:	83 ec 18             	sub    $0x18,%esp
/u/s/h/shirui/private/cs537/p3a/p3/xv6-sp20/kernel/vm.c:293
  107b4f:	81 7d 10 00 00 0a 00 	cmpl   $0xa0000,0x10(%ebp)
  107b56:	76 0a                	jbe    107b62 <allocuvm+0x19>
/u/s/h/shirui/private/cs537/p3a/p3/xv6-sp20/kernel/vm.c:294
  107b58:	b8 00 00 00 00       	mov    $0x0,%eax
  107b5d:	e9 9f 00 00 00       	jmp    107c01 <allocuvm+0xb8>
/u/s/h/shirui/private/cs537/p3a/p3/xv6-sp20/kernel/vm.c:295
  107b62:	8b 45 10             	mov    0x10(%ebp),%eax
  107b65:	3b 45 0c             	cmp    0xc(%ebp),%eax
  107b68:	73 08                	jae    107b72 <allocuvm+0x29>
/u/s/h/shirui/private/cs537/p3a/p3/xv6-sp20/kernel/vm.c:296
  107b6a:	8b 45 0c             	mov    0xc(%ebp),%eax
  107b6d:	e9 8f 00 00 00       	jmp    107c01 <allocuvm+0xb8>
/u/s/h/shirui/private/cs537/p3a/p3/xv6-sp20/kernel/vm.c:298
  107b72:	8b 45 0c             	mov    0xc(%ebp),%eax
  107b75:	05 ff 0f 00 00       	add    $0xfff,%eax
  107b7a:	25 00 f0 ff ff       	and    $0xfffff000,%eax
  107b7f:	89 45 f4             	mov    %eax,-0xc(%ebp)
/u/s/h/shirui/private/cs537/p3a/p3/xv6-sp20/kernel/vm.c:299
  107b82:	eb 72                	jmp    107bf6 <allocuvm+0xad>
/u/s/h/shirui/private/cs537/p3a/p3/xv6-sp20/kernel/vm.c:300
  107b84:	e8 1b b0 ff ff       	call   102ba4 <kalloc>
  107b89:	89 45 f0             	mov    %eax,-0x10(%ebp)
/u/s/h/shirui/private/cs537/p3a/p3/xv6-sp20/kernel/vm.c:301
  107b8c:	83 7d f0 00          	cmpl   $0x0,-0x10(%ebp)
  107b90:	75 2b                	jne    107bbd <allocuvm+0x74>
/u/s/h/shirui/private/cs537/p3a/p3/xv6-sp20/kernel/vm.c:302
  107b92:	83 ec 0c             	sub    $0xc,%esp
  107b95:	68 ed 84 10 00       	push   $0x1084ed
  107b9a:	e8 4d 88 ff ff       	call   1003ec <cprintf>
  107b9f:	83 c4 10             	add    $0x10,%esp
/u/s/h/shirui/private/cs537/p3a/p3/xv6-sp20/kernel/vm.c:303
  107ba2:	83 ec 04             	sub    $0x4,%esp
  107ba5:	ff 75 0c             	pushl  0xc(%ebp)
  107ba8:	ff 75 10             	pushl  0x10(%ebp)
  107bab:	ff 75 08             	pushl  0x8(%ebp)
  107bae:	e8 50 00 00 00       	call   107c03 <deallocuvm>
  107bb3:	83 c4 10             	add    $0x10,%esp
/u/s/h/shirui/private/cs537/p3a/p3/xv6-sp20/kernel/vm.c:304
  107bb6:	b8 00 00 00 00       	mov    $0x0,%eax
  107bbb:	eb 44                	jmp    107c01 <allocuvm+0xb8>
/u/s/h/shirui/private/cs537/p3a/p3/xv6-sp20/kernel/vm.c:306
  107bbd:	83 ec 04             	sub    $0x4,%esp
  107bc0:	68 00 10 00 00       	push   $0x1000
  107bc5:	6a 00                	push   $0x0
  107bc7:	ff 75 f0             	pushl  -0x10(%ebp)
  107bca:	e8 ee ce ff ff       	call   104abd <memset>
  107bcf:	83 c4 10             	add    $0x10,%esp
/u/s/h/shirui/private/cs537/p3a/p3/xv6-sp20/kernel/vm.c:307
  107bd2:	8b 55 f0             	mov    -0x10(%ebp),%edx
  107bd5:	8b 45 f4             	mov    -0xc(%ebp),%eax
  107bd8:	83 ec 0c             	sub    $0xc,%esp
  107bdb:	6a 06                	push   $0x6
  107bdd:	52                   	push   %edx
  107bde:	68 00 10 00 00       	push   $0x1000
  107be3:	50                   	push   %eax
  107be4:	ff 75 08             	pushl  0x8(%ebp)
  107be7:	e8 3d fa ff ff       	call   107629 <mappages>
  107bec:	83 c4 20             	add    $0x20,%esp
/u/s/h/shirui/private/cs537/p3a/p3/xv6-sp20/kernel/vm.c:299
  107bef:	81 45 f4 00 10 00 00 	addl   $0x1000,-0xc(%ebp)
/u/s/h/shirui/private/cs537/p3a/p3/xv6-sp20/kernel/vm.c:299 (discriminator 1)
  107bf6:	8b 45 f4             	mov    -0xc(%ebp),%eax
  107bf9:	3b 45 10             	cmp    0x10(%ebp),%eax
  107bfc:	72 86                	jb     107b84 <allocuvm+0x3b>
/u/s/h/shirui/private/cs537/p3a/p3/xv6-sp20/kernel/vm.c:309
  107bfe:	8b 45 10             	mov    0x10(%ebp),%eax
/u/s/h/shirui/private/cs537/p3a/p3/xv6-sp20/kernel/vm.c:310
  107c01:	c9                   	leave  
  107c02:	c3                   	ret    

00107c03 <deallocuvm>:
deallocuvm():
/u/s/h/shirui/private/cs537/p3a/p3/xv6-sp20/kernel/vm.c:318
  107c03:	55                   	push   %ebp
  107c04:	89 e5                	mov    %esp,%ebp
  107c06:	83 ec 18             	sub    $0x18,%esp
/u/s/h/shirui/private/cs537/p3a/p3/xv6-sp20/kernel/vm.c:322
  107c09:	8b 45 10             	mov    0x10(%ebp),%eax
  107c0c:	3b 45 0c             	cmp    0xc(%ebp),%eax
  107c0f:	72 08                	jb     107c19 <deallocuvm+0x16>
/u/s/h/shirui/private/cs537/p3a/p3/xv6-sp20/kernel/vm.c:323
  107c11:	8b 45 0c             	mov    0xc(%ebp),%eax
  107c14:	e9 85 00 00 00       	jmp    107c9e <deallocuvm+0x9b>
/u/s/h/shirui/private/cs537/p3a/p3/xv6-sp20/kernel/vm.c:325
  107c19:	8b 45 10             	mov    0x10(%ebp),%eax
  107c1c:	05 ff 0f 00 00       	add    $0xfff,%eax
  107c21:	25 00 f0 ff ff       	and    $0xfffff000,%eax
  107c26:	89 45 f4             	mov    %eax,-0xc(%ebp)
/u/s/h/shirui/private/cs537/p3a/p3/xv6-sp20/kernel/vm.c:326
  107c29:	eb 68                	jmp    107c93 <deallocuvm+0x90>
/u/s/h/shirui/private/cs537/p3a/p3/xv6-sp20/kernel/vm.c:327
  107c2b:	8b 45 f4             	mov    -0xc(%ebp),%eax
  107c2e:	83 ec 04             	sub    $0x4,%esp
  107c31:	6a 00                	push   $0x0
  107c33:	50                   	push   %eax
  107c34:	ff 75 08             	pushl  0x8(%ebp)
  107c37:	e8 60 f8 ff ff       	call   10749c <walkpgdir>
  107c3c:	83 c4 10             	add    $0x10,%esp
  107c3f:	89 45 f0             	mov    %eax,-0x10(%ebp)
/u/s/h/shirui/private/cs537/p3a/p3/xv6-sp20/kernel/vm.c:328
  107c42:	83 7d f0 00          	cmpl   $0x0,-0x10(%ebp)
  107c46:	74 44                	je     107c8c <deallocuvm+0x89>
/u/s/h/shirui/private/cs537/p3a/p3/xv6-sp20/kernel/vm.c:328 (discriminator 1)
  107c48:	8b 45 f0             	mov    -0x10(%ebp),%eax
  107c4b:	8b 00                	mov    (%eax),%eax
  107c4d:	83 e0 01             	and    $0x1,%eax
  107c50:	85 c0                	test   %eax,%eax
  107c52:	74 38                	je     107c8c <deallocuvm+0x89>
/u/s/h/shirui/private/cs537/p3a/p3/xv6-sp20/kernel/vm.c:329
  107c54:	8b 45 f0             	mov    -0x10(%ebp),%eax
  107c57:	8b 00                	mov    (%eax),%eax
  107c59:	25 00 f0 ff ff       	and    $0xfffff000,%eax
  107c5e:	89 45 ec             	mov    %eax,-0x14(%ebp)
/u/s/h/shirui/private/cs537/p3a/p3/xv6-sp20/kernel/vm.c:330
  107c61:	83 7d ec 00          	cmpl   $0x0,-0x14(%ebp)
  107c65:	75 0d                	jne    107c74 <deallocuvm+0x71>
/u/s/h/shirui/private/cs537/p3a/p3/xv6-sp20/kernel/vm.c:331
  107c67:	83 ec 0c             	sub    $0xc,%esp
  107c6a:	68 05 85 10 00       	push   $0x108505
  107c6f:	e8 04 89 ff ff       	call   100578 <panic>
/u/s/h/shirui/private/cs537/p3a/p3/xv6-sp20/kernel/vm.c:332
  107c74:	8b 45 ec             	mov    -0x14(%ebp),%eax
  107c77:	83 ec 0c             	sub    $0xc,%esp
  107c7a:	50                   	push   %eax
  107c7b:	e8 1a ae ff ff       	call   102a9a <kfree>
  107c80:	83 c4 10             	add    $0x10,%esp
/u/s/h/shirui/private/cs537/p3a/p3/xv6-sp20/kernel/vm.c:333
  107c83:	8b 45 f0             	mov    -0x10(%ebp),%eax
  107c86:	c7 00 00 00 00 00    	movl   $0x0,(%eax)
/u/s/h/shirui/private/cs537/p3a/p3/xv6-sp20/kernel/vm.c:326
  107c8c:	81 45 f4 00 10 00 00 	addl   $0x1000,-0xc(%ebp)
/u/s/h/shirui/private/cs537/p3a/p3/xv6-sp20/kernel/vm.c:326 (discriminator 1)
  107c93:	8b 45 f4             	mov    -0xc(%ebp),%eax
  107c96:	3b 45 0c             	cmp    0xc(%ebp),%eax
  107c99:	72 90                	jb     107c2b <deallocuvm+0x28>
/u/s/h/shirui/private/cs537/p3a/p3/xv6-sp20/kernel/vm.c:336
  107c9b:	8b 45 10             	mov    0x10(%ebp),%eax
/u/s/h/shirui/private/cs537/p3a/p3/xv6-sp20/kernel/vm.c:337
  107c9e:	c9                   	leave  
  107c9f:	c3                   	ret    

00107ca0 <freevm>:
freevm():
/u/s/h/shirui/private/cs537/p3a/p3/xv6-sp20/kernel/vm.c:343
  107ca0:	55                   	push   %ebp
  107ca1:	89 e5                	mov    %esp,%ebp
  107ca3:	83 ec 18             	sub    $0x18,%esp
/u/s/h/shirui/private/cs537/p3a/p3/xv6-sp20/kernel/vm.c:346
  107ca6:	83 7d 08 00          	cmpl   $0x0,0x8(%ebp)
  107caa:	75 0d                	jne    107cb9 <freevm+0x19>
/u/s/h/shirui/private/cs537/p3a/p3/xv6-sp20/kernel/vm.c:347
  107cac:	83 ec 0c             	sub    $0xc,%esp
  107caf:	68 0b 85 10 00       	push   $0x10850b
  107cb4:	e8 bf 88 ff ff       	call   100578 <panic>
/u/s/h/shirui/private/cs537/p3a/p3/xv6-sp20/kernel/vm.c:348
  107cb9:	83 ec 04             	sub    $0x4,%esp
  107cbc:	6a 00                	push   $0x0
  107cbe:	68 00 00 0a 00       	push   $0xa0000
  107cc3:	ff 75 08             	pushl  0x8(%ebp)
  107cc6:	e8 38 ff ff ff       	call   107c03 <deallocuvm>
  107ccb:	83 c4 10             	add    $0x10,%esp
/u/s/h/shirui/private/cs537/p3a/p3/xv6-sp20/kernel/vm.c:349
  107cce:	c7 45 f4 00 00 00 00 	movl   $0x0,-0xc(%ebp)
  107cd5:	eb 3e                	jmp    107d15 <freevm+0x75>
/u/s/h/shirui/private/cs537/p3a/p3/xv6-sp20/kernel/vm.c:350
  107cd7:	8b 45 f4             	mov    -0xc(%ebp),%eax
  107cda:	8d 14 85 00 00 00 00 	lea    0x0(,%eax,4),%edx
  107ce1:	8b 45 08             	mov    0x8(%ebp),%eax
  107ce4:	01 d0                	add    %edx,%eax
  107ce6:	8b 00                	mov    (%eax),%eax
  107ce8:	83 e0 01             	and    $0x1,%eax
  107ceb:	85 c0                	test   %eax,%eax
  107ced:	74 22                	je     107d11 <freevm+0x71>
/u/s/h/shirui/private/cs537/p3a/p3/xv6-sp20/kernel/vm.c:351
  107cef:	8b 45 f4             	mov    -0xc(%ebp),%eax
  107cf2:	8d 14 85 00 00 00 00 	lea    0x0(,%eax,4),%edx
  107cf9:	8b 45 08             	mov    0x8(%ebp),%eax
  107cfc:	01 d0                	add    %edx,%eax
  107cfe:	8b 00                	mov    (%eax),%eax
  107d00:	25 00 f0 ff ff       	and    $0xfffff000,%eax
  107d05:	83 ec 0c             	sub    $0xc,%esp
  107d08:	50                   	push   %eax
  107d09:	e8 8c ad ff ff       	call   102a9a <kfree>
  107d0e:	83 c4 10             	add    $0x10,%esp
/u/s/h/shirui/private/cs537/p3a/p3/xv6-sp20/kernel/vm.c:349 (discriminator 2)
  107d11:	83 45 f4 01          	addl   $0x1,-0xc(%ebp)
/u/s/h/shirui/private/cs537/p3a/p3/xv6-sp20/kernel/vm.c:349 (discriminator 1)
  107d15:	81 7d f4 ff 03 00 00 	cmpl   $0x3ff,-0xc(%ebp)
  107d1c:	76 b9                	jbe    107cd7 <freevm+0x37>
/u/s/h/shirui/private/cs537/p3a/p3/xv6-sp20/kernel/vm.c:353
  107d1e:	83 ec 0c             	sub    $0xc,%esp
  107d21:	ff 75 08             	pushl  0x8(%ebp)
  107d24:	e8 71 ad ff ff       	call   102a9a <kfree>
  107d29:	83 c4 10             	add    $0x10,%esp
/u/s/h/shirui/private/cs537/p3a/p3/xv6-sp20/kernel/vm.c:354
  107d2c:	90                   	nop
  107d2d:	c9                   	leave  
  107d2e:	c3                   	ret    

00107d2f <copyuvm>:
copyuvm():
/u/s/h/shirui/private/cs537/p3a/p3/xv6-sp20/kernel/vm.c:360
  107d2f:	55                   	push   %ebp
  107d30:	89 e5                	mov    %esp,%ebp
  107d32:	83 ec 28             	sub    $0x28,%esp
/u/s/h/shirui/private/cs537/p3a/p3/xv6-sp20/kernel/vm.c:366
  107d35:	e8 9e fa ff ff       	call   1077d8 <setupkvm>
  107d3a:	89 45 f0             	mov    %eax,-0x10(%ebp)
  107d3d:	83 7d f0 00          	cmpl   $0x0,-0x10(%ebp)
  107d41:	75 0a                	jne    107d4d <copyuvm+0x1e>
/u/s/h/shirui/private/cs537/p3a/p3/xv6-sp20/kernel/vm.c:367
  107d43:	b8 00 00 00 00       	mov    $0x0,%eax
  107d48:	e9 dd 00 00 00       	jmp    107e2a <copyuvm+0xfb>
/u/s/h/shirui/private/cs537/p3a/p3/xv6-sp20/kernel/vm.c:368
  107d4d:	c7 45 f4 00 00 00 00 	movl   $0x0,-0xc(%ebp)
  107d54:	e9 a9 00 00 00       	jmp    107e02 <copyuvm+0xd3>
/u/s/h/shirui/private/cs537/p3a/p3/xv6-sp20/kernel/vm.c:369
  107d59:	8b 45 f4             	mov    -0xc(%ebp),%eax
  107d5c:	83 ec 04             	sub    $0x4,%esp
  107d5f:	6a 00                	push   $0x0
  107d61:	50                   	push   %eax
  107d62:	ff 75 08             	pushl  0x8(%ebp)
  107d65:	e8 32 f7 ff ff       	call   10749c <walkpgdir>
  107d6a:	83 c4 10             	add    $0x10,%esp
  107d6d:	89 45 ec             	mov    %eax,-0x14(%ebp)
  107d70:	83 7d ec 00          	cmpl   $0x0,-0x14(%ebp)
  107d74:	75 0d                	jne    107d83 <copyuvm+0x54>
/u/s/h/shirui/private/cs537/p3a/p3/xv6-sp20/kernel/vm.c:370
  107d76:	83 ec 0c             	sub    $0xc,%esp
  107d79:	68 1c 85 10 00       	push   $0x10851c
  107d7e:	e8 f5 87 ff ff       	call   100578 <panic>
/u/s/h/shirui/private/cs537/p3a/p3/xv6-sp20/kernel/vm.c:371
  107d83:	8b 45 ec             	mov    -0x14(%ebp),%eax
  107d86:	8b 00                	mov    (%eax),%eax
  107d88:	83 e0 01             	and    $0x1,%eax
  107d8b:	85 c0                	test   %eax,%eax
  107d8d:	75 0d                	jne    107d9c <copyuvm+0x6d>
/u/s/h/shirui/private/cs537/p3a/p3/xv6-sp20/kernel/vm.c:372
  107d8f:	83 ec 0c             	sub    $0xc,%esp
  107d92:	68 36 85 10 00       	push   $0x108536
  107d97:	e8 dc 87 ff ff       	call   100578 <panic>
/u/s/h/shirui/private/cs537/p3a/p3/xv6-sp20/kernel/vm.c:373
  107d9c:	8b 45 ec             	mov    -0x14(%ebp),%eax
  107d9f:	8b 00                	mov    (%eax),%eax
  107da1:	25 00 f0 ff ff       	and    $0xfffff000,%eax
  107da6:	89 45 e8             	mov    %eax,-0x18(%ebp)
/u/s/h/shirui/private/cs537/p3a/p3/xv6-sp20/kernel/vm.c:374
  107da9:	e8 f6 ad ff ff       	call   102ba4 <kalloc>
  107dae:	89 45 e4             	mov    %eax,-0x1c(%ebp)
  107db1:	83 7d e4 00          	cmpl   $0x0,-0x1c(%ebp)
  107db5:	74 5c                	je     107e13 <copyuvm+0xe4>
/u/s/h/shirui/private/cs537/p3a/p3/xv6-sp20/kernel/vm.c:376
  107db7:	8b 45 e8             	mov    -0x18(%ebp),%eax
  107dba:	83 ec 04             	sub    $0x4,%esp
  107dbd:	68 00 10 00 00       	push   $0x1000
  107dc2:	50                   	push   %eax
  107dc3:	ff 75 e4             	pushl  -0x1c(%ebp)
  107dc6:	e8 64 cd ff ff       	call   104b2f <memmove>
  107dcb:	83 c4 10             	add    $0x10,%esp
/u/s/h/shirui/private/cs537/p3a/p3/xv6-sp20/kernel/vm.c:377
  107dce:	8b 45 ec             	mov    -0x14(%ebp),%eax
  107dd1:	8b 00                	mov    (%eax),%eax
  107dd3:	83 e0 02             	and    $0x2,%eax
  107dd6:	83 c8 04             	or     $0x4,%eax
  107dd9:	89 c1                	mov    %eax,%ecx
  107ddb:	8b 55 e4             	mov    -0x1c(%ebp),%edx
  107dde:	8b 45 f4             	mov    -0xc(%ebp),%eax
  107de1:	83 ec 0c             	sub    $0xc,%esp
  107de4:	51                   	push   %ecx
  107de5:	52                   	push   %edx
  107de6:	68 00 10 00 00       	push   $0x1000
  107deb:	50                   	push   %eax
  107dec:	ff 75 f0             	pushl  -0x10(%ebp)
  107def:	e8 35 f8 ff ff       	call   107629 <mappages>
  107df4:	83 c4 20             	add    $0x20,%esp
  107df7:	85 c0                	test   %eax,%eax
  107df9:	78 1b                	js     107e16 <copyuvm+0xe7>
/u/s/h/shirui/private/cs537/p3a/p3/xv6-sp20/kernel/vm.c:368 (discriminator 2)
  107dfb:	81 45 f4 00 10 00 00 	addl   $0x1000,-0xc(%ebp)
/u/s/h/shirui/private/cs537/p3a/p3/xv6-sp20/kernel/vm.c:368 (discriminator 1)
  107e02:	8b 45 f4             	mov    -0xc(%ebp),%eax
  107e05:	3b 45 0c             	cmp    0xc(%ebp),%eax
  107e08:	0f 82 4b ff ff ff    	jb     107d59 <copyuvm+0x2a>
/u/s/h/shirui/private/cs537/p3a/p3/xv6-sp20/kernel/vm.c:380
  107e0e:	8b 45 f0             	mov    -0x10(%ebp),%eax
  107e11:	eb 17                	jmp    107e2a <copyuvm+0xfb>
/u/s/h/shirui/private/cs537/p3a/p3/xv6-sp20/kernel/vm.c:375
  107e13:	90                   	nop
  107e14:	eb 01                	jmp    107e17 <copyuvm+0xe8>
/u/s/h/shirui/private/cs537/p3a/p3/xv6-sp20/kernel/vm.c:378
  107e16:	90                   	nop
/u/s/h/shirui/private/cs537/p3a/p3/xv6-sp20/kernel/vm.c:383
  107e17:	83 ec 0c             	sub    $0xc,%esp
  107e1a:	ff 75 f0             	pushl  -0x10(%ebp)
  107e1d:	e8 7e fe ff ff       	call   107ca0 <freevm>
  107e22:	83 c4 10             	add    $0x10,%esp
/u/s/h/shirui/private/cs537/p3a/p3/xv6-sp20/kernel/vm.c:384
  107e25:	b8 00 00 00 00       	mov    $0x0,%eax
/u/s/h/shirui/private/cs537/p3a/p3/xv6-sp20/kernel/vm.c:385
  107e2a:	c9                   	leave  
  107e2b:	c3                   	ret    

00107e2c <uva2ka>:
uva2ka():
/u/s/h/shirui/private/cs537/p3a/p3/xv6-sp20/kernel/vm.c:390
  107e2c:	55                   	push   %ebp
  107e2d:	89 e5                	mov    %esp,%ebp
  107e2f:	83 ec 18             	sub    $0x18,%esp
/u/s/h/shirui/private/cs537/p3a/p3/xv6-sp20/kernel/vm.c:393
  107e32:	83 ec 04             	sub    $0x4,%esp
  107e35:	6a 00                	push   $0x0
  107e37:	ff 75 0c             	pushl  0xc(%ebp)
  107e3a:	ff 75 08             	pushl  0x8(%ebp)
  107e3d:	e8 5a f6 ff ff       	call   10749c <walkpgdir>
  107e42:	83 c4 10             	add    $0x10,%esp
  107e45:	89 45 f4             	mov    %eax,-0xc(%ebp)
/u/s/h/shirui/private/cs537/p3a/p3/xv6-sp20/kernel/vm.c:394
  107e48:	8b 45 f4             	mov    -0xc(%ebp),%eax
  107e4b:	8b 00                	mov    (%eax),%eax
  107e4d:	83 e0 01             	and    $0x1,%eax
  107e50:	85 c0                	test   %eax,%eax
  107e52:	75 07                	jne    107e5b <uva2ka+0x2f>
/u/s/h/shirui/private/cs537/p3a/p3/xv6-sp20/kernel/vm.c:395
  107e54:	b8 00 00 00 00       	mov    $0x0,%eax
  107e59:	eb 1d                	jmp    107e78 <uva2ka+0x4c>
/u/s/h/shirui/private/cs537/p3a/p3/xv6-sp20/kernel/vm.c:396
  107e5b:	8b 45 f4             	mov    -0xc(%ebp),%eax
  107e5e:	8b 00                	mov    (%eax),%eax
  107e60:	83 e0 04             	and    $0x4,%eax
  107e63:	85 c0                	test   %eax,%eax
  107e65:	75 07                	jne    107e6e <uva2ka+0x42>
/u/s/h/shirui/private/cs537/p3a/p3/xv6-sp20/kernel/vm.c:397
  107e67:	b8 00 00 00 00       	mov    $0x0,%eax
  107e6c:	eb 0a                	jmp    107e78 <uva2ka+0x4c>
/u/s/h/shirui/private/cs537/p3a/p3/xv6-sp20/kernel/vm.c:398
  107e6e:	8b 45 f4             	mov    -0xc(%ebp),%eax
  107e71:	8b 00                	mov    (%eax),%eax
  107e73:	25 00 f0 ff ff       	and    $0xfffff000,%eax
/u/s/h/shirui/private/cs537/p3a/p3/xv6-sp20/kernel/vm.c:399
  107e78:	c9                   	leave  
  107e79:	c3                   	ret    

00107e7a <copyout>:
copyout():
/u/s/h/shirui/private/cs537/p3a/p3/xv6-sp20/kernel/vm.c:406
  107e7a:	55                   	push   %ebp
  107e7b:	89 e5                	mov    %esp,%ebp
  107e7d:	83 ec 18             	sub    $0x18,%esp
/u/s/h/shirui/private/cs537/p3a/p3/xv6-sp20/kernel/vm.c:410
  107e80:	8b 45 10             	mov    0x10(%ebp),%eax
  107e83:	89 45 f4             	mov    %eax,-0xc(%ebp)
/u/s/h/shirui/private/cs537/p3a/p3/xv6-sp20/kernel/vm.c:411
  107e86:	eb 7f                	jmp    107f07 <copyout+0x8d>
/u/s/h/shirui/private/cs537/p3a/p3/xv6-sp20/kernel/vm.c:412
  107e88:	8b 45 0c             	mov    0xc(%ebp),%eax
  107e8b:	25 00 f0 ff ff       	and    $0xfffff000,%eax
  107e90:	89 45 ec             	mov    %eax,-0x14(%ebp)
/u/s/h/shirui/private/cs537/p3a/p3/xv6-sp20/kernel/vm.c:413
  107e93:	8b 45 ec             	mov    -0x14(%ebp),%eax
  107e96:	83 ec 08             	sub    $0x8,%esp
  107e99:	50                   	push   %eax
  107e9a:	ff 75 08             	pushl  0x8(%ebp)
  107e9d:	e8 8a ff ff ff       	call   107e2c <uva2ka>
  107ea2:	83 c4 10             	add    $0x10,%esp
  107ea5:	89 45 e8             	mov    %eax,-0x18(%ebp)
/u/s/h/shirui/private/cs537/p3a/p3/xv6-sp20/kernel/vm.c:414
  107ea8:	83 7d e8 00          	cmpl   $0x0,-0x18(%ebp)
  107eac:	75 07                	jne    107eb5 <copyout+0x3b>
/u/s/h/shirui/private/cs537/p3a/p3/xv6-sp20/kernel/vm.c:415
  107eae:	b8 ff ff ff ff       	mov    $0xffffffff,%eax
  107eb3:	eb 61                	jmp    107f16 <copyout+0x9c>
/u/s/h/shirui/private/cs537/p3a/p3/xv6-sp20/kernel/vm.c:416
  107eb5:	8b 45 ec             	mov    -0x14(%ebp),%eax
  107eb8:	2b 45 0c             	sub    0xc(%ebp),%eax
  107ebb:	05 00 10 00 00       	add    $0x1000,%eax
  107ec0:	89 45 f0             	mov    %eax,-0x10(%ebp)
/u/s/h/shirui/private/cs537/p3a/p3/xv6-sp20/kernel/vm.c:417
  107ec3:	8b 45 f0             	mov    -0x10(%ebp),%eax
  107ec6:	3b 45 14             	cmp    0x14(%ebp),%eax
  107ec9:	76 06                	jbe    107ed1 <copyout+0x57>
/u/s/h/shirui/private/cs537/p3a/p3/xv6-sp20/kernel/vm.c:418
  107ecb:	8b 45 14             	mov    0x14(%ebp),%eax
  107ece:	89 45 f0             	mov    %eax,-0x10(%ebp)
/u/s/h/shirui/private/cs537/p3a/p3/xv6-sp20/kernel/vm.c:419
  107ed1:	8b 45 0c             	mov    0xc(%ebp),%eax
  107ed4:	2b 45 ec             	sub    -0x14(%ebp),%eax
  107ed7:	89 c2                	mov    %eax,%edx
  107ed9:	8b 45 e8             	mov    -0x18(%ebp),%eax
  107edc:	01 d0                	add    %edx,%eax
  107ede:	83 ec 04             	sub    $0x4,%esp
  107ee1:	ff 75 f0             	pushl  -0x10(%ebp)
  107ee4:	ff 75 f4             	pushl  -0xc(%ebp)
  107ee7:	50                   	push   %eax
  107ee8:	e8 42 cc ff ff       	call   104b2f <memmove>
  107eed:	83 c4 10             	add    $0x10,%esp
/u/s/h/shirui/private/cs537/p3a/p3/xv6-sp20/kernel/vm.c:420
  107ef0:	8b 45 f0             	mov    -0x10(%ebp),%eax
  107ef3:	29 45 14             	sub    %eax,0x14(%ebp)
/u/s/h/shirui/private/cs537/p3a/p3/xv6-sp20/kernel/vm.c:421
  107ef6:	8b 45 f0             	mov    -0x10(%ebp),%eax
  107ef9:	01 45 f4             	add    %eax,-0xc(%ebp)
/u/s/h/shirui/private/cs537/p3a/p3/xv6-sp20/kernel/vm.c:422
  107efc:	8b 45 ec             	mov    -0x14(%ebp),%eax
  107eff:	05 00 10 00 00       	add    $0x1000,%eax
  107f04:	89 45 0c             	mov    %eax,0xc(%ebp)
/u/s/h/shirui/private/cs537/p3a/p3/xv6-sp20/kernel/vm.c:411
  107f07:	83 7d 14 00          	cmpl   $0x0,0x14(%ebp)
  107f0b:	0f 85 77 ff ff ff    	jne    107e88 <copyout+0xe>
/u/s/h/shirui/private/cs537/p3a/p3/xv6-sp20/kernel/vm.c:424
  107f11:	b8 00 00 00 00       	mov    $0x0,%eax
/u/s/h/shirui/private/cs537/p3a/p3/xv6-sp20/kernel/vm.c:425
  107f16:	c9                   	leave  
  107f17:	c3                   	ret    
