
kernel/kernel:     file format elf32-i386


Disassembly of section .text:

00100000 <multiboot_header>:
multiboot_header():
  100000:	02 b0 ad 1b 01 00    	add    0x11bad(%eax),%dh
  100006:	01 00                	add    %eax,(%eax)
  100008:	fd                   	std    
  100009:	4f                   	dec    %edi
  10000a:	51                   	push   %ecx
  10000b:	e4 00                	in     $0x0,%al
  10000d:	00 10                	add    %dl,(%eax)
  10000f:	00 00                	add    %al,(%eax)
  100011:	00 10                	add    %dl,(%eax)
  100013:	00 a6 ba 10 00 64    	add    %ah,0x640010ba(%esi)
  100019:	2b 11                	sub    (%ecx),%edx
  10001b:	00 20                	add    %ah,(%eax)
  10001d:	00 10                	add    %dl,(%eax)
	...

00100020 <multiboot_entry>:
multiboot_entry():
/u/s/h/shirui/private/cs537/p3a/p3/xv6-sp20/kernel/multiboot.S:45
  100020:	0f 01 15 64 00 10 00 	lgdtl  0x100064
/u/s/h/shirui/private/cs537/p3a/p3/xv6-sp20/kernel/multiboot.S:46
  100027:	ea 2e 00 10 00 08 00 	ljmp   $0x8,$0x10002e

0010002e <mbstart32>:
mbstart32():
/u/s/h/shirui/private/cs537/p3a/p3/xv6-sp20/kernel/multiboot.S:50
  10002e:	66 b8 10 00          	mov    $0x10,%ax
/u/s/h/shirui/private/cs537/p3a/p3/xv6-sp20/kernel/multiboot.S:51
  100032:	8e d8                	mov    %eax,%ds
/u/s/h/shirui/private/cs537/p3a/p3/xv6-sp20/kernel/multiboot.S:52
  100034:	8e c0                	mov    %eax,%es
/u/s/h/shirui/private/cs537/p3a/p3/xv6-sp20/kernel/multiboot.S:53
  100036:	8e d0                	mov    %eax,%ss
/u/s/h/shirui/private/cs537/p3a/p3/xv6-sp20/kernel/multiboot.S:54
  100038:	66 b8 00 00          	mov    $0x0,%ax
/u/s/h/shirui/private/cs537/p3a/p3/xv6-sp20/kernel/multiboot.S:55
  10003c:	8e e0                	mov    %eax,%fs
/u/s/h/shirui/private/cs537/p3a/p3/xv6-sp20/kernel/multiboot.S:56
  10003e:	8e e8                	mov    %eax,%gs
/u/s/h/shirui/private/cs537/p3a/p3/xv6-sp20/kernel/multiboot.S:59
  100040:	bc 80 cb 10 00       	mov    $0x10cb80,%esp
/u/s/h/shirui/private/cs537/p3a/p3/xv6-sp20/kernel/multiboot.S:60
  100045:	e8 f3 30 00 00       	call   10313d <main>

0010004a <spin>:
spin():
/u/s/h/shirui/private/cs537/p3a/p3/xv6-sp20/kernel/multiboot.S:62
  10004a:	eb fe                	jmp    10004a <spin>

0010004c <gdt>:
	...
gdt():
/u/s/h/shirui/private/cs537/p3a/p3/xv6-sp20/kernel/multiboot.S:62
  100054:	ff                   	(bad)  
  100055:	ff 00                	incl   (%eax)
  100057:	00 00                	add    %al,(%eax)
  100059:	9a cf 00 ff ff 00 00 	lcall  $0x0,$0xffff00cf
  100060:	00                   	.byte 0x0
  100061:	92                   	xchg   %eax,%edx
  100062:	cf                   	iret   
	...

00100064 <gdtdesc>:
gdtdesc():
/u/s/h/shirui/private/cs537/p3a/p3/xv6-sp20/kernel/multiboot.S:62
  100064:	17                   	pop    %ss
  100065:	00 4c 00 10          	add    %cl,0x10(%eax,%eax,1)
	...

0010006a <binit>:
binit():
/u/s/h/shirui/private/cs537/p3a/p3/xv6-sp20/kernel/bio.c:41
  10006a:	55                   	push   %ebp
  10006b:	89 e5                	mov    %esp,%ebp
  10006d:	83 ec 18             	sub    $0x18,%esp
/u/s/h/shirui/private/cs537/p3a/p3/xv6-sp20/kernel/bio.c:44
  100070:	83 ec 08             	sub    $0x8,%esp
  100073:	68 18 7f 10 00       	push   $0x107f18
  100078:	68 80 cb 10 00       	push   $0x10cb80
  10007d:	e8 dc 47 00 00       	call   10485e <initlock>
  100082:	83 c4 10             	add    $0x10,%esp
/u/s/h/shirui/private/cs537/p3a/p3/xv6-sp20/kernel/bio.c:47
  100085:	c7 05 b0 e0 10 00 a4 	movl   $0x10e0a4,0x10e0b0
  10008c:	e0 10 00 
/u/s/h/shirui/private/cs537/p3a/p3/xv6-sp20/kernel/bio.c:48
  10008f:	c7 05 b4 e0 10 00 a4 	movl   $0x10e0a4,0x10e0b4
  100096:	e0 10 00 
/u/s/h/shirui/private/cs537/p3a/p3/xv6-sp20/kernel/bio.c:49
  100099:	c7 45 f4 b4 cb 10 00 	movl   $0x10cbb4,-0xc(%ebp)
  1000a0:	eb 3a                	jmp    1000dc <binit+0x72>
/u/s/h/shirui/private/cs537/p3a/p3/xv6-sp20/kernel/bio.c:50 (discriminator 3)
  1000a2:	8b 15 b4 e0 10 00    	mov    0x10e0b4,%edx
  1000a8:	8b 45 f4             	mov    -0xc(%ebp),%eax
  1000ab:	89 50 10             	mov    %edx,0x10(%eax)
/u/s/h/shirui/private/cs537/p3a/p3/xv6-sp20/kernel/bio.c:51 (discriminator 3)
  1000ae:	8b 45 f4             	mov    -0xc(%ebp),%eax
  1000b1:	c7 40 0c a4 e0 10 00 	movl   $0x10e0a4,0xc(%eax)
/u/s/h/shirui/private/cs537/p3a/p3/xv6-sp20/kernel/bio.c:52 (discriminator 3)
  1000b8:	8b 45 f4             	mov    -0xc(%ebp),%eax
  1000bb:	c7 40 04 ff ff ff ff 	movl   $0xffffffff,0x4(%eax)
/u/s/h/shirui/private/cs537/p3a/p3/xv6-sp20/kernel/bio.c:53 (discriminator 3)
  1000c2:	a1 b4 e0 10 00       	mov    0x10e0b4,%eax
  1000c7:	8b 55 f4             	mov    -0xc(%ebp),%edx
  1000ca:	89 50 0c             	mov    %edx,0xc(%eax)
/u/s/h/shirui/private/cs537/p3a/p3/xv6-sp20/kernel/bio.c:54 (discriminator 3)
  1000cd:	8b 45 f4             	mov    -0xc(%ebp),%eax
  1000d0:	a3 b4 e0 10 00       	mov    %eax,0x10e0b4
/u/s/h/shirui/private/cs537/p3a/p3/xv6-sp20/kernel/bio.c:49 (discriminator 3)
  1000d5:	81 45 f4 18 02 00 00 	addl   $0x218,-0xc(%ebp)
/u/s/h/shirui/private/cs537/p3a/p3/xv6-sp20/kernel/bio.c:49 (discriminator 1)
  1000dc:	b8 a4 e0 10 00       	mov    $0x10e0a4,%eax
  1000e1:	39 45 f4             	cmp    %eax,-0xc(%ebp)
  1000e4:	72 bc                	jb     1000a2 <binit+0x38>
/u/s/h/shirui/private/cs537/p3a/p3/xv6-sp20/kernel/bio.c:56
  1000e6:	90                   	nop
  1000e7:	c9                   	leave  
  1000e8:	c3                   	ret    

001000e9 <bget>:
bget():
/u/s/h/shirui/private/cs537/p3a/p3/xv6-sp20/kernel/bio.c:63
  1000e9:	55                   	push   %ebp
  1000ea:	89 e5                	mov    %esp,%ebp
  1000ec:	83 ec 18             	sub    $0x18,%esp
/u/s/h/shirui/private/cs537/p3a/p3/xv6-sp20/kernel/bio.c:66
  1000ef:	83 ec 0c             	sub    $0xc,%esp
  1000f2:	68 80 cb 10 00       	push   $0x10cb80
  1000f7:	e8 84 47 00 00       	call   104880 <acquire>
  1000fc:	83 c4 10             	add    $0x10,%esp
/u/s/h/shirui/private/cs537/p3a/p3/xv6-sp20/kernel/bio.c:70
  1000ff:	a1 b4 e0 10 00       	mov    0x10e0b4,%eax
  100104:	89 45 f4             	mov    %eax,-0xc(%ebp)
  100107:	eb 67                	jmp    100170 <bget+0x87>
/u/s/h/shirui/private/cs537/p3a/p3/xv6-sp20/kernel/bio.c:71
  100109:	8b 45 f4             	mov    -0xc(%ebp),%eax
  10010c:	8b 40 04             	mov    0x4(%eax),%eax
  10010f:	39 45 08             	cmp    %eax,0x8(%ebp)
  100112:	75 53                	jne    100167 <bget+0x7e>
/u/s/h/shirui/private/cs537/p3a/p3/xv6-sp20/kernel/bio.c:71 (discriminator 1)
  100114:	8b 45 f4             	mov    -0xc(%ebp),%eax
  100117:	8b 40 08             	mov    0x8(%eax),%eax
  10011a:	39 45 0c             	cmp    %eax,0xc(%ebp)
  10011d:	75 48                	jne    100167 <bget+0x7e>
/u/s/h/shirui/private/cs537/p3a/p3/xv6-sp20/kernel/bio.c:72
  10011f:	8b 45 f4             	mov    -0xc(%ebp),%eax
  100122:	8b 00                	mov    (%eax),%eax
  100124:	83 e0 01             	and    $0x1,%eax
  100127:	85 c0                	test   %eax,%eax
  100129:	75 27                	jne    100152 <bget+0x69>
/u/s/h/shirui/private/cs537/p3a/p3/xv6-sp20/kernel/bio.c:73
  10012b:	8b 45 f4             	mov    -0xc(%ebp),%eax
  10012e:	8b 00                	mov    (%eax),%eax
  100130:	83 c8 01             	or     $0x1,%eax
  100133:	89 c2                	mov    %eax,%edx
  100135:	8b 45 f4             	mov    -0xc(%ebp),%eax
  100138:	89 10                	mov    %edx,(%eax)
/u/s/h/shirui/private/cs537/p3a/p3/xv6-sp20/kernel/bio.c:74
  10013a:	83 ec 0c             	sub    $0xc,%esp
  10013d:	68 80 cb 10 00       	push   $0x10cb80
  100142:	e8 a0 47 00 00       	call   1048e7 <release>
  100147:	83 c4 10             	add    $0x10,%esp
/u/s/h/shirui/private/cs537/p3a/p3/xv6-sp20/kernel/bio.c:75
  10014a:	8b 45 f4             	mov    -0xc(%ebp),%eax
  10014d:	e9 8c 00 00 00       	jmp    1001de <bget+0xf5>
/u/s/h/shirui/private/cs537/p3a/p3/xv6-sp20/kernel/bio.c:77
  100152:	83 ec 08             	sub    $0x8,%esp
  100155:	68 80 cb 10 00       	push   $0x10cb80
  10015a:	ff 75 f4             	pushl  -0xc(%ebp)
  10015d:	e8 25 44 00 00       	call   104587 <sleep>
  100162:	83 c4 10             	add    $0x10,%esp
/u/s/h/shirui/private/cs537/p3a/p3/xv6-sp20/kernel/bio.c:78
  100165:	eb 98                	jmp    1000ff <bget+0x16>
/u/s/h/shirui/private/cs537/p3a/p3/xv6-sp20/kernel/bio.c:70 (discriminator 2)
  100167:	8b 45 f4             	mov    -0xc(%ebp),%eax
  10016a:	8b 40 10             	mov    0x10(%eax),%eax
  10016d:	89 45 f4             	mov    %eax,-0xc(%ebp)
/u/s/h/shirui/private/cs537/p3a/p3/xv6-sp20/kernel/bio.c:70 (discriminator 1)
  100170:	81 7d f4 a4 e0 10 00 	cmpl   $0x10e0a4,-0xc(%ebp)
  100177:	75 90                	jne    100109 <bget+0x20>
/u/s/h/shirui/private/cs537/p3a/p3/xv6-sp20/kernel/bio.c:83
  100179:	a1 b0 e0 10 00       	mov    0x10e0b0,%eax
  10017e:	89 45 f4             	mov    %eax,-0xc(%ebp)
  100181:	eb 45                	jmp    1001c8 <bget+0xdf>
/u/s/h/shirui/private/cs537/p3a/p3/xv6-sp20/kernel/bio.c:84
  100183:	8b 45 f4             	mov    -0xc(%ebp),%eax
  100186:	8b 00                	mov    (%eax),%eax
  100188:	83 e0 01             	and    $0x1,%eax
  10018b:	85 c0                	test   %eax,%eax
  10018d:	75 30                	jne    1001bf <bget+0xd6>
/u/s/h/shirui/private/cs537/p3a/p3/xv6-sp20/kernel/bio.c:85
  10018f:	8b 45 f4             	mov    -0xc(%ebp),%eax
  100192:	8b 55 08             	mov    0x8(%ebp),%edx
  100195:	89 50 04             	mov    %edx,0x4(%eax)
/u/s/h/shirui/private/cs537/p3a/p3/xv6-sp20/kernel/bio.c:86
  100198:	8b 45 f4             	mov    -0xc(%ebp),%eax
  10019b:	8b 55 0c             	mov    0xc(%ebp),%edx
  10019e:	89 50 08             	mov    %edx,0x8(%eax)
/u/s/h/shirui/private/cs537/p3a/p3/xv6-sp20/kernel/bio.c:87
  1001a1:	8b 45 f4             	mov    -0xc(%ebp),%eax
  1001a4:	c7 00 01 00 00 00    	movl   $0x1,(%eax)
/u/s/h/shirui/private/cs537/p3a/p3/xv6-sp20/kernel/bio.c:88
  1001aa:	83 ec 0c             	sub    $0xc,%esp
  1001ad:	68 80 cb 10 00       	push   $0x10cb80
  1001b2:	e8 30 47 00 00       	call   1048e7 <release>
  1001b7:	83 c4 10             	add    $0x10,%esp
/u/s/h/shirui/private/cs537/p3a/p3/xv6-sp20/kernel/bio.c:89
  1001ba:	8b 45 f4             	mov    -0xc(%ebp),%eax
  1001bd:	eb 1f                	jmp    1001de <bget+0xf5>
/u/s/h/shirui/private/cs537/p3a/p3/xv6-sp20/kernel/bio.c:83 (discriminator 2)
  1001bf:	8b 45 f4             	mov    -0xc(%ebp),%eax
  1001c2:	8b 40 0c             	mov    0xc(%eax),%eax
  1001c5:	89 45 f4             	mov    %eax,-0xc(%ebp)
/u/s/h/shirui/private/cs537/p3a/p3/xv6-sp20/kernel/bio.c:83 (discriminator 1)
  1001c8:	81 7d f4 a4 e0 10 00 	cmpl   $0x10e0a4,-0xc(%ebp)
  1001cf:	75 b2                	jne    100183 <bget+0x9a>
/u/s/h/shirui/private/cs537/p3a/p3/xv6-sp20/kernel/bio.c:92
  1001d1:	83 ec 0c             	sub    $0xc,%esp
  1001d4:	68 1f 7f 10 00       	push   $0x107f1f
  1001d9:	e8 9a 03 00 00       	call   100578 <panic>
/u/s/h/shirui/private/cs537/p3a/p3/xv6-sp20/kernel/bio.c:93
  1001de:	c9                   	leave  
  1001df:	c3                   	ret    

001001e0 <bread>:
bread():
/u/s/h/shirui/private/cs537/p3a/p3/xv6-sp20/kernel/bio.c:98
  1001e0:	55                   	push   %ebp
  1001e1:	89 e5                	mov    %esp,%ebp
  1001e3:	83 ec 18             	sub    $0x18,%esp
/u/s/h/shirui/private/cs537/p3a/p3/xv6-sp20/kernel/bio.c:101
  1001e6:	83 ec 08             	sub    $0x8,%esp
  1001e9:	ff 75 0c             	pushl  0xc(%ebp)
  1001ec:	ff 75 08             	pushl  0x8(%ebp)
  1001ef:	e8 f5 fe ff ff       	call   1000e9 <bget>
  1001f4:	83 c4 10             	add    $0x10,%esp
  1001f7:	89 45 f4             	mov    %eax,-0xc(%ebp)
/u/s/h/shirui/private/cs537/p3a/p3/xv6-sp20/kernel/bio.c:102
  1001fa:	8b 45 f4             	mov    -0xc(%ebp),%eax
  1001fd:	8b 00                	mov    (%eax),%eax
  1001ff:	83 e0 02             	and    $0x2,%eax
  100202:	85 c0                	test   %eax,%eax
  100204:	75 0e                	jne    100214 <bread+0x34>
/u/s/h/shirui/private/cs537/p3a/p3/xv6-sp20/kernel/bio.c:103
  100206:	83 ec 0c             	sub    $0xc,%esp
  100209:	ff 75 f4             	pushl  -0xc(%ebp)
  10020c:	e8 fd 25 00 00       	call   10280e <iderw>
  100211:	83 c4 10             	add    $0x10,%esp
/u/s/h/shirui/private/cs537/p3a/p3/xv6-sp20/kernel/bio.c:104
  100214:	8b 45 f4             	mov    -0xc(%ebp),%eax
/u/s/h/shirui/private/cs537/p3a/p3/xv6-sp20/kernel/bio.c:105
  100217:	c9                   	leave  
  100218:	c3                   	ret    

00100219 <bwrite>:
bwrite():
/u/s/h/shirui/private/cs537/p3a/p3/xv6-sp20/kernel/bio.c:110
  100219:	55                   	push   %ebp
  10021a:	89 e5                	mov    %esp,%ebp
  10021c:	83 ec 08             	sub    $0x8,%esp
/u/s/h/shirui/private/cs537/p3a/p3/xv6-sp20/kernel/bio.c:111
  10021f:	8b 45 08             	mov    0x8(%ebp),%eax
  100222:	8b 00                	mov    (%eax),%eax
  100224:	83 e0 01             	and    $0x1,%eax
  100227:	85 c0                	test   %eax,%eax
  100229:	75 0d                	jne    100238 <bwrite+0x1f>
/u/s/h/shirui/private/cs537/p3a/p3/xv6-sp20/kernel/bio.c:112
  10022b:	83 ec 0c             	sub    $0xc,%esp
  10022e:	68 30 7f 10 00       	push   $0x107f30
  100233:	e8 40 03 00 00       	call   100578 <panic>
/u/s/h/shirui/private/cs537/p3a/p3/xv6-sp20/kernel/bio.c:113
  100238:	8b 45 08             	mov    0x8(%ebp),%eax
  10023b:	8b 00                	mov    (%eax),%eax
  10023d:	83 c8 04             	or     $0x4,%eax
  100240:	89 c2                	mov    %eax,%edx
  100242:	8b 45 08             	mov    0x8(%ebp),%eax
  100245:	89 10                	mov    %edx,(%eax)
/u/s/h/shirui/private/cs537/p3a/p3/xv6-sp20/kernel/bio.c:114
  100247:	83 ec 0c             	sub    $0xc,%esp
  10024a:	ff 75 08             	pushl  0x8(%ebp)
  10024d:	e8 bc 25 00 00       	call   10280e <iderw>
  100252:	83 c4 10             	add    $0x10,%esp
/u/s/h/shirui/private/cs537/p3a/p3/xv6-sp20/kernel/bio.c:115
  100255:	90                   	nop
  100256:	c9                   	leave  
  100257:	c3                   	ret    

00100258 <brelse>:
brelse():
/u/s/h/shirui/private/cs537/p3a/p3/xv6-sp20/kernel/bio.c:120
  100258:	55                   	push   %ebp
  100259:	89 e5                	mov    %esp,%ebp
  10025b:	83 ec 08             	sub    $0x8,%esp
/u/s/h/shirui/private/cs537/p3a/p3/xv6-sp20/kernel/bio.c:121
  10025e:	8b 45 08             	mov    0x8(%ebp),%eax
  100261:	8b 00                	mov    (%eax),%eax
  100263:	83 e0 01             	and    $0x1,%eax
  100266:	85 c0                	test   %eax,%eax
  100268:	75 0d                	jne    100277 <brelse+0x1f>
/u/s/h/shirui/private/cs537/p3a/p3/xv6-sp20/kernel/bio.c:122
  10026a:	83 ec 0c             	sub    $0xc,%esp
  10026d:	68 37 7f 10 00       	push   $0x107f37
  100272:	e8 01 03 00 00       	call   100578 <panic>
/u/s/h/shirui/private/cs537/p3a/p3/xv6-sp20/kernel/bio.c:124
  100277:	83 ec 0c             	sub    $0xc,%esp
  10027a:	68 80 cb 10 00       	push   $0x10cb80
  10027f:	e8 fc 45 00 00       	call   104880 <acquire>
  100284:	83 c4 10             	add    $0x10,%esp
/u/s/h/shirui/private/cs537/p3a/p3/xv6-sp20/kernel/bio.c:126
  100287:	8b 45 08             	mov    0x8(%ebp),%eax
  10028a:	8b 40 10             	mov    0x10(%eax),%eax
  10028d:	8b 55 08             	mov    0x8(%ebp),%edx
  100290:	8b 52 0c             	mov    0xc(%edx),%edx
  100293:	89 50 0c             	mov    %edx,0xc(%eax)
/u/s/h/shirui/private/cs537/p3a/p3/xv6-sp20/kernel/bio.c:127
  100296:	8b 45 08             	mov    0x8(%ebp),%eax
  100299:	8b 40 0c             	mov    0xc(%eax),%eax
  10029c:	8b 55 08             	mov    0x8(%ebp),%edx
  10029f:	8b 52 10             	mov    0x10(%edx),%edx
  1002a2:	89 50 10             	mov    %edx,0x10(%eax)
/u/s/h/shirui/private/cs537/p3a/p3/xv6-sp20/kernel/bio.c:128
  1002a5:	8b 15 b4 e0 10 00    	mov    0x10e0b4,%edx
  1002ab:	8b 45 08             	mov    0x8(%ebp),%eax
  1002ae:	89 50 10             	mov    %edx,0x10(%eax)
/u/s/h/shirui/private/cs537/p3a/p3/xv6-sp20/kernel/bio.c:129
  1002b1:	8b 45 08             	mov    0x8(%ebp),%eax
  1002b4:	c7 40 0c a4 e0 10 00 	movl   $0x10e0a4,0xc(%eax)
/u/s/h/shirui/private/cs537/p3a/p3/xv6-sp20/kernel/bio.c:130
  1002bb:	a1 b4 e0 10 00       	mov    0x10e0b4,%eax
  1002c0:	8b 55 08             	mov    0x8(%ebp),%edx
  1002c3:	89 50 0c             	mov    %edx,0xc(%eax)
/u/s/h/shirui/private/cs537/p3a/p3/xv6-sp20/kernel/bio.c:131
  1002c6:	8b 45 08             	mov    0x8(%ebp),%eax
  1002c9:	a3 b4 e0 10 00       	mov    %eax,0x10e0b4
/u/s/h/shirui/private/cs537/p3a/p3/xv6-sp20/kernel/bio.c:133
  1002ce:	8b 45 08             	mov    0x8(%ebp),%eax
  1002d1:	8b 00                	mov    (%eax),%eax
  1002d3:	83 e0 fe             	and    $0xfffffffe,%eax
  1002d6:	89 c2                	mov    %eax,%edx
  1002d8:	8b 45 08             	mov    0x8(%ebp),%eax
  1002db:	89 10                	mov    %edx,(%eax)
/u/s/h/shirui/private/cs537/p3a/p3/xv6-sp20/kernel/bio.c:134
  1002dd:	83 ec 0c             	sub    $0xc,%esp
  1002e0:	ff 75 08             	pushl  0x8(%ebp)
  1002e3:	e8 8a 43 00 00       	call   104672 <wakeup>
  1002e8:	83 c4 10             	add    $0x10,%esp
/u/s/h/shirui/private/cs537/p3a/p3/xv6-sp20/kernel/bio.c:136
  1002eb:	83 ec 0c             	sub    $0xc,%esp
  1002ee:	68 80 cb 10 00       	push   $0x10cb80
  1002f3:	e8 ef 45 00 00       	call   1048e7 <release>
  1002f8:	83 c4 10             	add    $0x10,%esp
/u/s/h/shirui/private/cs537/p3a/p3/xv6-sp20/kernel/bio.c:137
  1002fb:	90                   	nop
  1002fc:	c9                   	leave  
  1002fd:	c3                   	ret    

001002fe <inb>:
inb():
/u/s/h/shirui/private/cs537/p3a/p3/xv6-sp20/include/x86.h:7
  1002fe:	55                   	push   %ebp
  1002ff:	89 e5                	mov    %esp,%ebp
  100301:	83 ec 14             	sub    $0x14,%esp
  100304:	8b 45 08             	mov    0x8(%ebp),%eax
  100307:	66 89 45 ec          	mov    %ax,-0x14(%ebp)
/u/s/h/shirui/private/cs537/p3a/p3/xv6-sp20/include/x86.h:10
  10030b:	0f b7 45 ec          	movzwl -0x14(%ebp),%eax
  10030f:	89 c2                	mov    %eax,%edx
  100311:	ec                   	in     (%dx),%al
  100312:	88 45 ff             	mov    %al,-0x1(%ebp)
/u/s/h/shirui/private/cs537/p3a/p3/xv6-sp20/include/x86.h:11
  100315:	0f b6 45 ff          	movzbl -0x1(%ebp),%eax
/u/s/h/shirui/private/cs537/p3a/p3/xv6-sp20/include/x86.h:12
  100319:	c9                   	leave  
  10031a:	c3                   	ret    

0010031b <outb>:
outb():
/u/s/h/shirui/private/cs537/p3a/p3/xv6-sp20/include/x86.h:25
  10031b:	55                   	push   %ebp
  10031c:	89 e5                	mov    %esp,%ebp
  10031e:	83 ec 08             	sub    $0x8,%esp
  100321:	8b 55 08             	mov    0x8(%ebp),%edx
  100324:	8b 45 0c             	mov    0xc(%ebp),%eax
  100327:	66 89 55 fc          	mov    %dx,-0x4(%ebp)
  10032b:	88 45 f8             	mov    %al,-0x8(%ebp)
/u/s/h/shirui/private/cs537/p3a/p3/xv6-sp20/include/x86.h:26
  10032e:	0f b6 45 f8          	movzbl -0x8(%ebp),%eax
  100332:	0f b7 55 fc          	movzwl -0x4(%ebp),%edx
  100336:	ee                   	out    %al,(%dx)
/u/s/h/shirui/private/cs537/p3a/p3/xv6-sp20/include/x86.h:27
  100337:	90                   	nop
  100338:	c9                   	leave  
  100339:	c3                   	ret    

0010033a <cli>:
cli():
/u/s/h/shirui/private/cs537/p3a/p3/xv6-sp20/include/x86.h:119
  10033a:	55                   	push   %ebp
  10033b:	89 e5                	mov    %esp,%ebp
/u/s/h/shirui/private/cs537/p3a/p3/xv6-sp20/include/x86.h:120
  10033d:	fa                   	cli    
/u/s/h/shirui/private/cs537/p3a/p3/xv6-sp20/include/x86.h:121
  10033e:	90                   	nop
  10033f:	5d                   	pop    %ebp
  100340:	c3                   	ret    

00100341 <printint>:
printint():
/u/s/h/shirui/private/cs537/p3a/p3/xv6-sp20/kernel/console.c:27
  100341:	55                   	push   %ebp
  100342:	89 e5                	mov    %esp,%ebp
  100344:	83 ec 28             	sub    $0x28,%esp
/u/s/h/shirui/private/cs537/p3a/p3/xv6-sp20/kernel/console.c:33
  100347:	83 7d 10 00          	cmpl   $0x0,0x10(%ebp)
  10034b:	74 1c                	je     100369 <printint+0x28>
/u/s/h/shirui/private/cs537/p3a/p3/xv6-sp20/kernel/console.c:33 (discriminator 1)
  10034d:	8b 45 08             	mov    0x8(%ebp),%eax
  100350:	c1 e8 1f             	shr    $0x1f,%eax
  100353:	0f b6 c0             	movzbl %al,%eax
  100356:	89 45 10             	mov    %eax,0x10(%ebp)
  100359:	83 7d 10 00          	cmpl   $0x0,0x10(%ebp)
  10035d:	74 0a                	je     100369 <printint+0x28>
/u/s/h/shirui/private/cs537/p3a/p3/xv6-sp20/kernel/console.c:34
  10035f:	8b 45 08             	mov    0x8(%ebp),%eax
  100362:	f7 d8                	neg    %eax
  100364:	89 45 f0             	mov    %eax,-0x10(%ebp)
  100367:	eb 06                	jmp    10036f <printint+0x2e>
/u/s/h/shirui/private/cs537/p3a/p3/xv6-sp20/kernel/console.c:36
  100369:	8b 45 08             	mov    0x8(%ebp),%eax
  10036c:	89 45 f0             	mov    %eax,-0x10(%ebp)
/u/s/h/shirui/private/cs537/p3a/p3/xv6-sp20/kernel/console.c:38
  10036f:	c7 45 f4 00 00 00 00 	movl   $0x0,-0xc(%ebp)
/u/s/h/shirui/private/cs537/p3a/p3/xv6-sp20/kernel/console.c:40 (discriminator 1)
  100376:	8b 4d 0c             	mov    0xc(%ebp),%ecx
  100379:	8b 45 f0             	mov    -0x10(%ebp),%eax
  10037c:	ba 00 00 00 00       	mov    $0x0,%edx
  100381:	f7 f1                	div    %ecx
  100383:	89 d1                	mov    %edx,%ecx
  100385:	8b 45 f4             	mov    -0xc(%ebp),%eax
  100388:	8d 50 01             	lea    0x1(%eax),%edx
  10038b:	89 55 f4             	mov    %edx,-0xc(%ebp)
  10038e:	0f b6 91 08 b0 10 00 	movzbl 0x10b008(%ecx),%edx
  100395:	88 54 05 e0          	mov    %dl,-0x20(%ebp,%eax,1)
/u/s/h/shirui/private/cs537/p3a/p3/xv6-sp20/kernel/console.c:41 (discriminator 1)
  100399:	8b 4d 0c             	mov    0xc(%ebp),%ecx
  10039c:	8b 45 f0             	mov    -0x10(%ebp),%eax
  10039f:	ba 00 00 00 00       	mov    $0x0,%edx
  1003a4:	f7 f1                	div    %ecx
  1003a6:	89 45 f0             	mov    %eax,-0x10(%ebp)
  1003a9:	83 7d f0 00          	cmpl   $0x0,-0x10(%ebp)
  1003ad:	75 c7                	jne    100376 <printint+0x35>
/u/s/h/shirui/private/cs537/p3a/p3/xv6-sp20/kernel/console.c:43
  1003af:	83 7d 10 00          	cmpl   $0x0,0x10(%ebp)
  1003b3:	74 2a                	je     1003df <printint+0x9e>
/u/s/h/shirui/private/cs537/p3a/p3/xv6-sp20/kernel/console.c:44
  1003b5:	8b 45 f4             	mov    -0xc(%ebp),%eax
  1003b8:	8d 50 01             	lea    0x1(%eax),%edx
  1003bb:	89 55 f4             	mov    %edx,-0xc(%ebp)
  1003be:	c6 44 05 e0 2d       	movb   $0x2d,-0x20(%ebp,%eax,1)
/u/s/h/shirui/private/cs537/p3a/p3/xv6-sp20/kernel/console.c:46
  1003c3:	eb 1a                	jmp    1003df <printint+0x9e>
/u/s/h/shirui/private/cs537/p3a/p3/xv6-sp20/kernel/console.c:47
  1003c5:	8d 55 e0             	lea    -0x20(%ebp),%edx
  1003c8:	8b 45 f4             	mov    -0xc(%ebp),%eax
  1003cb:	01 d0                	add    %edx,%eax
  1003cd:	0f b6 00             	movzbl (%eax),%eax
  1003d0:	0f be c0             	movsbl %al,%eax
  1003d3:	83 ec 0c             	sub    $0xc,%esp
  1003d6:	50                   	push   %eax
  1003d7:	e8 b4 03 00 00       	call   100790 <consputc>
  1003dc:	83 c4 10             	add    $0x10,%esp
/u/s/h/shirui/private/cs537/p3a/p3/xv6-sp20/kernel/console.c:46
  1003df:	83 6d f4 01          	subl   $0x1,-0xc(%ebp)
  1003e3:	83 7d f4 00          	cmpl   $0x0,-0xc(%ebp)
  1003e7:	79 dc                	jns    1003c5 <printint+0x84>
/u/s/h/shirui/private/cs537/p3a/p3/xv6-sp20/kernel/console.c:48
  1003e9:	90                   	nop
  1003ea:	c9                   	leave  
  1003eb:	c3                   	ret    

001003ec <cprintf>:
cprintf():
/u/s/h/shirui/private/cs537/p3a/p3/xv6-sp20/kernel/console.c:53
  1003ec:	55                   	push   %ebp
  1003ed:	89 e5                	mov    %esp,%ebp
  1003ef:	83 ec 28             	sub    $0x28,%esp
/u/s/h/shirui/private/cs537/p3a/p3/xv6-sp20/kernel/console.c:58
  1003f2:	a1 14 bb 10 00       	mov    0x10bb14,%eax
  1003f7:	89 45 e8             	mov    %eax,-0x18(%ebp)
/u/s/h/shirui/private/cs537/p3a/p3/xv6-sp20/kernel/console.c:59
  1003fa:	83 7d e8 00          	cmpl   $0x0,-0x18(%ebp)
  1003fe:	74 10                	je     100410 <cprintf+0x24>
/u/s/h/shirui/private/cs537/p3a/p3/xv6-sp20/kernel/console.c:60
  100400:	83 ec 0c             	sub    $0xc,%esp
  100403:	68 e0 ba 10 00       	push   $0x10bae0
  100408:	e8 73 44 00 00       	call   104880 <acquire>
  10040d:	83 c4 10             	add    $0x10,%esp
/u/s/h/shirui/private/cs537/p3a/p3/xv6-sp20/kernel/console.c:62
  100410:	8d 45 0c             	lea    0xc(%ebp),%eax
  100413:	89 45 f0             	mov    %eax,-0x10(%ebp)
/u/s/h/shirui/private/cs537/p3a/p3/xv6-sp20/kernel/console.c:63
  100416:	c7 45 f4 00 00 00 00 	movl   $0x0,-0xc(%ebp)
  10041d:	e9 1a 01 00 00       	jmp    10053c <cprintf+0x150>
/u/s/h/shirui/private/cs537/p3a/p3/xv6-sp20/kernel/console.c:64
  100422:	83 7d e4 25          	cmpl   $0x25,-0x1c(%ebp)
  100426:	74 13                	je     10043b <cprintf+0x4f>
/u/s/h/shirui/private/cs537/p3a/p3/xv6-sp20/kernel/console.c:65
  100428:	83 ec 0c             	sub    $0xc,%esp
  10042b:	ff 75 e4             	pushl  -0x1c(%ebp)
  10042e:	e8 5d 03 00 00       	call   100790 <consputc>
  100433:	83 c4 10             	add    $0x10,%esp
/u/s/h/shirui/private/cs537/p3a/p3/xv6-sp20/kernel/console.c:66
  100436:	e9 fd 00 00 00       	jmp    100538 <cprintf+0x14c>
/u/s/h/shirui/private/cs537/p3a/p3/xv6-sp20/kernel/console.c:68
  10043b:	8b 55 08             	mov    0x8(%ebp),%edx
  10043e:	83 45 f4 01          	addl   $0x1,-0xc(%ebp)
  100442:	8b 45 f4             	mov    -0xc(%ebp),%eax
  100445:	01 d0                	add    %edx,%eax
  100447:	0f b6 00             	movzbl (%eax),%eax
  10044a:	0f be c0             	movsbl %al,%eax
  10044d:	25 ff 00 00 00       	and    $0xff,%eax
  100452:	89 45 e4             	mov    %eax,-0x1c(%ebp)
/u/s/h/shirui/private/cs537/p3a/p3/xv6-sp20/kernel/console.c:69
  100455:	83 7d e4 00          	cmpl   $0x0,-0x1c(%ebp)
  100459:	0f 84 ff 00 00 00    	je     10055e <cprintf+0x172>
/u/s/h/shirui/private/cs537/p3a/p3/xv6-sp20/kernel/console.c:71
  10045f:	8b 45 e4             	mov    -0x1c(%ebp),%eax
  100462:	83 f8 70             	cmp    $0x70,%eax
  100465:	74 47                	je     1004ae <cprintf+0xc2>
  100467:	83 f8 70             	cmp    $0x70,%eax
  10046a:	7f 13                	jg     10047f <cprintf+0x93>
  10046c:	83 f8 25             	cmp    $0x25,%eax
  10046f:	0f 84 98 00 00 00    	je     10050d <cprintf+0x121>
  100475:	83 f8 64             	cmp    $0x64,%eax
  100478:	74 14                	je     10048e <cprintf+0xa2>
  10047a:	e9 9d 00 00 00       	jmp    10051c <cprintf+0x130>
  10047f:	83 f8 73             	cmp    $0x73,%eax
  100482:	74 47                	je     1004cb <cprintf+0xdf>
  100484:	83 f8 78             	cmp    $0x78,%eax
  100487:	74 25                	je     1004ae <cprintf+0xc2>
  100489:	e9 8e 00 00 00       	jmp    10051c <cprintf+0x130>
/u/s/h/shirui/private/cs537/p3a/p3/xv6-sp20/kernel/console.c:73
  10048e:	8b 45 f0             	mov    -0x10(%ebp),%eax
  100491:	8d 50 04             	lea    0x4(%eax),%edx
  100494:	89 55 f0             	mov    %edx,-0x10(%ebp)
  100497:	8b 00                	mov    (%eax),%eax
  100499:	83 ec 04             	sub    $0x4,%esp
  10049c:	6a 01                	push   $0x1
  10049e:	6a 0a                	push   $0xa
  1004a0:	50                   	push   %eax
  1004a1:	e8 9b fe ff ff       	call   100341 <printint>
  1004a6:	83 c4 10             	add    $0x10,%esp
/u/s/h/shirui/private/cs537/p3a/p3/xv6-sp20/kernel/console.c:74
  1004a9:	e9 8a 00 00 00       	jmp    100538 <cprintf+0x14c>
/u/s/h/shirui/private/cs537/p3a/p3/xv6-sp20/kernel/console.c:77
  1004ae:	8b 45 f0             	mov    -0x10(%ebp),%eax
  1004b1:	8d 50 04             	lea    0x4(%eax),%edx
  1004b4:	89 55 f0             	mov    %edx,-0x10(%ebp)
  1004b7:	8b 00                	mov    (%eax),%eax
  1004b9:	83 ec 04             	sub    $0x4,%esp
  1004bc:	6a 00                	push   $0x0
  1004be:	6a 10                	push   $0x10
  1004c0:	50                   	push   %eax
  1004c1:	e8 7b fe ff ff       	call   100341 <printint>
  1004c6:	83 c4 10             	add    $0x10,%esp
/u/s/h/shirui/private/cs537/p3a/p3/xv6-sp20/kernel/console.c:78
  1004c9:	eb 6d                	jmp    100538 <cprintf+0x14c>
/u/s/h/shirui/private/cs537/p3a/p3/xv6-sp20/kernel/console.c:80
  1004cb:	8b 45 f0             	mov    -0x10(%ebp),%eax
  1004ce:	8d 50 04             	lea    0x4(%eax),%edx
  1004d1:	89 55 f0             	mov    %edx,-0x10(%ebp)
  1004d4:	8b 00                	mov    (%eax),%eax
  1004d6:	89 45 ec             	mov    %eax,-0x14(%ebp)
  1004d9:	83 7d ec 00          	cmpl   $0x0,-0x14(%ebp)
  1004dd:	75 22                	jne    100501 <cprintf+0x115>
/u/s/h/shirui/private/cs537/p3a/p3/xv6-sp20/kernel/console.c:81
  1004df:	c7 45 ec 3e 7f 10 00 	movl   $0x107f3e,-0x14(%ebp)
/u/s/h/shirui/private/cs537/p3a/p3/xv6-sp20/kernel/console.c:82
  1004e6:	eb 19                	jmp    100501 <cprintf+0x115>
/u/s/h/shirui/private/cs537/p3a/p3/xv6-sp20/kernel/console.c:83 (discriminator 2)
  1004e8:	8b 45 ec             	mov    -0x14(%ebp),%eax
  1004eb:	0f b6 00             	movzbl (%eax),%eax
  1004ee:	0f be c0             	movsbl %al,%eax
  1004f1:	83 ec 0c             	sub    $0xc,%esp
  1004f4:	50                   	push   %eax
  1004f5:	e8 96 02 00 00       	call   100790 <consputc>
  1004fa:	83 c4 10             	add    $0x10,%esp
/u/s/h/shirui/private/cs537/p3a/p3/xv6-sp20/kernel/console.c:82 (discriminator 2)
  1004fd:	83 45 ec 01          	addl   $0x1,-0x14(%ebp)
/u/s/h/shirui/private/cs537/p3a/p3/xv6-sp20/kernel/console.c:82 (discriminator 1)
  100501:	8b 45 ec             	mov    -0x14(%ebp),%eax
  100504:	0f b6 00             	movzbl (%eax),%eax
  100507:	84 c0                	test   %al,%al
  100509:	75 dd                	jne    1004e8 <cprintf+0xfc>
/u/s/h/shirui/private/cs537/p3a/p3/xv6-sp20/kernel/console.c:84
  10050b:	eb 2b                	jmp    100538 <cprintf+0x14c>
/u/s/h/shirui/private/cs537/p3a/p3/xv6-sp20/kernel/console.c:86
  10050d:	83 ec 0c             	sub    $0xc,%esp
  100510:	6a 25                	push   $0x25
  100512:	e8 79 02 00 00       	call   100790 <consputc>
  100517:	83 c4 10             	add    $0x10,%esp
/u/s/h/shirui/private/cs537/p3a/p3/xv6-sp20/kernel/console.c:87
  10051a:	eb 1c                	jmp    100538 <cprintf+0x14c>
/u/s/h/shirui/private/cs537/p3a/p3/xv6-sp20/kernel/console.c:90
  10051c:	83 ec 0c             	sub    $0xc,%esp
  10051f:	6a 25                	push   $0x25
  100521:	e8 6a 02 00 00       	call   100790 <consputc>
  100526:	83 c4 10             	add    $0x10,%esp
/u/s/h/shirui/private/cs537/p3a/p3/xv6-sp20/kernel/console.c:91
  100529:	83 ec 0c             	sub    $0xc,%esp
  10052c:	ff 75 e4             	pushl  -0x1c(%ebp)
  10052f:	e8 5c 02 00 00       	call   100790 <consputc>
  100534:	83 c4 10             	add    $0x10,%esp
/u/s/h/shirui/private/cs537/p3a/p3/xv6-sp20/kernel/console.c:92
  100537:	90                   	nop
/u/s/h/shirui/private/cs537/p3a/p3/xv6-sp20/kernel/console.c:63 (discriminator 2)
  100538:	83 45 f4 01          	addl   $0x1,-0xc(%ebp)
/u/s/h/shirui/private/cs537/p3a/p3/xv6-sp20/kernel/console.c:63 (discriminator 1)
  10053c:	8b 55 08             	mov    0x8(%ebp),%edx
  10053f:	8b 45 f4             	mov    -0xc(%ebp),%eax
  100542:	01 d0                	add    %edx,%eax
  100544:	0f b6 00             	movzbl (%eax),%eax
  100547:	0f be c0             	movsbl %al,%eax
  10054a:	25 ff 00 00 00       	and    $0xff,%eax
  10054f:	89 45 e4             	mov    %eax,-0x1c(%ebp)
  100552:	83 7d e4 00          	cmpl   $0x0,-0x1c(%ebp)
  100556:	0f 85 c6 fe ff ff    	jne    100422 <cprintf+0x36>
  10055c:	eb 01                	jmp    10055f <cprintf+0x173>
/u/s/h/shirui/private/cs537/p3a/p3/xv6-sp20/kernel/console.c:70
  10055e:	90                   	nop
/u/s/h/shirui/private/cs537/p3a/p3/xv6-sp20/kernel/console.c:96
  10055f:	83 7d e8 00          	cmpl   $0x0,-0x18(%ebp)
  100563:	74 10                	je     100575 <cprintf+0x189>
/u/s/h/shirui/private/cs537/p3a/p3/xv6-sp20/kernel/console.c:97
  100565:	83 ec 0c             	sub    $0xc,%esp
  100568:	68 e0 ba 10 00       	push   $0x10bae0
  10056d:	e8 75 43 00 00       	call   1048e7 <release>
  100572:	83 c4 10             	add    $0x10,%esp
/u/s/h/shirui/private/cs537/p3a/p3/xv6-sp20/kernel/console.c:98
  100575:	90                   	nop
  100576:	c9                   	leave  
  100577:	c3                   	ret    

00100578 <panic>:
panic():
/u/s/h/shirui/private/cs537/p3a/p3/xv6-sp20/kernel/console.c:102
  100578:	55                   	push   %ebp
  100579:	89 e5                	mov    %esp,%ebp
  10057b:	83 ec 38             	sub    $0x38,%esp
/u/s/h/shirui/private/cs537/p3a/p3/xv6-sp20/kernel/console.c:106
  10057e:	e8 b7 fd ff ff       	call   10033a <cli>
/u/s/h/shirui/private/cs537/p3a/p3/xv6-sp20/kernel/console.c:107
  100583:	c7 05 14 bb 10 00 00 	movl   $0x0,0x10bb14
  10058a:	00 00 00 
/u/s/h/shirui/private/cs537/p3a/p3/xv6-sp20/kernel/console.c:108
  10058d:	65 a1 00 00 00 00    	mov    %gs:0x0,%eax
  100593:	0f b6 00             	movzbl (%eax),%eax
  100596:	0f b6 c0             	movzbl %al,%eax
  100599:	83 ec 08             	sub    $0x8,%esp
  10059c:	50                   	push   %eax
  10059d:	68 45 7f 10 00       	push   $0x107f45
  1005a2:	e8 45 fe ff ff       	call   1003ec <cprintf>
  1005a7:	83 c4 10             	add    $0x10,%esp
/u/s/h/shirui/private/cs537/p3a/p3/xv6-sp20/kernel/console.c:109
  1005aa:	8b 45 08             	mov    0x8(%ebp),%eax
  1005ad:	83 ec 0c             	sub    $0xc,%esp
  1005b0:	50                   	push   %eax
  1005b1:	e8 36 fe ff ff       	call   1003ec <cprintf>
  1005b6:	83 c4 10             	add    $0x10,%esp
/u/s/h/shirui/private/cs537/p3a/p3/xv6-sp20/kernel/console.c:110
  1005b9:	83 ec 0c             	sub    $0xc,%esp
  1005bc:	68 54 7f 10 00       	push   $0x107f54
  1005c1:	e8 26 fe ff ff       	call   1003ec <cprintf>
  1005c6:	83 c4 10             	add    $0x10,%esp
/u/s/h/shirui/private/cs537/p3a/p3/xv6-sp20/kernel/console.c:111
  1005c9:	83 ec 08             	sub    $0x8,%esp
  1005cc:	8d 45 cc             	lea    -0x34(%ebp),%eax
  1005cf:	50                   	push   %eax
  1005d0:	8d 45 08             	lea    0x8(%ebp),%eax
  1005d3:	50                   	push   %eax
  1005d4:	e8 60 43 00 00       	call   104939 <getcallerpcs>
  1005d9:	83 c4 10             	add    $0x10,%esp
/u/s/h/shirui/private/cs537/p3a/p3/xv6-sp20/kernel/console.c:112
  1005dc:	c7 45 f4 00 00 00 00 	movl   $0x0,-0xc(%ebp)
  1005e3:	eb 1c                	jmp    100601 <panic+0x89>
/u/s/h/shirui/private/cs537/p3a/p3/xv6-sp20/kernel/console.c:113 (discriminator 3)
  1005e5:	8b 45 f4             	mov    -0xc(%ebp),%eax
  1005e8:	8b 44 85 cc          	mov    -0x34(%ebp,%eax,4),%eax
  1005ec:	83 ec 08             	sub    $0x8,%esp
  1005ef:	50                   	push   %eax
  1005f0:	68 56 7f 10 00       	push   $0x107f56
  1005f5:	e8 f2 fd ff ff       	call   1003ec <cprintf>
  1005fa:	83 c4 10             	add    $0x10,%esp
/u/s/h/shirui/private/cs537/p3a/p3/xv6-sp20/kernel/console.c:112 (discriminator 3)
  1005fd:	83 45 f4 01          	addl   $0x1,-0xc(%ebp)
/u/s/h/shirui/private/cs537/p3a/p3/xv6-sp20/kernel/console.c:112 (discriminator 1)
  100601:	83 7d f4 09          	cmpl   $0x9,-0xc(%ebp)
  100605:	7e de                	jle    1005e5 <panic+0x6d>
/u/s/h/shirui/private/cs537/p3a/p3/xv6-sp20/kernel/console.c:114
  100607:	c7 05 c0 ba 10 00 01 	movl   $0x1,0x10bac0
  10060e:	00 00 00 
/u/s/h/shirui/private/cs537/p3a/p3/xv6-sp20/kernel/console.c:115 (discriminator 1)
  100611:	eb fe                	jmp    100611 <panic+0x99>

00100613 <cgaputc>:
cgaputc():
/u/s/h/shirui/private/cs537/p3a/p3/xv6-sp20/kernel/console.c:125
  100613:	55                   	push   %ebp
  100614:	89 e5                	mov    %esp,%ebp
  100616:	53                   	push   %ebx
  100617:	83 ec 14             	sub    $0x14,%esp
/u/s/h/shirui/private/cs537/p3a/p3/xv6-sp20/kernel/console.c:129
  10061a:	6a 0e                	push   $0xe
  10061c:	68 d4 03 00 00       	push   $0x3d4
  100621:	e8 f5 fc ff ff       	call   10031b <outb>
  100626:	83 c4 08             	add    $0x8,%esp
/u/s/h/shirui/private/cs537/p3a/p3/xv6-sp20/kernel/console.c:130
  100629:	68 d5 03 00 00       	push   $0x3d5
  10062e:	e8 cb fc ff ff       	call   1002fe <inb>
  100633:	83 c4 04             	add    $0x4,%esp
  100636:	0f b6 c0             	movzbl %al,%eax
  100639:	c1 e0 08             	shl    $0x8,%eax
  10063c:	89 45 f4             	mov    %eax,-0xc(%ebp)
/u/s/h/shirui/private/cs537/p3a/p3/xv6-sp20/kernel/console.c:131
  10063f:	6a 0f                	push   $0xf
  100641:	68 d4 03 00 00       	push   $0x3d4
  100646:	e8 d0 fc ff ff       	call   10031b <outb>
  10064b:	83 c4 08             	add    $0x8,%esp
/u/s/h/shirui/private/cs537/p3a/p3/xv6-sp20/kernel/console.c:132
  10064e:	68 d5 03 00 00       	push   $0x3d5
  100653:	e8 a6 fc ff ff       	call   1002fe <inb>
  100658:	83 c4 04             	add    $0x4,%esp
  10065b:	0f b6 c0             	movzbl %al,%eax
  10065e:	09 45 f4             	or     %eax,-0xc(%ebp)
/u/s/h/shirui/private/cs537/p3a/p3/xv6-sp20/kernel/console.c:134
  100661:	83 7d 08 0a          	cmpl   $0xa,0x8(%ebp)
  100665:	75 30                	jne    100697 <cgaputc+0x84>
/u/s/h/shirui/private/cs537/p3a/p3/xv6-sp20/kernel/console.c:135
  100667:	8b 4d f4             	mov    -0xc(%ebp),%ecx
  10066a:	ba 67 66 66 66       	mov    $0x66666667,%edx
  10066f:	89 c8                	mov    %ecx,%eax
  100671:	f7 ea                	imul   %edx
  100673:	c1 fa 05             	sar    $0x5,%edx
  100676:	89 c8                	mov    %ecx,%eax
  100678:	c1 f8 1f             	sar    $0x1f,%eax
  10067b:	29 c2                	sub    %eax,%edx
  10067d:	89 d0                	mov    %edx,%eax
  10067f:	c1 e0 02             	shl    $0x2,%eax
  100682:	01 d0                	add    %edx,%eax
  100684:	c1 e0 04             	shl    $0x4,%eax
  100687:	29 c1                	sub    %eax,%ecx
  100689:	89 ca                	mov    %ecx,%edx
  10068b:	b8 50 00 00 00       	mov    $0x50,%eax
  100690:	29 d0                	sub    %edx,%eax
  100692:	01 45 f4             	add    %eax,-0xc(%ebp)
  100695:	eb 38                	jmp    1006cf <cgaputc+0xbc>
/u/s/h/shirui/private/cs537/p3a/p3/xv6-sp20/kernel/console.c:136
  100697:	81 7d 08 00 01 00 00 	cmpl   $0x100,0x8(%ebp)
  10069e:	75 0c                	jne    1006ac <cgaputc+0x99>
/u/s/h/shirui/private/cs537/p3a/p3/xv6-sp20/kernel/console.c:137
  1006a0:	83 7d f4 00          	cmpl   $0x0,-0xc(%ebp)
  1006a4:	7e 29                	jle    1006cf <cgaputc+0xbc>
/u/s/h/shirui/private/cs537/p3a/p3/xv6-sp20/kernel/console.c:137 (discriminator 1)
  1006a6:	83 6d f4 01          	subl   $0x1,-0xc(%ebp)
  1006aa:	eb 23                	jmp    1006cf <cgaputc+0xbc>
/u/s/h/shirui/private/cs537/p3a/p3/xv6-sp20/kernel/console.c:139
  1006ac:	8b 45 08             	mov    0x8(%ebp),%eax
  1006af:	0f b6 c0             	movzbl %al,%eax
  1006b2:	80 cc 07             	or     $0x7,%ah
  1006b5:	89 c3                	mov    %eax,%ebx
  1006b7:	8b 0d 04 b0 10 00    	mov    0x10b004,%ecx
  1006bd:	8b 45 f4             	mov    -0xc(%ebp),%eax
  1006c0:	8d 50 01             	lea    0x1(%eax),%edx
  1006c3:	89 55 f4             	mov    %edx,-0xc(%ebp)
  1006c6:	01 c0                	add    %eax,%eax
  1006c8:	01 c8                	add    %ecx,%eax
  1006ca:	89 da                	mov    %ebx,%edx
  1006cc:	66 89 10             	mov    %dx,(%eax)
/u/s/h/shirui/private/cs537/p3a/p3/xv6-sp20/kernel/console.c:141
  1006cf:	81 7d f4 7f 07 00 00 	cmpl   $0x77f,-0xc(%ebp)
  1006d6:	7e 4c                	jle    100724 <cgaputc+0x111>
/u/s/h/shirui/private/cs537/p3a/p3/xv6-sp20/kernel/console.c:142
  1006d8:	a1 04 b0 10 00       	mov    0x10b004,%eax
  1006dd:	8d 90 a0 00 00 00    	lea    0xa0(%eax),%edx
  1006e3:	a1 04 b0 10 00       	mov    0x10b004,%eax
  1006e8:	83 ec 04             	sub    $0x4,%esp
  1006eb:	68 60 0e 00 00       	push   $0xe60
  1006f0:	52                   	push   %edx
  1006f1:	50                   	push   %eax
  1006f2:	e8 38 44 00 00       	call   104b2f <memmove>
  1006f7:	83 c4 10             	add    $0x10,%esp
/u/s/h/shirui/private/cs537/p3a/p3/xv6-sp20/kernel/console.c:143
  1006fa:	83 6d f4 50          	subl   $0x50,-0xc(%ebp)
/u/s/h/shirui/private/cs537/p3a/p3/xv6-sp20/kernel/console.c:144
  1006fe:	b8 80 07 00 00       	mov    $0x780,%eax
  100703:	2b 45 f4             	sub    -0xc(%ebp),%eax
  100706:	8d 14 00             	lea    (%eax,%eax,1),%edx
  100709:	a1 04 b0 10 00       	mov    0x10b004,%eax
  10070e:	8b 4d f4             	mov    -0xc(%ebp),%ecx
  100711:	01 c9                	add    %ecx,%ecx
  100713:	01 c8                	add    %ecx,%eax
  100715:	83 ec 04             	sub    $0x4,%esp
  100718:	52                   	push   %edx
  100719:	6a 00                	push   $0x0
  10071b:	50                   	push   %eax
  10071c:	e8 9c 43 00 00       	call   104abd <memset>
  100721:	83 c4 10             	add    $0x10,%esp
/u/s/h/shirui/private/cs537/p3a/p3/xv6-sp20/kernel/console.c:147
  100724:	83 ec 08             	sub    $0x8,%esp
  100727:	6a 0e                	push   $0xe
  100729:	68 d4 03 00 00       	push   $0x3d4
  10072e:	e8 e8 fb ff ff       	call   10031b <outb>
  100733:	83 c4 10             	add    $0x10,%esp
/u/s/h/shirui/private/cs537/p3a/p3/xv6-sp20/kernel/console.c:148
  100736:	8b 45 f4             	mov    -0xc(%ebp),%eax
  100739:	c1 f8 08             	sar    $0x8,%eax
  10073c:	0f b6 c0             	movzbl %al,%eax
  10073f:	83 ec 08             	sub    $0x8,%esp
  100742:	50                   	push   %eax
  100743:	68 d5 03 00 00       	push   $0x3d5
  100748:	e8 ce fb ff ff       	call   10031b <outb>
  10074d:	83 c4 10             	add    $0x10,%esp
/u/s/h/shirui/private/cs537/p3a/p3/xv6-sp20/kernel/console.c:149
  100750:	83 ec 08             	sub    $0x8,%esp
  100753:	6a 0f                	push   $0xf
  100755:	68 d4 03 00 00       	push   $0x3d4
  10075a:	e8 bc fb ff ff       	call   10031b <outb>
  10075f:	83 c4 10             	add    $0x10,%esp
/u/s/h/shirui/private/cs537/p3a/p3/xv6-sp20/kernel/console.c:150
  100762:	8b 45 f4             	mov    -0xc(%ebp),%eax
  100765:	0f b6 c0             	movzbl %al,%eax
  100768:	83 ec 08             	sub    $0x8,%esp
  10076b:	50                   	push   %eax
  10076c:	68 d5 03 00 00       	push   $0x3d5
  100771:	e8 a5 fb ff ff       	call   10031b <outb>
  100776:	83 c4 10             	add    $0x10,%esp
/u/s/h/shirui/private/cs537/p3a/p3/xv6-sp20/kernel/console.c:151
  100779:	a1 04 b0 10 00       	mov    0x10b004,%eax
  10077e:	8b 55 f4             	mov    -0xc(%ebp),%edx
  100781:	01 d2                	add    %edx,%edx
  100783:	01 d0                	add    %edx,%eax
  100785:	66 c7 00 20 07       	movw   $0x720,(%eax)
/u/s/h/shirui/private/cs537/p3a/p3/xv6-sp20/kernel/console.c:152
  10078a:	90                   	nop
  10078b:	8b 5d fc             	mov    -0x4(%ebp),%ebx
  10078e:	c9                   	leave  
  10078f:	c3                   	ret    

00100790 <consputc>:
consputc():
/u/s/h/shirui/private/cs537/p3a/p3/xv6-sp20/kernel/console.c:156
  100790:	55                   	push   %ebp
  100791:	89 e5                	mov    %esp,%ebp
  100793:	83 ec 08             	sub    $0x8,%esp
/u/s/h/shirui/private/cs537/p3a/p3/xv6-sp20/kernel/console.c:157
  100796:	a1 c0 ba 10 00       	mov    0x10bac0,%eax
  10079b:	85 c0                	test   %eax,%eax
  10079d:	74 07                	je     1007a6 <consputc+0x16>
/u/s/h/shirui/private/cs537/p3a/p3/xv6-sp20/kernel/console.c:158
  10079f:	e8 96 fb ff ff       	call   10033a <cli>
/u/s/h/shirui/private/cs537/p3a/p3/xv6-sp20/kernel/console.c:159 (discriminator 1)
  1007a4:	eb fe                	jmp    1007a4 <consputc+0x14>
/u/s/h/shirui/private/cs537/p3a/p3/xv6-sp20/kernel/console.c:163
  1007a6:	81 7d 08 00 01 00 00 	cmpl   $0x100,0x8(%ebp)
  1007ad:	75 29                	jne    1007d8 <consputc+0x48>
/u/s/h/shirui/private/cs537/p3a/p3/xv6-sp20/kernel/console.c:164
  1007af:	83 ec 0c             	sub    $0xc,%esp
  1007b2:	6a 08                	push   $0x8
  1007b4:	e8 a8 5c 00 00       	call   106461 <uartputc>
  1007b9:	83 c4 10             	add    $0x10,%esp
  1007bc:	83 ec 0c             	sub    $0xc,%esp
  1007bf:	6a 20                	push   $0x20
  1007c1:	e8 9b 5c 00 00       	call   106461 <uartputc>
  1007c6:	83 c4 10             	add    $0x10,%esp
  1007c9:	83 ec 0c             	sub    $0xc,%esp
  1007cc:	6a 08                	push   $0x8
  1007ce:	e8 8e 5c 00 00       	call   106461 <uartputc>
  1007d3:	83 c4 10             	add    $0x10,%esp
  1007d6:	eb 0e                	jmp    1007e6 <consputc+0x56>
/u/s/h/shirui/private/cs537/p3a/p3/xv6-sp20/kernel/console.c:166
  1007d8:	83 ec 0c             	sub    $0xc,%esp
  1007db:	ff 75 08             	pushl  0x8(%ebp)
  1007de:	e8 7e 5c 00 00       	call   106461 <uartputc>
  1007e3:	83 c4 10             	add    $0x10,%esp
/u/s/h/shirui/private/cs537/p3a/p3/xv6-sp20/kernel/console.c:167
  1007e6:	83 ec 0c             	sub    $0xc,%esp
  1007e9:	ff 75 08             	pushl  0x8(%ebp)
  1007ec:	e8 22 fe ff ff       	call   100613 <cgaputc>
  1007f1:	83 c4 10             	add    $0x10,%esp
/u/s/h/shirui/private/cs537/p3a/p3/xv6-sp20/kernel/console.c:168
  1007f4:	90                   	nop
  1007f5:	c9                   	leave  
  1007f6:	c3                   	ret    

001007f7 <consoleintr>:
consoleintr():
/u/s/h/shirui/private/cs537/p3a/p3/xv6-sp20/kernel/console.c:183
  1007f7:	55                   	push   %ebp
  1007f8:	89 e5                	mov    %esp,%ebp
  1007fa:	83 ec 18             	sub    $0x18,%esp
/u/s/h/shirui/private/cs537/p3a/p3/xv6-sp20/kernel/console.c:186
  1007fd:	83 ec 0c             	sub    $0xc,%esp
  100800:	68 c0 e2 10 00       	push   $0x10e2c0
  100805:	e8 76 40 00 00       	call   104880 <acquire>
  10080a:	83 c4 10             	add    $0x10,%esp
/u/s/h/shirui/private/cs537/p3a/p3/xv6-sp20/kernel/console.c:187
  10080d:	e9 42 01 00 00       	jmp    100954 <consoleintr+0x15d>
/u/s/h/shirui/private/cs537/p3a/p3/xv6-sp20/kernel/console.c:188
  100812:	8b 45 f4             	mov    -0xc(%ebp),%eax
  100815:	83 f8 10             	cmp    $0x10,%eax
  100818:	74 1e                	je     100838 <consoleintr+0x41>
  10081a:	83 f8 10             	cmp    $0x10,%eax
  10081d:	7f 0a                	jg     100829 <consoleintr+0x32>
  10081f:	83 f8 08             	cmp    $0x8,%eax
  100822:	74 69                	je     10088d <consoleintr+0x96>
  100824:	e9 99 00 00 00       	jmp    1008c2 <consoleintr+0xcb>
  100829:	83 f8 15             	cmp    $0x15,%eax
  10082c:	74 31                	je     10085f <consoleintr+0x68>
  10082e:	83 f8 7f             	cmp    $0x7f,%eax
  100831:	74 5a                	je     10088d <consoleintr+0x96>
  100833:	e9 8a 00 00 00       	jmp    1008c2 <consoleintr+0xcb>
/u/s/h/shirui/private/cs537/p3a/p3/xv6-sp20/kernel/console.c:190
  100838:	e8 f0 3e 00 00       	call   10472d <procdump>
/u/s/h/shirui/private/cs537/p3a/p3/xv6-sp20/kernel/console.c:191
  10083d:	e9 12 01 00 00       	jmp    100954 <consoleintr+0x15d>
/u/s/h/shirui/private/cs537/p3a/p3/xv6-sp20/kernel/console.c:195
  100842:	a1 7c e3 10 00       	mov    0x10e37c,%eax
  100847:	83 e8 01             	sub    $0x1,%eax
  10084a:	a3 7c e3 10 00       	mov    %eax,0x10e37c
/u/s/h/shirui/private/cs537/p3a/p3/xv6-sp20/kernel/console.c:196
  10084f:	83 ec 0c             	sub    $0xc,%esp
  100852:	68 00 01 00 00       	push   $0x100
  100857:	e8 34 ff ff ff       	call   100790 <consputc>
  10085c:	83 c4 10             	add    $0x10,%esp
/u/s/h/shirui/private/cs537/p3a/p3/xv6-sp20/kernel/console.c:193
  10085f:	8b 15 7c e3 10 00    	mov    0x10e37c,%edx
  100865:	a1 78 e3 10 00       	mov    0x10e378,%eax
  10086a:	39 c2                	cmp    %eax,%edx
  10086c:	0f 84 e2 00 00 00    	je     100954 <consoleintr+0x15d>
/u/s/h/shirui/private/cs537/p3a/p3/xv6-sp20/kernel/console.c:194 (discriminator 1)
  100872:	a1 7c e3 10 00       	mov    0x10e37c,%eax
  100877:	83 e8 01             	sub    $0x1,%eax
  10087a:	83 e0 7f             	and    $0x7f,%eax
  10087d:	0f b6 80 f4 e2 10 00 	movzbl 0x10e2f4(%eax),%eax
/u/s/h/shirui/private/cs537/p3a/p3/xv6-sp20/kernel/console.c:193 (discriminator 1)
  100884:	3c 0a                	cmp    $0xa,%al
  100886:	75 ba                	jne    100842 <consoleintr+0x4b>
/u/s/h/shirui/private/cs537/p3a/p3/xv6-sp20/kernel/console.c:198
  100888:	e9 c7 00 00 00       	jmp    100954 <consoleintr+0x15d>
/u/s/h/shirui/private/cs537/p3a/p3/xv6-sp20/kernel/console.c:200
  10088d:	8b 15 7c e3 10 00    	mov    0x10e37c,%edx
  100893:	a1 78 e3 10 00       	mov    0x10e378,%eax
  100898:	39 c2                	cmp    %eax,%edx
  10089a:	0f 84 b4 00 00 00    	je     100954 <consoleintr+0x15d>
/u/s/h/shirui/private/cs537/p3a/p3/xv6-sp20/kernel/console.c:201
  1008a0:	a1 7c e3 10 00       	mov    0x10e37c,%eax
  1008a5:	83 e8 01             	sub    $0x1,%eax
  1008a8:	a3 7c e3 10 00       	mov    %eax,0x10e37c
/u/s/h/shirui/private/cs537/p3a/p3/xv6-sp20/kernel/console.c:202
  1008ad:	83 ec 0c             	sub    $0xc,%esp
  1008b0:	68 00 01 00 00       	push   $0x100
  1008b5:	e8 d6 fe ff ff       	call   100790 <consputc>
  1008ba:	83 c4 10             	add    $0x10,%esp
/u/s/h/shirui/private/cs537/p3a/p3/xv6-sp20/kernel/console.c:204
  1008bd:	e9 92 00 00 00       	jmp    100954 <consoleintr+0x15d>
/u/s/h/shirui/private/cs537/p3a/p3/xv6-sp20/kernel/console.c:206
  1008c2:	83 7d f4 00          	cmpl   $0x0,-0xc(%ebp)
  1008c6:	0f 84 87 00 00 00    	je     100953 <consoleintr+0x15c>
/u/s/h/shirui/private/cs537/p3a/p3/xv6-sp20/kernel/console.c:206 (discriminator 1)
  1008cc:	8b 15 7c e3 10 00    	mov    0x10e37c,%edx
  1008d2:	a1 74 e3 10 00       	mov    0x10e374,%eax
  1008d7:	29 c2                	sub    %eax,%edx
  1008d9:	89 d0                	mov    %edx,%eax
  1008db:	83 f8 7f             	cmp    $0x7f,%eax
  1008de:	77 73                	ja     100953 <consoleintr+0x15c>
/u/s/h/shirui/private/cs537/p3a/p3/xv6-sp20/kernel/console.c:207
  1008e0:	83 7d f4 0d          	cmpl   $0xd,-0xc(%ebp)
  1008e4:	74 05                	je     1008eb <consoleintr+0xf4>
/u/s/h/shirui/private/cs537/p3a/p3/xv6-sp20/kernel/console.c:207 (discriminator 1)
  1008e6:	8b 45 f4             	mov    -0xc(%ebp),%eax
  1008e9:	eb 05                	jmp    1008f0 <consoleintr+0xf9>
/u/s/h/shirui/private/cs537/p3a/p3/xv6-sp20/kernel/console.c:207 (discriminator 2)
  1008eb:	b8 0a 00 00 00       	mov    $0xa,%eax
/u/s/h/shirui/private/cs537/p3a/p3/xv6-sp20/kernel/console.c:207 (discriminator 4)
  1008f0:	89 45 f4             	mov    %eax,-0xc(%ebp)
/u/s/h/shirui/private/cs537/p3a/p3/xv6-sp20/kernel/console.c:208 (discriminator 4)
  1008f3:	a1 7c e3 10 00       	mov    0x10e37c,%eax
  1008f8:	8d 50 01             	lea    0x1(%eax),%edx
  1008fb:	89 15 7c e3 10 00    	mov    %edx,0x10e37c
  100901:	83 e0 7f             	and    $0x7f,%eax
  100904:	8b 55 f4             	mov    -0xc(%ebp),%edx
  100907:	88 90 f4 e2 10 00    	mov    %dl,0x10e2f4(%eax)
/u/s/h/shirui/private/cs537/p3a/p3/xv6-sp20/kernel/console.c:209 (discriminator 4)
  10090d:	83 ec 0c             	sub    $0xc,%esp
  100910:	ff 75 f4             	pushl  -0xc(%ebp)
  100913:	e8 78 fe ff ff       	call   100790 <consputc>
  100918:	83 c4 10             	add    $0x10,%esp
/u/s/h/shirui/private/cs537/p3a/p3/xv6-sp20/kernel/console.c:210 (discriminator 4)
  10091b:	83 7d f4 0a          	cmpl   $0xa,-0xc(%ebp)
  10091f:	74 18                	je     100939 <consoleintr+0x142>
/u/s/h/shirui/private/cs537/p3a/p3/xv6-sp20/kernel/console.c:210 (discriminator 1)
  100921:	83 7d f4 04          	cmpl   $0x4,-0xc(%ebp)
  100925:	74 12                	je     100939 <consoleintr+0x142>
/u/s/h/shirui/private/cs537/p3a/p3/xv6-sp20/kernel/console.c:210 (discriminator 2)
  100927:	a1 7c e3 10 00       	mov    0x10e37c,%eax
  10092c:	8b 15 74 e3 10 00    	mov    0x10e374,%edx
  100932:	83 ea 80             	sub    $0xffffff80,%edx
  100935:	39 d0                	cmp    %edx,%eax
  100937:	75 1a                	jne    100953 <consoleintr+0x15c>
/u/s/h/shirui/private/cs537/p3a/p3/xv6-sp20/kernel/console.c:211
  100939:	a1 7c e3 10 00       	mov    0x10e37c,%eax
  10093e:	a3 78 e3 10 00       	mov    %eax,0x10e378
/u/s/h/shirui/private/cs537/p3a/p3/xv6-sp20/kernel/console.c:212
  100943:	83 ec 0c             	sub    $0xc,%esp
  100946:	68 74 e3 10 00       	push   $0x10e374
  10094b:	e8 22 3d 00 00       	call   104672 <wakeup>
  100950:	83 c4 10             	add    $0x10,%esp
/u/s/h/shirui/private/cs537/p3a/p3/xv6-sp20/kernel/console.c:215
  100953:	90                   	nop
/u/s/h/shirui/private/cs537/p3a/p3/xv6-sp20/kernel/console.c:187
  100954:	8b 45 08             	mov    0x8(%ebp),%eax
  100957:	ff d0                	call   *%eax
  100959:	89 45 f4             	mov    %eax,-0xc(%ebp)
  10095c:	83 7d f4 00          	cmpl   $0x0,-0xc(%ebp)
  100960:	0f 89 ac fe ff ff    	jns    100812 <consoleintr+0x1b>
/u/s/h/shirui/private/cs537/p3a/p3/xv6-sp20/kernel/console.c:218
  100966:	83 ec 0c             	sub    $0xc,%esp
  100969:	68 c0 e2 10 00       	push   $0x10e2c0
  10096e:	e8 74 3f 00 00       	call   1048e7 <release>
  100973:	83 c4 10             	add    $0x10,%esp
/u/s/h/shirui/private/cs537/p3a/p3/xv6-sp20/kernel/console.c:219
  100976:	90                   	nop
  100977:	c9                   	leave  
  100978:	c3                   	ret    

00100979 <consoleread>:
consoleread():
/u/s/h/shirui/private/cs537/p3a/p3/xv6-sp20/kernel/console.c:223
  100979:	55                   	push   %ebp
  10097a:	89 e5                	mov    %esp,%ebp
  10097c:	83 ec 18             	sub    $0x18,%esp
/u/s/h/shirui/private/cs537/p3a/p3/xv6-sp20/kernel/console.c:227
  10097f:	83 ec 0c             	sub    $0xc,%esp
  100982:	ff 75 08             	pushl  0x8(%ebp)
  100985:	e8 1d 10 00 00       	call   1019a7 <iunlock>
  10098a:	83 c4 10             	add    $0x10,%esp
/u/s/h/shirui/private/cs537/p3a/p3/xv6-sp20/kernel/console.c:228
  10098d:	8b 45 10             	mov    0x10(%ebp),%eax
  100990:	89 45 f4             	mov    %eax,-0xc(%ebp)
/u/s/h/shirui/private/cs537/p3a/p3/xv6-sp20/kernel/console.c:229
  100993:	83 ec 0c             	sub    $0xc,%esp
  100996:	68 c0 e2 10 00       	push   $0x10e2c0
  10099b:	e8 e0 3e 00 00       	call   104880 <acquire>
  1009a0:	83 c4 10             	add    $0x10,%esp
/u/s/h/shirui/private/cs537/p3a/p3/xv6-sp20/kernel/console.c:230
  1009a3:	e9 ac 00 00 00       	jmp    100a54 <consoleread+0xdb>
/u/s/h/shirui/private/cs537/p3a/p3/xv6-sp20/kernel/console.c:232
  1009a8:	65 a1 04 00 00 00    	mov    %gs:0x4,%eax
  1009ae:	8b 40 24             	mov    0x24(%eax),%eax
  1009b1:	85 c0                	test   %eax,%eax
  1009b3:	74 28                	je     1009dd <consoleread+0x64>
/u/s/h/shirui/private/cs537/p3a/p3/xv6-sp20/kernel/console.c:233
  1009b5:	83 ec 0c             	sub    $0xc,%esp
  1009b8:	68 c0 e2 10 00       	push   $0x10e2c0
  1009bd:	e8 25 3f 00 00       	call   1048e7 <release>
  1009c2:	83 c4 10             	add    $0x10,%esp
/u/s/h/shirui/private/cs537/p3a/p3/xv6-sp20/kernel/console.c:234
  1009c5:	83 ec 0c             	sub    $0xc,%esp
  1009c8:	ff 75 08             	pushl  0x8(%ebp)
  1009cb:	e8 7f 0e 00 00       	call   10184f <ilock>
  1009d0:	83 c4 10             	add    $0x10,%esp
/u/s/h/shirui/private/cs537/p3a/p3/xv6-sp20/kernel/console.c:235
  1009d3:	b8 ff ff ff ff       	mov    $0xffffffff,%eax
  1009d8:	e9 ab 00 00 00       	jmp    100a88 <consoleread+0x10f>
/u/s/h/shirui/private/cs537/p3a/p3/xv6-sp20/kernel/console.c:237
  1009dd:	83 ec 08             	sub    $0x8,%esp
  1009e0:	68 c0 e2 10 00       	push   $0x10e2c0
  1009e5:	68 74 e3 10 00       	push   $0x10e374
  1009ea:	e8 98 3b 00 00       	call   104587 <sleep>
  1009ef:	83 c4 10             	add    $0x10,%esp
/u/s/h/shirui/private/cs537/p3a/p3/xv6-sp20/kernel/console.c:231
  1009f2:	8b 15 74 e3 10 00    	mov    0x10e374,%edx
  1009f8:	a1 78 e3 10 00       	mov    0x10e378,%eax
  1009fd:	39 c2                	cmp    %eax,%edx
  1009ff:	74 a7                	je     1009a8 <consoleread+0x2f>
/u/s/h/shirui/private/cs537/p3a/p3/xv6-sp20/kernel/console.c:239
  100a01:	a1 74 e3 10 00       	mov    0x10e374,%eax
  100a06:	8d 50 01             	lea    0x1(%eax),%edx
  100a09:	89 15 74 e3 10 00    	mov    %edx,0x10e374
  100a0f:	83 e0 7f             	and    $0x7f,%eax
  100a12:	0f b6 80 f4 e2 10 00 	movzbl 0x10e2f4(%eax),%eax
  100a19:	0f be c0             	movsbl %al,%eax
  100a1c:	89 45 f0             	mov    %eax,-0x10(%ebp)
/u/s/h/shirui/private/cs537/p3a/p3/xv6-sp20/kernel/console.c:240
  100a1f:	83 7d f0 04          	cmpl   $0x4,-0x10(%ebp)
  100a23:	75 17                	jne    100a3c <consoleread+0xc3>
/u/s/h/shirui/private/cs537/p3a/p3/xv6-sp20/kernel/console.c:241
  100a25:	8b 45 10             	mov    0x10(%ebp),%eax
  100a28:	39 45 f4             	cmp    %eax,-0xc(%ebp)
  100a2b:	76 2f                	jbe    100a5c <consoleread+0xe3>
/u/s/h/shirui/private/cs537/p3a/p3/xv6-sp20/kernel/console.c:244
  100a2d:	a1 74 e3 10 00       	mov    0x10e374,%eax
  100a32:	83 e8 01             	sub    $0x1,%eax
  100a35:	a3 74 e3 10 00       	mov    %eax,0x10e374
/u/s/h/shirui/private/cs537/p3a/p3/xv6-sp20/kernel/console.c:246
  100a3a:	eb 20                	jmp    100a5c <consoleread+0xe3>
/u/s/h/shirui/private/cs537/p3a/p3/xv6-sp20/kernel/console.c:248
  100a3c:	8b 45 0c             	mov    0xc(%ebp),%eax
  100a3f:	8d 50 01             	lea    0x1(%eax),%edx
  100a42:	89 55 0c             	mov    %edx,0xc(%ebp)
  100a45:	8b 55 f0             	mov    -0x10(%ebp),%edx
  100a48:	88 10                	mov    %dl,(%eax)
/u/s/h/shirui/private/cs537/p3a/p3/xv6-sp20/kernel/console.c:249
  100a4a:	83 6d 10 01          	subl   $0x1,0x10(%ebp)
/u/s/h/shirui/private/cs537/p3a/p3/xv6-sp20/kernel/console.c:250
  100a4e:	83 7d f0 0a          	cmpl   $0xa,-0x10(%ebp)
  100a52:	74 0b                	je     100a5f <consoleread+0xe6>
/u/s/h/shirui/private/cs537/p3a/p3/xv6-sp20/kernel/console.c:230
  100a54:	83 7d 10 00          	cmpl   $0x0,0x10(%ebp)
  100a58:	7f 98                	jg     1009f2 <consoleread+0x79>
  100a5a:	eb 04                	jmp    100a60 <consoleread+0xe7>
/u/s/h/shirui/private/cs537/p3a/p3/xv6-sp20/kernel/console.c:246
  100a5c:	90                   	nop
  100a5d:	eb 01                	jmp    100a60 <consoleread+0xe7>
/u/s/h/shirui/private/cs537/p3a/p3/xv6-sp20/kernel/console.c:251
  100a5f:	90                   	nop
/u/s/h/shirui/private/cs537/p3a/p3/xv6-sp20/kernel/console.c:253
  100a60:	83 ec 0c             	sub    $0xc,%esp
  100a63:	68 c0 e2 10 00       	push   $0x10e2c0
  100a68:	e8 7a 3e 00 00       	call   1048e7 <release>
  100a6d:	83 c4 10             	add    $0x10,%esp
/u/s/h/shirui/private/cs537/p3a/p3/xv6-sp20/kernel/console.c:254
  100a70:	83 ec 0c             	sub    $0xc,%esp
  100a73:	ff 75 08             	pushl  0x8(%ebp)
  100a76:	e8 d4 0d 00 00       	call   10184f <ilock>
  100a7b:	83 c4 10             	add    $0x10,%esp
/u/s/h/shirui/private/cs537/p3a/p3/xv6-sp20/kernel/console.c:256
  100a7e:	8b 45 10             	mov    0x10(%ebp),%eax
  100a81:	8b 55 f4             	mov    -0xc(%ebp),%edx
  100a84:	29 c2                	sub    %eax,%edx
  100a86:	89 d0                	mov    %edx,%eax
/u/s/h/shirui/private/cs537/p3a/p3/xv6-sp20/kernel/console.c:257
  100a88:	c9                   	leave  
  100a89:	c3                   	ret    

00100a8a <consolewrite>:
consolewrite():
/u/s/h/shirui/private/cs537/p3a/p3/xv6-sp20/kernel/console.c:261
  100a8a:	55                   	push   %ebp
  100a8b:	89 e5                	mov    %esp,%ebp
  100a8d:	83 ec 18             	sub    $0x18,%esp
/u/s/h/shirui/private/cs537/p3a/p3/xv6-sp20/kernel/console.c:264
  100a90:	83 ec 0c             	sub    $0xc,%esp
  100a93:	ff 75 08             	pushl  0x8(%ebp)
  100a96:	e8 0c 0f 00 00       	call   1019a7 <iunlock>
  100a9b:	83 c4 10             	add    $0x10,%esp
/u/s/h/shirui/private/cs537/p3a/p3/xv6-sp20/kernel/console.c:265
  100a9e:	83 ec 0c             	sub    $0xc,%esp
  100aa1:	68 e0 ba 10 00       	push   $0x10bae0
  100aa6:	e8 d5 3d 00 00       	call   104880 <acquire>
  100aab:	83 c4 10             	add    $0x10,%esp
/u/s/h/shirui/private/cs537/p3a/p3/xv6-sp20/kernel/console.c:266
  100aae:	c7 45 f4 00 00 00 00 	movl   $0x0,-0xc(%ebp)
  100ab5:	eb 21                	jmp    100ad8 <consolewrite+0x4e>
/u/s/h/shirui/private/cs537/p3a/p3/xv6-sp20/kernel/console.c:267 (discriminator 3)
  100ab7:	8b 55 f4             	mov    -0xc(%ebp),%edx
  100aba:	8b 45 0c             	mov    0xc(%ebp),%eax
  100abd:	01 d0                	add    %edx,%eax
  100abf:	0f b6 00             	movzbl (%eax),%eax
  100ac2:	0f be c0             	movsbl %al,%eax
  100ac5:	0f b6 c0             	movzbl %al,%eax
  100ac8:	83 ec 0c             	sub    $0xc,%esp
  100acb:	50                   	push   %eax
  100acc:	e8 bf fc ff ff       	call   100790 <consputc>
  100ad1:	83 c4 10             	add    $0x10,%esp
/u/s/h/shirui/private/cs537/p3a/p3/xv6-sp20/kernel/console.c:266 (discriminator 3)
  100ad4:	83 45 f4 01          	addl   $0x1,-0xc(%ebp)
/u/s/h/shirui/private/cs537/p3a/p3/xv6-sp20/kernel/console.c:266 (discriminator 1)
  100ad8:	8b 45 f4             	mov    -0xc(%ebp),%eax
  100adb:	3b 45 10             	cmp    0x10(%ebp),%eax
  100ade:	7c d7                	jl     100ab7 <consolewrite+0x2d>
/u/s/h/shirui/private/cs537/p3a/p3/xv6-sp20/kernel/console.c:268
  100ae0:	83 ec 0c             	sub    $0xc,%esp
  100ae3:	68 e0 ba 10 00       	push   $0x10bae0
  100ae8:	e8 fa 3d 00 00       	call   1048e7 <release>
  100aed:	83 c4 10             	add    $0x10,%esp
/u/s/h/shirui/private/cs537/p3a/p3/xv6-sp20/kernel/console.c:269
  100af0:	83 ec 0c             	sub    $0xc,%esp
  100af3:	ff 75 08             	pushl  0x8(%ebp)
  100af6:	e8 54 0d 00 00       	call   10184f <ilock>
  100afb:	83 c4 10             	add    $0x10,%esp
/u/s/h/shirui/private/cs537/p3a/p3/xv6-sp20/kernel/console.c:271
  100afe:	8b 45 10             	mov    0x10(%ebp),%eax
/u/s/h/shirui/private/cs537/p3a/p3/xv6-sp20/kernel/console.c:272
  100b01:	c9                   	leave  
  100b02:	c3                   	ret    

00100b03 <consoleinit>:
consoleinit():
/u/s/h/shirui/private/cs537/p3a/p3/xv6-sp20/kernel/console.c:276
  100b03:	55                   	push   %ebp
  100b04:	89 e5                	mov    %esp,%ebp
  100b06:	83 ec 08             	sub    $0x8,%esp
/u/s/h/shirui/private/cs537/p3a/p3/xv6-sp20/kernel/console.c:277
  100b09:	83 ec 08             	sub    $0x8,%esp
  100b0c:	68 5a 7f 10 00       	push   $0x107f5a
  100b11:	68 e0 ba 10 00       	push   $0x10bae0
  100b16:	e8 43 3d 00 00       	call   10485e <initlock>
  100b1b:	83 c4 10             	add    $0x10,%esp
/u/s/h/shirui/private/cs537/p3a/p3/xv6-sp20/kernel/console.c:278
  100b1e:	83 ec 08             	sub    $0x8,%esp
  100b21:	68 62 7f 10 00       	push   $0x107f62
  100b26:	68 c0 e2 10 00       	push   $0x10e2c0
  100b2b:	e8 2e 3d 00 00       	call   10485e <initlock>
  100b30:	83 c4 10             	add    $0x10,%esp
/u/s/h/shirui/private/cs537/p3a/p3/xv6-sp20/kernel/console.c:280
  100b33:	c7 05 2c ed 10 00 8a 	movl   $0x100a8a,0x10ed2c
  100b3a:	0a 10 00 
/u/s/h/shirui/private/cs537/p3a/p3/xv6-sp20/kernel/console.c:281
  100b3d:	c7 05 28 ed 10 00 79 	movl   $0x100979,0x10ed28
  100b44:	09 10 00 
/u/s/h/shirui/private/cs537/p3a/p3/xv6-sp20/kernel/console.c:282
  100b47:	c7 05 14 bb 10 00 01 	movl   $0x1,0x10bb14
  100b4e:	00 00 00 
/u/s/h/shirui/private/cs537/p3a/p3/xv6-sp20/kernel/console.c:284
  100b51:	83 ec 0c             	sub    $0xc,%esp
  100b54:	6a 01                	push   $0x1
  100b56:	e8 83 2c 00 00       	call   1037de <picenable>
  100b5b:	83 c4 10             	add    $0x10,%esp
/u/s/h/shirui/private/cs537/p3a/p3/xv6-sp20/kernel/console.c:285
  100b5e:	83 ec 08             	sub    $0x8,%esp
  100b61:	6a 00                	push   $0x0
  100b63:	6a 01                	push   $0x1
  100b65:	e8 71 1e 00 00       	call   1029db <ioapicenable>
  100b6a:	83 c4 10             	add    $0x10,%esp
/u/s/h/shirui/private/cs537/p3a/p3/xv6-sp20/kernel/console.c:286
  100b6d:	90                   	nop
  100b6e:	c9                   	leave  
  100b6f:	c3                   	ret    

00100b70 <exec>:
exec():
/u/s/h/shirui/private/cs537/p3a/p3/xv6-sp20/kernel/exec.c:11
  100b70:	55                   	push   %ebp
  100b71:	89 e5                	mov    %esp,%ebp
  100b73:	81 ec 18 01 00 00    	sub    $0x118,%esp
/u/s/h/shirui/private/cs537/p3a/p3/xv6-sp20/kernel/exec.c:20
  100b79:	83 ec 0c             	sub    $0xc,%esp
  100b7c:	ff 75 08             	pushl  0x8(%ebp)
  100b7f:	e8 e1 18 00 00       	call   102465 <namei>
  100b84:	83 c4 10             	add    $0x10,%esp
  100b87:	89 45 d8             	mov    %eax,-0x28(%ebp)
  100b8a:	83 7d d8 00          	cmpl   $0x0,-0x28(%ebp)
  100b8e:	75 0a                	jne    100b9a <exec+0x2a>
/u/s/h/shirui/private/cs537/p3a/p3/xv6-sp20/kernel/exec.c:21
  100b90:	b8 ff ff ff ff       	mov    $0xffffffff,%eax
  100b95:	e9 a7 03 00 00       	jmp    100f41 <exec+0x3d1>
/u/s/h/shirui/private/cs537/p3a/p3/xv6-sp20/kernel/exec.c:22
  100b9a:	83 ec 0c             	sub    $0xc,%esp
  100b9d:	ff 75 d8             	pushl  -0x28(%ebp)
  100ba0:	e8 aa 0c 00 00       	call   10184f <ilock>
  100ba5:	83 c4 10             	add    $0x10,%esp
/u/s/h/shirui/private/cs537/p3a/p3/xv6-sp20/kernel/exec.c:23
  100ba8:	c7 45 d4 00 00 00 00 	movl   $0x0,-0x2c(%ebp)
/u/s/h/shirui/private/cs537/p3a/p3/xv6-sp20/kernel/exec.c:26
  100baf:	6a 34                	push   $0x34
  100bb1:	6a 00                	push   $0x0
  100bb3:	8d 85 0c ff ff ff    	lea    -0xf4(%ebp),%eax
  100bb9:	50                   	push   %eax
  100bba:	ff 75 d8             	pushl  -0x28(%ebp)
  100bbd:	e8 f0 11 00 00       	call   101db2 <readi>
  100bc2:	83 c4 10             	add    $0x10,%esp
  100bc5:	83 f8 33             	cmp    $0x33,%eax
  100bc8:	0f 86 27 03 00 00    	jbe    100ef5 <exec+0x385>
/u/s/h/shirui/private/cs537/p3a/p3/xv6-sp20/kernel/exec.c:28
  100bce:	8b 85 0c ff ff ff    	mov    -0xf4(%ebp),%eax
  100bd4:	3d 7f 45 4c 46       	cmp    $0x464c457f,%eax
  100bd9:	0f 85 19 03 00 00    	jne    100ef8 <exec+0x388>
/u/s/h/shirui/private/cs537/p3a/p3/xv6-sp20/kernel/exec.c:31
  100bdf:	e8 f4 6b 00 00       	call   1077d8 <setupkvm>
  100be4:	89 45 d4             	mov    %eax,-0x2c(%ebp)
  100be7:	83 7d d4 00          	cmpl   $0x0,-0x2c(%ebp)
  100beb:	0f 84 0a 03 00 00    	je     100efb <exec+0x38b>
/u/s/h/shirui/private/cs537/p3a/p3/xv6-sp20/kernel/exec.c:35
  100bf1:	c7 45 e0 00 00 00 00 	movl   $0x0,-0x20(%ebp)
/u/s/h/shirui/private/cs537/p3a/p3/xv6-sp20/kernel/exec.c:36
  100bf8:	c7 45 ec 00 00 00 00 	movl   $0x0,-0x14(%ebp)
  100bff:	8b 85 28 ff ff ff    	mov    -0xd8(%ebp),%eax
  100c05:	89 45 e8             	mov    %eax,-0x18(%ebp)
  100c08:	e9 ab 00 00 00       	jmp    100cb8 <exec+0x148>
/u/s/h/shirui/private/cs537/p3a/p3/xv6-sp20/kernel/exec.c:37
  100c0d:	8b 45 e8             	mov    -0x18(%ebp),%eax
  100c10:	6a 20                	push   $0x20
  100c12:	50                   	push   %eax
  100c13:	8d 85 ec fe ff ff    	lea    -0x114(%ebp),%eax
  100c19:	50                   	push   %eax
  100c1a:	ff 75 d8             	pushl  -0x28(%ebp)
  100c1d:	e8 90 11 00 00       	call   101db2 <readi>
  100c22:	83 c4 10             	add    $0x10,%esp
  100c25:	83 f8 20             	cmp    $0x20,%eax
  100c28:	0f 85 d0 02 00 00    	jne    100efe <exec+0x38e>
/u/s/h/shirui/private/cs537/p3a/p3/xv6-sp20/kernel/exec.c:39
  100c2e:	8b 85 ec fe ff ff    	mov    -0x114(%ebp),%eax
  100c34:	83 f8 01             	cmp    $0x1,%eax
  100c37:	75 71                	jne    100caa <exec+0x13a>
/u/s/h/shirui/private/cs537/p3a/p3/xv6-sp20/kernel/exec.c:41
  100c39:	8b 95 00 ff ff ff    	mov    -0x100(%ebp),%edx
  100c3f:	8b 85 fc fe ff ff    	mov    -0x104(%ebp),%eax
  100c45:	39 c2                	cmp    %eax,%edx
  100c47:	0f 82 b4 02 00 00    	jb     100f01 <exec+0x391>
/u/s/h/shirui/private/cs537/p3a/p3/xv6-sp20/kernel/exec.c:43
  100c4d:	8b 95 f4 fe ff ff    	mov    -0x10c(%ebp),%edx
  100c53:	8b 85 00 ff ff ff    	mov    -0x100(%ebp),%eax
  100c59:	01 d0                	add    %edx,%eax
  100c5b:	83 ec 04             	sub    $0x4,%esp
  100c5e:	50                   	push   %eax
  100c5f:	ff 75 e0             	pushl  -0x20(%ebp)
  100c62:	ff 75 d4             	pushl  -0x2c(%ebp)
  100c65:	e8 df 6e 00 00       	call   107b49 <allocuvm>
  100c6a:	83 c4 10             	add    $0x10,%esp
  100c6d:	89 45 e0             	mov    %eax,-0x20(%ebp)
  100c70:	83 7d e0 00          	cmpl   $0x0,-0x20(%ebp)
  100c74:	0f 84 8a 02 00 00    	je     100f04 <exec+0x394>
/u/s/h/shirui/private/cs537/p3a/p3/xv6-sp20/kernel/exec.c:45
  100c7a:	8b 95 fc fe ff ff    	mov    -0x104(%ebp),%edx
  100c80:	8b 85 f0 fe ff ff    	mov    -0x110(%ebp),%eax
  100c86:	8b 8d f4 fe ff ff    	mov    -0x10c(%ebp),%ecx
  100c8c:	83 ec 0c             	sub    $0xc,%esp
  100c8f:	52                   	push   %edx
  100c90:	50                   	push   %eax
  100c91:	ff 75 d8             	pushl  -0x28(%ebp)
  100c94:	51                   	push   %ecx
  100c95:	ff 75 d4             	pushl  -0x2c(%ebp)
  100c98:	e8 e5 6d 00 00       	call   107a82 <loaduvm>
  100c9d:	83 c4 20             	add    $0x20,%esp
  100ca0:	85 c0                	test   %eax,%eax
  100ca2:	0f 88 5f 02 00 00    	js     100f07 <exec+0x397>
  100ca8:	eb 01                	jmp    100cab <exec+0x13b>
/u/s/h/shirui/private/cs537/p3a/p3/xv6-sp20/kernel/exec.c:40
  100caa:	90                   	nop
/u/s/h/shirui/private/cs537/p3a/p3/xv6-sp20/kernel/exec.c:36 (discriminator 2)
  100cab:	83 45 ec 01          	addl   $0x1,-0x14(%ebp)
  100caf:	8b 45 e8             	mov    -0x18(%ebp),%eax
  100cb2:	83 c0 20             	add    $0x20,%eax
  100cb5:	89 45 e8             	mov    %eax,-0x18(%ebp)
/u/s/h/shirui/private/cs537/p3a/p3/xv6-sp20/kernel/exec.c:36 (discriminator 1)
  100cb8:	0f b7 85 38 ff ff ff 	movzwl -0xc8(%ebp),%eax
  100cbf:	0f b7 c0             	movzwl %ax,%eax
  100cc2:	39 45 ec             	cmp    %eax,-0x14(%ebp)
  100cc5:	0f 8c 42 ff ff ff    	jl     100c0d <exec+0x9d>
/u/s/h/shirui/private/cs537/p3a/p3/xv6-sp20/kernel/exec.c:48
  100ccb:	83 ec 0c             	sub    $0xc,%esp
  100cce:	ff 75 d8             	pushl  -0x28(%ebp)
  100cd1:	e8 33 0e 00 00       	call   101b09 <iunlockput>
  100cd6:	83 c4 10             	add    $0x10,%esp
/u/s/h/shirui/private/cs537/p3a/p3/xv6-sp20/kernel/exec.c:49
  100cd9:	c7 45 d8 00 00 00 00 	movl   $0x0,-0x28(%ebp)
/u/s/h/shirui/private/cs537/p3a/p3/xv6-sp20/kernel/exec.c:52
  100ce0:	8b 45 e0             	mov    -0x20(%ebp),%eax
  100ce3:	05 ff 0f 00 00       	add    $0xfff,%eax
  100ce8:	25 00 f0 ff ff       	and    $0xfffff000,%eax
  100ced:	89 45 e0             	mov    %eax,-0x20(%ebp)
/u/s/h/shirui/private/cs537/p3a/p3/xv6-sp20/kernel/exec.c:53
  100cf0:	8b 45 e0             	mov    -0x20(%ebp),%eax
  100cf3:	05 00 10 00 00       	add    $0x1000,%eax
  100cf8:	83 ec 04             	sub    $0x4,%esp
  100cfb:	50                   	push   %eax
  100cfc:	ff 75 e0             	pushl  -0x20(%ebp)
  100cff:	ff 75 d4             	pushl  -0x2c(%ebp)
  100d02:	e8 42 6e 00 00       	call   107b49 <allocuvm>
  100d07:	83 c4 10             	add    $0x10,%esp
  100d0a:	89 45 e0             	mov    %eax,-0x20(%ebp)
  100d0d:	83 7d e0 00          	cmpl   $0x0,-0x20(%ebp)
  100d11:	0f 84 f3 01 00 00    	je     100f0a <exec+0x39a>
/u/s/h/shirui/private/cs537/p3a/p3/xv6-sp20/kernel/exec.c:57
  100d17:	8b 45 e0             	mov    -0x20(%ebp),%eax
  100d1a:	89 45 dc             	mov    %eax,-0x24(%ebp)
/u/s/h/shirui/private/cs537/p3a/p3/xv6-sp20/kernel/exec.c:58
  100d1d:	c7 45 e4 00 00 00 00 	movl   $0x0,-0x1c(%ebp)
  100d24:	e9 90 00 00 00       	jmp    100db9 <exec+0x249>
/u/s/h/shirui/private/cs537/p3a/p3/xv6-sp20/kernel/exec.c:59
  100d29:	83 7d e4 1f          	cmpl   $0x1f,-0x1c(%ebp)
  100d2d:	0f 87 da 01 00 00    	ja     100f0d <exec+0x39d>
/u/s/h/shirui/private/cs537/p3a/p3/xv6-sp20/kernel/exec.c:61
  100d33:	8b 45 e4             	mov    -0x1c(%ebp),%eax
  100d36:	8d 14 85 00 00 00 00 	lea    0x0(,%eax,4),%edx
  100d3d:	8b 45 0c             	mov    0xc(%ebp),%eax
  100d40:	01 d0                	add    %edx,%eax
  100d42:	8b 00                	mov    (%eax),%eax
  100d44:	83 ec 0c             	sub    $0xc,%esp
  100d47:	50                   	push   %eax
  100d48:	e8 70 3f 00 00       	call   104cbd <strlen>
  100d4d:	83 c4 10             	add    $0x10,%esp
  100d50:	83 c0 01             	add    $0x1,%eax
  100d53:	29 45 dc             	sub    %eax,-0x24(%ebp)
/u/s/h/shirui/private/cs537/p3a/p3/xv6-sp20/kernel/exec.c:62
  100d56:	83 65 dc fc          	andl   $0xfffffffc,-0x24(%ebp)
/u/s/h/shirui/private/cs537/p3a/p3/xv6-sp20/kernel/exec.c:63
  100d5a:	8b 45 e4             	mov    -0x1c(%ebp),%eax
  100d5d:	8d 14 85 00 00 00 00 	lea    0x0(,%eax,4),%edx
  100d64:	8b 45 0c             	mov    0xc(%ebp),%eax
  100d67:	01 d0                	add    %edx,%eax
  100d69:	8b 00                	mov    (%eax),%eax
  100d6b:	83 ec 0c             	sub    $0xc,%esp
  100d6e:	50                   	push   %eax
  100d6f:	e8 49 3f 00 00       	call   104cbd <strlen>
  100d74:	83 c4 10             	add    $0x10,%esp
  100d77:	83 c0 01             	add    $0x1,%eax
  100d7a:	89 c1                	mov    %eax,%ecx
  100d7c:	8b 45 e4             	mov    -0x1c(%ebp),%eax
  100d7f:	8d 14 85 00 00 00 00 	lea    0x0(,%eax,4),%edx
  100d86:	8b 45 0c             	mov    0xc(%ebp),%eax
  100d89:	01 d0                	add    %edx,%eax
  100d8b:	8b 00                	mov    (%eax),%eax
  100d8d:	51                   	push   %ecx
  100d8e:	50                   	push   %eax
  100d8f:	ff 75 dc             	pushl  -0x24(%ebp)
  100d92:	ff 75 d4             	pushl  -0x2c(%ebp)
  100d95:	e8 e0 70 00 00       	call   107e7a <copyout>
  100d9a:	83 c4 10             	add    $0x10,%esp
  100d9d:	85 c0                	test   %eax,%eax
  100d9f:	0f 88 6b 01 00 00    	js     100f10 <exec+0x3a0>
/u/s/h/shirui/private/cs537/p3a/p3/xv6-sp20/kernel/exec.c:65 (discriminator 2)
  100da5:	8b 45 e4             	mov    -0x1c(%ebp),%eax
  100da8:	8d 50 03             	lea    0x3(%eax),%edx
  100dab:	8b 45 dc             	mov    -0x24(%ebp),%eax
  100dae:	89 84 95 40 ff ff ff 	mov    %eax,-0xc0(%ebp,%edx,4)
/u/s/h/shirui/private/cs537/p3a/p3/xv6-sp20/kernel/exec.c:58 (discriminator 2)
  100db5:	83 45 e4 01          	addl   $0x1,-0x1c(%ebp)
/u/s/h/shirui/private/cs537/p3a/p3/xv6-sp20/kernel/exec.c:58 (discriminator 1)
  100db9:	8b 45 e4             	mov    -0x1c(%ebp),%eax
  100dbc:	8d 14 85 00 00 00 00 	lea    0x0(,%eax,4),%edx
  100dc3:	8b 45 0c             	mov    0xc(%ebp),%eax
  100dc6:	01 d0                	add    %edx,%eax
  100dc8:	8b 00                	mov    (%eax),%eax
  100dca:	85 c0                	test   %eax,%eax
  100dcc:	0f 85 57 ff ff ff    	jne    100d29 <exec+0x1b9>
/u/s/h/shirui/private/cs537/p3a/p3/xv6-sp20/kernel/exec.c:67
  100dd2:	8b 45 e4             	mov    -0x1c(%ebp),%eax
  100dd5:	83 c0 03             	add    $0x3,%eax
  100dd8:	c7 84 85 40 ff ff ff 	movl   $0x0,-0xc0(%ebp,%eax,4)
  100ddf:	00 00 00 00 
/u/s/h/shirui/private/cs537/p3a/p3/xv6-sp20/kernel/exec.c:69
  100de3:	c7 85 40 ff ff ff ff 	movl   $0xffffffff,-0xc0(%ebp)
  100dea:	ff ff ff 
/u/s/h/shirui/private/cs537/p3a/p3/xv6-sp20/kernel/exec.c:70
  100ded:	8b 45 e4             	mov    -0x1c(%ebp),%eax
  100df0:	89 85 44 ff ff ff    	mov    %eax,-0xbc(%ebp)
/u/s/h/shirui/private/cs537/p3a/p3/xv6-sp20/kernel/exec.c:71
  100df6:	8b 45 e4             	mov    -0x1c(%ebp),%eax
  100df9:	83 c0 01             	add    $0x1,%eax
  100dfc:	8d 14 85 00 00 00 00 	lea    0x0(,%eax,4),%edx
  100e03:	8b 45 dc             	mov    -0x24(%ebp),%eax
  100e06:	29 d0                	sub    %edx,%eax
  100e08:	89 85 48 ff ff ff    	mov    %eax,-0xb8(%ebp)
/u/s/h/shirui/private/cs537/p3a/p3/xv6-sp20/kernel/exec.c:73
  100e0e:	8b 45 e4             	mov    -0x1c(%ebp),%eax
  100e11:	83 c0 04             	add    $0x4,%eax
  100e14:	c1 e0 02             	shl    $0x2,%eax
  100e17:	29 45 dc             	sub    %eax,-0x24(%ebp)
/u/s/h/shirui/private/cs537/p3a/p3/xv6-sp20/kernel/exec.c:74
  100e1a:	8b 45 e4             	mov    -0x1c(%ebp),%eax
  100e1d:	83 c0 04             	add    $0x4,%eax
  100e20:	c1 e0 02             	shl    $0x2,%eax
  100e23:	50                   	push   %eax
  100e24:	8d 85 40 ff ff ff    	lea    -0xc0(%ebp),%eax
  100e2a:	50                   	push   %eax
  100e2b:	ff 75 dc             	pushl  -0x24(%ebp)
  100e2e:	ff 75 d4             	pushl  -0x2c(%ebp)
  100e31:	e8 44 70 00 00       	call   107e7a <copyout>
  100e36:	83 c4 10             	add    $0x10,%esp
  100e39:	85 c0                	test   %eax,%eax
  100e3b:	0f 88 d2 00 00 00    	js     100f13 <exec+0x3a3>
/u/s/h/shirui/private/cs537/p3a/p3/xv6-sp20/kernel/exec.c:78
  100e41:	8b 45 08             	mov    0x8(%ebp),%eax
  100e44:	89 45 f4             	mov    %eax,-0xc(%ebp)
  100e47:	8b 45 f4             	mov    -0xc(%ebp),%eax
  100e4a:	89 45 f0             	mov    %eax,-0x10(%ebp)
  100e4d:	eb 17                	jmp    100e66 <exec+0x2f6>
/u/s/h/shirui/private/cs537/p3a/p3/xv6-sp20/kernel/exec.c:79
  100e4f:	8b 45 f4             	mov    -0xc(%ebp),%eax
  100e52:	0f b6 00             	movzbl (%eax),%eax
  100e55:	3c 2f                	cmp    $0x2f,%al
  100e57:	75 09                	jne    100e62 <exec+0x2f2>
/u/s/h/shirui/private/cs537/p3a/p3/xv6-sp20/kernel/exec.c:80
  100e59:	8b 45 f4             	mov    -0xc(%ebp),%eax
  100e5c:	83 c0 01             	add    $0x1,%eax
  100e5f:	89 45 f0             	mov    %eax,-0x10(%ebp)
/u/s/h/shirui/private/cs537/p3a/p3/xv6-sp20/kernel/exec.c:78 (discriminator 2)
  100e62:	83 45 f4 01          	addl   $0x1,-0xc(%ebp)
/u/s/h/shirui/private/cs537/p3a/p3/xv6-sp20/kernel/exec.c:78 (discriminator 1)
  100e66:	8b 45 f4             	mov    -0xc(%ebp),%eax
  100e69:	0f b6 00             	movzbl (%eax),%eax
  100e6c:	84 c0                	test   %al,%al
  100e6e:	75 df                	jne    100e4f <exec+0x2df>
/u/s/h/shirui/private/cs537/p3a/p3/xv6-sp20/kernel/exec.c:81
  100e70:	65 a1 04 00 00 00    	mov    %gs:0x4,%eax
  100e76:	83 c0 6c             	add    $0x6c,%eax
  100e79:	83 ec 04             	sub    $0x4,%esp
  100e7c:	6a 10                	push   $0x10
  100e7e:	ff 75 f0             	pushl  -0x10(%ebp)
  100e81:	50                   	push   %eax
  100e82:	e8 ec 3d 00 00       	call   104c73 <safestrcpy>
  100e87:	83 c4 10             	add    $0x10,%esp
/u/s/h/shirui/private/cs537/p3a/p3/xv6-sp20/kernel/exec.c:84
  100e8a:	65 a1 04 00 00 00    	mov    %gs:0x4,%eax
  100e90:	8b 40 04             	mov    0x4(%eax),%eax
  100e93:	89 45 d0             	mov    %eax,-0x30(%ebp)
/u/s/h/shirui/private/cs537/p3a/p3/xv6-sp20/kernel/exec.c:85
  100e96:	65 a1 04 00 00 00    	mov    %gs:0x4,%eax
  100e9c:	8b 55 d4             	mov    -0x2c(%ebp),%edx
  100e9f:	89 50 04             	mov    %edx,0x4(%eax)
/u/s/h/shirui/private/cs537/p3a/p3/xv6-sp20/kernel/exec.c:86
  100ea2:	65 a1 04 00 00 00    	mov    %gs:0x4,%eax
  100ea8:	8b 55 e0             	mov    -0x20(%ebp),%edx
  100eab:	89 10                	mov    %edx,(%eax)
/u/s/h/shirui/private/cs537/p3a/p3/xv6-sp20/kernel/exec.c:87
  100ead:	65 a1 04 00 00 00    	mov    %gs:0x4,%eax
  100eb3:	8b 40 18             	mov    0x18(%eax),%eax
  100eb6:	8b 95 24 ff ff ff    	mov    -0xdc(%ebp),%edx
  100ebc:	89 50 38             	mov    %edx,0x38(%eax)
/u/s/h/shirui/private/cs537/p3a/p3/xv6-sp20/kernel/exec.c:88
  100ebf:	65 a1 04 00 00 00    	mov    %gs:0x4,%eax
  100ec5:	8b 40 18             	mov    0x18(%eax),%eax
  100ec8:	8b 55 dc             	mov    -0x24(%ebp),%edx
  100ecb:	89 50 44             	mov    %edx,0x44(%eax)
/u/s/h/shirui/private/cs537/p3a/p3/xv6-sp20/kernel/exec.c:89
  100ece:	65 a1 04 00 00 00    	mov    %gs:0x4,%eax
  100ed4:	83 ec 0c             	sub    $0xc,%esp
  100ed7:	50                   	push   %eax
  100ed8:	e8 d2 69 00 00       	call   1078af <switchuvm>
  100edd:	83 c4 10             	add    $0x10,%esp
/u/s/h/shirui/private/cs537/p3a/p3/xv6-sp20/kernel/exec.c:90
  100ee0:	83 ec 0c             	sub    $0xc,%esp
  100ee3:	ff 75 d0             	pushl  -0x30(%ebp)
  100ee6:	e8 b5 6d 00 00       	call   107ca0 <freevm>
  100eeb:	83 c4 10             	add    $0x10,%esp
/u/s/h/shirui/private/cs537/p3a/p3/xv6-sp20/kernel/exec.c:92
  100eee:	b8 00 00 00 00       	mov    $0x0,%eax
  100ef3:	eb 4c                	jmp    100f41 <exec+0x3d1>
/u/s/h/shirui/private/cs537/p3a/p3/xv6-sp20/kernel/exec.c:27
  100ef5:	90                   	nop
  100ef6:	eb 1c                	jmp    100f14 <exec+0x3a4>
/u/s/h/shirui/private/cs537/p3a/p3/xv6-sp20/kernel/exec.c:29
  100ef8:	90                   	nop
  100ef9:	eb 19                	jmp    100f14 <exec+0x3a4>
/u/s/h/shirui/private/cs537/p3a/p3/xv6-sp20/kernel/exec.c:32
  100efb:	90                   	nop
  100efc:	eb 16                	jmp    100f14 <exec+0x3a4>
/u/s/h/shirui/private/cs537/p3a/p3/xv6-sp20/kernel/exec.c:38
  100efe:	90                   	nop
  100eff:	eb 13                	jmp    100f14 <exec+0x3a4>
/u/s/h/shirui/private/cs537/p3a/p3/xv6-sp20/kernel/exec.c:42
  100f01:	90                   	nop
  100f02:	eb 10                	jmp    100f14 <exec+0x3a4>
/u/s/h/shirui/private/cs537/p3a/p3/xv6-sp20/kernel/exec.c:44
  100f04:	90                   	nop
  100f05:	eb 0d                	jmp    100f14 <exec+0x3a4>
/u/s/h/shirui/private/cs537/p3a/p3/xv6-sp20/kernel/exec.c:46
  100f07:	90                   	nop
  100f08:	eb 0a                	jmp    100f14 <exec+0x3a4>
/u/s/h/shirui/private/cs537/p3a/p3/xv6-sp20/kernel/exec.c:54
  100f0a:	90                   	nop
  100f0b:	eb 07                	jmp    100f14 <exec+0x3a4>
/u/s/h/shirui/private/cs537/p3a/p3/xv6-sp20/kernel/exec.c:60
  100f0d:	90                   	nop
  100f0e:	eb 04                	jmp    100f14 <exec+0x3a4>
/u/s/h/shirui/private/cs537/p3a/p3/xv6-sp20/kernel/exec.c:64
  100f10:	90                   	nop
  100f11:	eb 01                	jmp    100f14 <exec+0x3a4>
/u/s/h/shirui/private/cs537/p3a/p3/xv6-sp20/kernel/exec.c:75
  100f13:	90                   	nop
/u/s/h/shirui/private/cs537/p3a/p3/xv6-sp20/kernel/exec.c:95
  100f14:	83 7d d4 00          	cmpl   $0x0,-0x2c(%ebp)
  100f18:	74 0e                	je     100f28 <exec+0x3b8>
/u/s/h/shirui/private/cs537/p3a/p3/xv6-sp20/kernel/exec.c:96
  100f1a:	83 ec 0c             	sub    $0xc,%esp
  100f1d:	ff 75 d4             	pushl  -0x2c(%ebp)
  100f20:	e8 7b 6d 00 00       	call   107ca0 <freevm>
  100f25:	83 c4 10             	add    $0x10,%esp
/u/s/h/shirui/private/cs537/p3a/p3/xv6-sp20/kernel/exec.c:97
  100f28:	83 7d d8 00          	cmpl   $0x0,-0x28(%ebp)
  100f2c:	74 0e                	je     100f3c <exec+0x3cc>
/u/s/h/shirui/private/cs537/p3a/p3/xv6-sp20/kernel/exec.c:98
  100f2e:	83 ec 0c             	sub    $0xc,%esp
  100f31:	ff 75 d8             	pushl  -0x28(%ebp)
  100f34:	e8 d0 0b 00 00       	call   101b09 <iunlockput>
  100f39:	83 c4 10             	add    $0x10,%esp
/u/s/h/shirui/private/cs537/p3a/p3/xv6-sp20/kernel/exec.c:99
  100f3c:	b8 ff ff ff ff       	mov    $0xffffffff,%eax
/u/s/h/shirui/private/cs537/p3a/p3/xv6-sp20/kernel/exec.c:100 (discriminator 1)
  100f41:	c9                   	leave  
  100f42:	c3                   	ret    

00100f43 <fileinit>:
fileinit():
/u/s/h/shirui/private/cs537/p3a/p3/xv6-sp20/kernel/file.c:16
  100f43:	55                   	push   %ebp
  100f44:	89 e5                	mov    %esp,%ebp
  100f46:	83 ec 08             	sub    $0x8,%esp
/u/s/h/shirui/private/cs537/p3a/p3/xv6-sp20/kernel/file.c:17
  100f49:	83 ec 08             	sub    $0x8,%esp
  100f4c:	68 68 7f 10 00       	push   $0x107f68
  100f51:	68 80 e3 10 00       	push   $0x10e380
  100f56:	e8 03 39 00 00       	call   10485e <initlock>
  100f5b:	83 c4 10             	add    $0x10,%esp
/u/s/h/shirui/private/cs537/p3a/p3/xv6-sp20/kernel/file.c:18
  100f5e:	90                   	nop
  100f5f:	c9                   	leave  
  100f60:	c3                   	ret    

00100f61 <filealloc>:
filealloc():
/u/s/h/shirui/private/cs537/p3a/p3/xv6-sp20/kernel/file.c:23
  100f61:	55                   	push   %ebp
  100f62:	89 e5                	mov    %esp,%ebp
  100f64:	83 ec 18             	sub    $0x18,%esp
/u/s/h/shirui/private/cs537/p3a/p3/xv6-sp20/kernel/file.c:26
  100f67:	83 ec 0c             	sub    $0xc,%esp
  100f6a:	68 80 e3 10 00       	push   $0x10e380
  100f6f:	e8 0c 39 00 00       	call   104880 <acquire>
  100f74:	83 c4 10             	add    $0x10,%esp
/u/s/h/shirui/private/cs537/p3a/p3/xv6-sp20/kernel/file.c:27
  100f77:	c7 45 f4 b4 e3 10 00 	movl   $0x10e3b4,-0xc(%ebp)
  100f7e:	eb 2d                	jmp    100fad <filealloc+0x4c>
/u/s/h/shirui/private/cs537/p3a/p3/xv6-sp20/kernel/file.c:28
  100f80:	8b 45 f4             	mov    -0xc(%ebp),%eax
  100f83:	8b 40 04             	mov    0x4(%eax),%eax
  100f86:	85 c0                	test   %eax,%eax
  100f88:	75 1f                	jne    100fa9 <filealloc+0x48>
/u/s/h/shirui/private/cs537/p3a/p3/xv6-sp20/kernel/file.c:29
  100f8a:	8b 45 f4             	mov    -0xc(%ebp),%eax
  100f8d:	c7 40 04 01 00 00 00 	movl   $0x1,0x4(%eax)
/u/s/h/shirui/private/cs537/p3a/p3/xv6-sp20/kernel/file.c:30
  100f94:	83 ec 0c             	sub    $0xc,%esp
  100f97:	68 80 e3 10 00       	push   $0x10e380
  100f9c:	e8 46 39 00 00       	call   1048e7 <release>
  100fa1:	83 c4 10             	add    $0x10,%esp
/u/s/h/shirui/private/cs537/p3a/p3/xv6-sp20/kernel/file.c:31
  100fa4:	8b 45 f4             	mov    -0xc(%ebp),%eax
  100fa7:	eb 23                	jmp    100fcc <filealloc+0x6b>
/u/s/h/shirui/private/cs537/p3a/p3/xv6-sp20/kernel/file.c:27 (discriminator 2)
  100fa9:	83 45 f4 18          	addl   $0x18,-0xc(%ebp)
/u/s/h/shirui/private/cs537/p3a/p3/xv6-sp20/kernel/file.c:27 (discriminator 1)
  100fad:	b8 14 ed 10 00       	mov    $0x10ed14,%eax
  100fb2:	39 45 f4             	cmp    %eax,-0xc(%ebp)
  100fb5:	72 c9                	jb     100f80 <filealloc+0x1f>
/u/s/h/shirui/private/cs537/p3a/p3/xv6-sp20/kernel/file.c:34
  100fb7:	83 ec 0c             	sub    $0xc,%esp
  100fba:	68 80 e3 10 00       	push   $0x10e380
  100fbf:	e8 23 39 00 00       	call   1048e7 <release>
  100fc4:	83 c4 10             	add    $0x10,%esp
/u/s/h/shirui/private/cs537/p3a/p3/xv6-sp20/kernel/file.c:35
  100fc7:	b8 00 00 00 00       	mov    $0x0,%eax
/u/s/h/shirui/private/cs537/p3a/p3/xv6-sp20/kernel/file.c:36
  100fcc:	c9                   	leave  
  100fcd:	c3                   	ret    

00100fce <filedup>:
filedup():
/u/s/h/shirui/private/cs537/p3a/p3/xv6-sp20/kernel/file.c:41
  100fce:	55                   	push   %ebp
  100fcf:	89 e5                	mov    %esp,%ebp
  100fd1:	83 ec 08             	sub    $0x8,%esp
/u/s/h/shirui/private/cs537/p3a/p3/xv6-sp20/kernel/file.c:42
  100fd4:	83 ec 0c             	sub    $0xc,%esp
  100fd7:	68 80 e3 10 00       	push   $0x10e380
  100fdc:	e8 9f 38 00 00       	call   104880 <acquire>
  100fe1:	83 c4 10             	add    $0x10,%esp
/u/s/h/shirui/private/cs537/p3a/p3/xv6-sp20/kernel/file.c:43
  100fe4:	8b 45 08             	mov    0x8(%ebp),%eax
  100fe7:	8b 40 04             	mov    0x4(%eax),%eax
  100fea:	85 c0                	test   %eax,%eax
  100fec:	7f 0d                	jg     100ffb <filedup+0x2d>
/u/s/h/shirui/private/cs537/p3a/p3/xv6-sp20/kernel/file.c:44
  100fee:	83 ec 0c             	sub    $0xc,%esp
  100ff1:	68 6f 7f 10 00       	push   $0x107f6f
  100ff6:	e8 7d f5 ff ff       	call   100578 <panic>
/u/s/h/shirui/private/cs537/p3a/p3/xv6-sp20/kernel/file.c:45
  100ffb:	8b 45 08             	mov    0x8(%ebp),%eax
  100ffe:	8b 40 04             	mov    0x4(%eax),%eax
  101001:	8d 50 01             	lea    0x1(%eax),%edx
  101004:	8b 45 08             	mov    0x8(%ebp),%eax
  101007:	89 50 04             	mov    %edx,0x4(%eax)
/u/s/h/shirui/private/cs537/p3a/p3/xv6-sp20/kernel/file.c:46
  10100a:	83 ec 0c             	sub    $0xc,%esp
  10100d:	68 80 e3 10 00       	push   $0x10e380
  101012:	e8 d0 38 00 00       	call   1048e7 <release>
  101017:	83 c4 10             	add    $0x10,%esp
/u/s/h/shirui/private/cs537/p3a/p3/xv6-sp20/kernel/file.c:47
  10101a:	8b 45 08             	mov    0x8(%ebp),%eax
/u/s/h/shirui/private/cs537/p3a/p3/xv6-sp20/kernel/file.c:48
  10101d:	c9                   	leave  
  10101e:	c3                   	ret    

0010101f <fileclose>:
fileclose():
/u/s/h/shirui/private/cs537/p3a/p3/xv6-sp20/kernel/file.c:53
  10101f:	55                   	push   %ebp
  101020:	89 e5                	mov    %esp,%ebp
  101022:	83 ec 28             	sub    $0x28,%esp
/u/s/h/shirui/private/cs537/p3a/p3/xv6-sp20/kernel/file.c:56
  101025:	83 ec 0c             	sub    $0xc,%esp
  101028:	68 80 e3 10 00       	push   $0x10e380
  10102d:	e8 4e 38 00 00       	call   104880 <acquire>
  101032:	83 c4 10             	add    $0x10,%esp
/u/s/h/shirui/private/cs537/p3a/p3/xv6-sp20/kernel/file.c:57
  101035:	8b 45 08             	mov    0x8(%ebp),%eax
  101038:	8b 40 04             	mov    0x4(%eax),%eax
  10103b:	85 c0                	test   %eax,%eax
  10103d:	7f 0d                	jg     10104c <fileclose+0x2d>
/u/s/h/shirui/private/cs537/p3a/p3/xv6-sp20/kernel/file.c:58
  10103f:	83 ec 0c             	sub    $0xc,%esp
  101042:	68 77 7f 10 00       	push   $0x107f77
  101047:	e8 2c f5 ff ff       	call   100578 <panic>
/u/s/h/shirui/private/cs537/p3a/p3/xv6-sp20/kernel/file.c:59
  10104c:	8b 45 08             	mov    0x8(%ebp),%eax
  10104f:	8b 40 04             	mov    0x4(%eax),%eax
  101052:	8d 50 ff             	lea    -0x1(%eax),%edx
  101055:	8b 45 08             	mov    0x8(%ebp),%eax
  101058:	89 50 04             	mov    %edx,0x4(%eax)
  10105b:	8b 45 08             	mov    0x8(%ebp),%eax
  10105e:	8b 40 04             	mov    0x4(%eax),%eax
  101061:	85 c0                	test   %eax,%eax
  101063:	7e 15                	jle    10107a <fileclose+0x5b>
/u/s/h/shirui/private/cs537/p3a/p3/xv6-sp20/kernel/file.c:60
  101065:	83 ec 0c             	sub    $0xc,%esp
  101068:	68 80 e3 10 00       	push   $0x10e380
  10106d:	e8 75 38 00 00       	call   1048e7 <release>
  101072:	83 c4 10             	add    $0x10,%esp
  101075:	e9 81 00 00 00       	jmp    1010fb <fileclose+0xdc>
/u/s/h/shirui/private/cs537/p3a/p3/xv6-sp20/kernel/file.c:63
  10107a:	8b 45 08             	mov    0x8(%ebp),%eax
  10107d:	8b 10                	mov    (%eax),%edx
  10107f:	89 55 e0             	mov    %edx,-0x20(%ebp)
  101082:	8b 50 04             	mov    0x4(%eax),%edx
  101085:	89 55 e4             	mov    %edx,-0x1c(%ebp)
  101088:	8b 50 08             	mov    0x8(%eax),%edx
  10108b:	89 55 e8             	mov    %edx,-0x18(%ebp)
  10108e:	8b 50 0c             	mov    0xc(%eax),%edx
  101091:	89 55 ec             	mov    %edx,-0x14(%ebp)
  101094:	8b 50 10             	mov    0x10(%eax),%edx
  101097:	89 55 f0             	mov    %edx,-0x10(%ebp)
  10109a:	8b 40 14             	mov    0x14(%eax),%eax
  10109d:	89 45 f4             	mov    %eax,-0xc(%ebp)
/u/s/h/shirui/private/cs537/p3a/p3/xv6-sp20/kernel/file.c:64
  1010a0:	8b 45 08             	mov    0x8(%ebp),%eax
  1010a3:	c7 40 04 00 00 00 00 	movl   $0x0,0x4(%eax)
/u/s/h/shirui/private/cs537/p3a/p3/xv6-sp20/kernel/file.c:65
  1010aa:	8b 45 08             	mov    0x8(%ebp),%eax
  1010ad:	c7 00 00 00 00 00    	movl   $0x0,(%eax)
/u/s/h/shirui/private/cs537/p3a/p3/xv6-sp20/kernel/file.c:66
  1010b3:	83 ec 0c             	sub    $0xc,%esp
  1010b6:	68 80 e3 10 00       	push   $0x10e380
  1010bb:	e8 27 38 00 00       	call   1048e7 <release>
  1010c0:	83 c4 10             	add    $0x10,%esp
/u/s/h/shirui/private/cs537/p3a/p3/xv6-sp20/kernel/file.c:68
  1010c3:	8b 45 e0             	mov    -0x20(%ebp),%eax
  1010c6:	83 f8 01             	cmp    $0x1,%eax
  1010c9:	75 19                	jne    1010e4 <fileclose+0xc5>
/u/s/h/shirui/private/cs537/p3a/p3/xv6-sp20/kernel/file.c:69
  1010cb:	0f b6 45 e9          	movzbl -0x17(%ebp),%eax
  1010cf:	0f be d0             	movsbl %al,%edx
  1010d2:	8b 45 ec             	mov    -0x14(%ebp),%eax
  1010d5:	83 ec 08             	sub    $0x8,%esp
  1010d8:	52                   	push   %edx
  1010d9:	50                   	push   %eax
  1010da:	e8 6b 29 00 00       	call   103a4a <pipeclose>
  1010df:	83 c4 10             	add    $0x10,%esp
  1010e2:	eb 17                	jmp    1010fb <fileclose+0xdc>
/u/s/h/shirui/private/cs537/p3a/p3/xv6-sp20/kernel/file.c:70
  1010e4:	8b 45 e0             	mov    -0x20(%ebp),%eax
  1010e7:	83 f8 02             	cmp    $0x2,%eax
  1010ea:	75 0f                	jne    1010fb <fileclose+0xdc>
/u/s/h/shirui/private/cs537/p3a/p3/xv6-sp20/kernel/file.c:71
  1010ec:	8b 45 f0             	mov    -0x10(%ebp),%eax
  1010ef:	83 ec 0c             	sub    $0xc,%esp
  1010f2:	50                   	push   %eax
  1010f3:	e8 21 09 00 00       	call   101a19 <iput>
  1010f8:	83 c4 10             	add    $0x10,%esp
/u/s/h/shirui/private/cs537/p3a/p3/xv6-sp20/kernel/file.c:72
  1010fb:	c9                   	leave  
  1010fc:	c3                   	ret    

001010fd <filestat>:
filestat():
/u/s/h/shirui/private/cs537/p3a/p3/xv6-sp20/kernel/file.c:77
  1010fd:	55                   	push   %ebp
  1010fe:	89 e5                	mov    %esp,%ebp
  101100:	83 ec 08             	sub    $0x8,%esp
/u/s/h/shirui/private/cs537/p3a/p3/xv6-sp20/kernel/file.c:78
  101103:	8b 45 08             	mov    0x8(%ebp),%eax
  101106:	8b 00                	mov    (%eax),%eax
  101108:	83 f8 02             	cmp    $0x2,%eax
  10110b:	75 40                	jne    10114d <filestat+0x50>
/u/s/h/shirui/private/cs537/p3a/p3/xv6-sp20/kernel/file.c:79
  10110d:	8b 45 08             	mov    0x8(%ebp),%eax
  101110:	8b 40 10             	mov    0x10(%eax),%eax
  101113:	83 ec 0c             	sub    $0xc,%esp
  101116:	50                   	push   %eax
  101117:	e8 33 07 00 00       	call   10184f <ilock>
  10111c:	83 c4 10             	add    $0x10,%esp
/u/s/h/shirui/private/cs537/p3a/p3/xv6-sp20/kernel/file.c:80
  10111f:	8b 45 08             	mov    0x8(%ebp),%eax
  101122:	8b 40 10             	mov    0x10(%eax),%eax
  101125:	83 ec 08             	sub    $0x8,%esp
  101128:	ff 75 0c             	pushl  0xc(%ebp)
  10112b:	50                   	push   %eax
  10112c:	e8 3b 0c 00 00       	call   101d6c <stati>
  101131:	83 c4 10             	add    $0x10,%esp
/u/s/h/shirui/private/cs537/p3a/p3/xv6-sp20/kernel/file.c:81
  101134:	8b 45 08             	mov    0x8(%ebp),%eax
  101137:	8b 40 10             	mov    0x10(%eax),%eax
  10113a:	83 ec 0c             	sub    $0xc,%esp
  10113d:	50                   	push   %eax
  10113e:	e8 64 08 00 00       	call   1019a7 <iunlock>
  101143:	83 c4 10             	add    $0x10,%esp
/u/s/h/shirui/private/cs537/p3a/p3/xv6-sp20/kernel/file.c:82
  101146:	b8 00 00 00 00       	mov    $0x0,%eax
  10114b:	eb 05                	jmp    101152 <filestat+0x55>
/u/s/h/shirui/private/cs537/p3a/p3/xv6-sp20/kernel/file.c:84
  10114d:	b8 ff ff ff ff       	mov    $0xffffffff,%eax
/u/s/h/shirui/private/cs537/p3a/p3/xv6-sp20/kernel/file.c:85
  101152:	c9                   	leave  
  101153:	c3                   	ret    

00101154 <fileread>:
fileread():
/u/s/h/shirui/private/cs537/p3a/p3/xv6-sp20/kernel/file.c:90
  101154:	55                   	push   %ebp
  101155:	89 e5                	mov    %esp,%ebp
  101157:	83 ec 18             	sub    $0x18,%esp
/u/s/h/shirui/private/cs537/p3a/p3/xv6-sp20/kernel/file.c:93
  10115a:	8b 45 08             	mov    0x8(%ebp),%eax
  10115d:	0f b6 40 08          	movzbl 0x8(%eax),%eax
  101161:	84 c0                	test   %al,%al
  101163:	75 0a                	jne    10116f <fileread+0x1b>
/u/s/h/shirui/private/cs537/p3a/p3/xv6-sp20/kernel/file.c:94
  101165:	b8 ff ff ff ff       	mov    $0xffffffff,%eax
  10116a:	e9 9b 00 00 00       	jmp    10120a <fileread+0xb6>
/u/s/h/shirui/private/cs537/p3a/p3/xv6-sp20/kernel/file.c:95
  10116f:	8b 45 08             	mov    0x8(%ebp),%eax
  101172:	8b 00                	mov    (%eax),%eax
  101174:	83 f8 01             	cmp    $0x1,%eax
  101177:	75 1a                	jne    101193 <fileread+0x3f>
/u/s/h/shirui/private/cs537/p3a/p3/xv6-sp20/kernel/file.c:96
  101179:	8b 45 08             	mov    0x8(%ebp),%eax
  10117c:	8b 40 0c             	mov    0xc(%eax),%eax
  10117f:	83 ec 04             	sub    $0x4,%esp
  101182:	ff 75 10             	pushl  0x10(%ebp)
  101185:	ff 75 0c             	pushl  0xc(%ebp)
  101188:	50                   	push   %eax
  101189:	e8 69 2a 00 00       	call   103bf7 <piperead>
  10118e:	83 c4 10             	add    $0x10,%esp
  101191:	eb 77                	jmp    10120a <fileread+0xb6>
/u/s/h/shirui/private/cs537/p3a/p3/xv6-sp20/kernel/file.c:97
  101193:	8b 45 08             	mov    0x8(%ebp),%eax
  101196:	8b 00                	mov    (%eax),%eax
  101198:	83 f8 02             	cmp    $0x2,%eax
  10119b:	75 60                	jne    1011fd <fileread+0xa9>
/u/s/h/shirui/private/cs537/p3a/p3/xv6-sp20/kernel/file.c:98
  10119d:	8b 45 08             	mov    0x8(%ebp),%eax
  1011a0:	8b 40 10             	mov    0x10(%eax),%eax
  1011a3:	83 ec 0c             	sub    $0xc,%esp
  1011a6:	50                   	push   %eax
  1011a7:	e8 a3 06 00 00       	call   10184f <ilock>
  1011ac:	83 c4 10             	add    $0x10,%esp
/u/s/h/shirui/private/cs537/p3a/p3/xv6-sp20/kernel/file.c:99
  1011af:	8b 4d 10             	mov    0x10(%ebp),%ecx
  1011b2:	8b 45 08             	mov    0x8(%ebp),%eax
  1011b5:	8b 50 14             	mov    0x14(%eax),%edx
  1011b8:	8b 45 08             	mov    0x8(%ebp),%eax
  1011bb:	8b 40 10             	mov    0x10(%eax),%eax
  1011be:	51                   	push   %ecx
  1011bf:	52                   	push   %edx
  1011c0:	ff 75 0c             	pushl  0xc(%ebp)
  1011c3:	50                   	push   %eax
  1011c4:	e8 e9 0b 00 00       	call   101db2 <readi>
  1011c9:	83 c4 10             	add    $0x10,%esp
  1011cc:	89 45 f4             	mov    %eax,-0xc(%ebp)
  1011cf:	83 7d f4 00          	cmpl   $0x0,-0xc(%ebp)
  1011d3:	7e 11                	jle    1011e6 <fileread+0x92>
/u/s/h/shirui/private/cs537/p3a/p3/xv6-sp20/kernel/file.c:100
  1011d5:	8b 45 08             	mov    0x8(%ebp),%eax
  1011d8:	8b 50 14             	mov    0x14(%eax),%edx
  1011db:	8b 45 f4             	mov    -0xc(%ebp),%eax
  1011de:	01 c2                	add    %eax,%edx
  1011e0:	8b 45 08             	mov    0x8(%ebp),%eax
  1011e3:	89 50 14             	mov    %edx,0x14(%eax)
/u/s/h/shirui/private/cs537/p3a/p3/xv6-sp20/kernel/file.c:101
  1011e6:	8b 45 08             	mov    0x8(%ebp),%eax
  1011e9:	8b 40 10             	mov    0x10(%eax),%eax
  1011ec:	83 ec 0c             	sub    $0xc,%esp
  1011ef:	50                   	push   %eax
  1011f0:	e8 b2 07 00 00       	call   1019a7 <iunlock>
  1011f5:	83 c4 10             	add    $0x10,%esp
/u/s/h/shirui/private/cs537/p3a/p3/xv6-sp20/kernel/file.c:102
  1011f8:	8b 45 f4             	mov    -0xc(%ebp),%eax
  1011fb:	eb 0d                	jmp    10120a <fileread+0xb6>
/u/s/h/shirui/private/cs537/p3a/p3/xv6-sp20/kernel/file.c:104
  1011fd:	83 ec 0c             	sub    $0xc,%esp
  101200:	68 81 7f 10 00       	push   $0x107f81
  101205:	e8 6e f3 ff ff       	call   100578 <panic>
/u/s/h/shirui/private/cs537/p3a/p3/xv6-sp20/kernel/file.c:105
  10120a:	c9                   	leave  
  10120b:	c3                   	ret    

0010120c <filewrite>:
filewrite():
/u/s/h/shirui/private/cs537/p3a/p3/xv6-sp20/kernel/file.c:110
  10120c:	55                   	push   %ebp
  10120d:	89 e5                	mov    %esp,%ebp
  10120f:	83 ec 18             	sub    $0x18,%esp
/u/s/h/shirui/private/cs537/p3a/p3/xv6-sp20/kernel/file.c:113
  101212:	8b 45 08             	mov    0x8(%ebp),%eax
  101215:	0f b6 40 09          	movzbl 0x9(%eax),%eax
  101219:	84 c0                	test   %al,%al
  10121b:	75 0a                	jne    101227 <filewrite+0x1b>
/u/s/h/shirui/private/cs537/p3a/p3/xv6-sp20/kernel/file.c:114
  10121d:	b8 ff ff ff ff       	mov    $0xffffffff,%eax
  101222:	e9 9b 00 00 00       	jmp    1012c2 <filewrite+0xb6>
/u/s/h/shirui/private/cs537/p3a/p3/xv6-sp20/kernel/file.c:115
  101227:	8b 45 08             	mov    0x8(%ebp),%eax
  10122a:	8b 00                	mov    (%eax),%eax
  10122c:	83 f8 01             	cmp    $0x1,%eax
  10122f:	75 1a                	jne    10124b <filewrite+0x3f>
/u/s/h/shirui/private/cs537/p3a/p3/xv6-sp20/kernel/file.c:116
  101231:	8b 45 08             	mov    0x8(%ebp),%eax
  101234:	8b 40 0c             	mov    0xc(%eax),%eax
  101237:	83 ec 04             	sub    $0x4,%esp
  10123a:	ff 75 10             	pushl  0x10(%ebp)
  10123d:	ff 75 0c             	pushl  0xc(%ebp)
  101240:	50                   	push   %eax
  101241:	e8 ae 28 00 00       	call   103af4 <pipewrite>
  101246:	83 c4 10             	add    $0x10,%esp
  101249:	eb 77                	jmp    1012c2 <filewrite+0xb6>
/u/s/h/shirui/private/cs537/p3a/p3/xv6-sp20/kernel/file.c:117
  10124b:	8b 45 08             	mov    0x8(%ebp),%eax
  10124e:	8b 00                	mov    (%eax),%eax
  101250:	83 f8 02             	cmp    $0x2,%eax
  101253:	75 60                	jne    1012b5 <filewrite+0xa9>
/u/s/h/shirui/private/cs537/p3a/p3/xv6-sp20/kernel/file.c:118
  101255:	8b 45 08             	mov    0x8(%ebp),%eax
  101258:	8b 40 10             	mov    0x10(%eax),%eax
  10125b:	83 ec 0c             	sub    $0xc,%esp
  10125e:	50                   	push   %eax
  10125f:	e8 eb 05 00 00       	call   10184f <ilock>
  101264:	83 c4 10             	add    $0x10,%esp
/u/s/h/shirui/private/cs537/p3a/p3/xv6-sp20/kernel/file.c:119
  101267:	8b 4d 10             	mov    0x10(%ebp),%ecx
  10126a:	8b 45 08             	mov    0x8(%ebp),%eax
  10126d:	8b 50 14             	mov    0x14(%eax),%edx
  101270:	8b 45 08             	mov    0x8(%ebp),%eax
  101273:	8b 40 10             	mov    0x10(%eax),%eax
  101276:	51                   	push   %ecx
  101277:	52                   	push   %edx
  101278:	ff 75 0c             	pushl  0xc(%ebp)
  10127b:	50                   	push   %eax
  10127c:	e8 88 0c 00 00       	call   101f09 <writei>
  101281:	83 c4 10             	add    $0x10,%esp
  101284:	89 45 f4             	mov    %eax,-0xc(%ebp)
  101287:	83 7d f4 00          	cmpl   $0x0,-0xc(%ebp)
  10128b:	7e 11                	jle    10129e <filewrite+0x92>
/u/s/h/shirui/private/cs537/p3a/p3/xv6-sp20/kernel/file.c:120
  10128d:	8b 45 08             	mov    0x8(%ebp),%eax
  101290:	8b 50 14             	mov    0x14(%eax),%edx
  101293:	8b 45 f4             	mov    -0xc(%ebp),%eax
  101296:	01 c2                	add    %eax,%edx
  101298:	8b 45 08             	mov    0x8(%ebp),%eax
  10129b:	89 50 14             	mov    %edx,0x14(%eax)
/u/s/h/shirui/private/cs537/p3a/p3/xv6-sp20/kernel/file.c:121
  10129e:	8b 45 08             	mov    0x8(%ebp),%eax
  1012a1:	8b 40 10             	mov    0x10(%eax),%eax
  1012a4:	83 ec 0c             	sub    $0xc,%esp
  1012a7:	50                   	push   %eax
  1012a8:	e8 fa 06 00 00       	call   1019a7 <iunlock>
  1012ad:	83 c4 10             	add    $0x10,%esp
/u/s/h/shirui/private/cs537/p3a/p3/xv6-sp20/kernel/file.c:122
  1012b0:	8b 45 f4             	mov    -0xc(%ebp),%eax
  1012b3:	eb 0d                	jmp    1012c2 <filewrite+0xb6>
/u/s/h/shirui/private/cs537/p3a/p3/xv6-sp20/kernel/file.c:124
  1012b5:	83 ec 0c             	sub    $0xc,%esp
  1012b8:	68 8a 7f 10 00       	push   $0x107f8a
  1012bd:	e8 b6 f2 ff ff       	call   100578 <panic>
/u/s/h/shirui/private/cs537/p3a/p3/xv6-sp20/kernel/file.c:125
  1012c2:	c9                   	leave  
  1012c3:	c3                   	ret    

001012c4 <readsb>:
readsb():
/u/s/h/shirui/private/cs537/p3a/p3/xv6-sp20/kernel/fs.c:30
  1012c4:	55                   	push   %ebp
  1012c5:	89 e5                	mov    %esp,%ebp
  1012c7:	83 ec 18             	sub    $0x18,%esp
/u/s/h/shirui/private/cs537/p3a/p3/xv6-sp20/kernel/fs.c:33
  1012ca:	8b 45 08             	mov    0x8(%ebp),%eax
  1012cd:	83 ec 08             	sub    $0x8,%esp
  1012d0:	6a 01                	push   $0x1
  1012d2:	50                   	push   %eax
  1012d3:	e8 08 ef ff ff       	call   1001e0 <bread>
  1012d8:	83 c4 10             	add    $0x10,%esp
  1012db:	89 45 f4             	mov    %eax,-0xc(%ebp)
/u/s/h/shirui/private/cs537/p3a/p3/xv6-sp20/kernel/fs.c:34
  1012de:	8b 45 f4             	mov    -0xc(%ebp),%eax
  1012e1:	83 c0 18             	add    $0x18,%eax
  1012e4:	83 ec 04             	sub    $0x4,%esp
  1012e7:	6a 0c                	push   $0xc
  1012e9:	50                   	push   %eax
  1012ea:	ff 75 0c             	pushl  0xc(%ebp)
  1012ed:	e8 3d 38 00 00       	call   104b2f <memmove>
  1012f2:	83 c4 10             	add    $0x10,%esp
/u/s/h/shirui/private/cs537/p3a/p3/xv6-sp20/kernel/fs.c:35
  1012f5:	83 ec 0c             	sub    $0xc,%esp
  1012f8:	ff 75 f4             	pushl  -0xc(%ebp)
  1012fb:	e8 58 ef ff ff       	call   100258 <brelse>
  101300:	83 c4 10             	add    $0x10,%esp
/u/s/h/shirui/private/cs537/p3a/p3/xv6-sp20/kernel/fs.c:36
  101303:	90                   	nop
  101304:	c9                   	leave  
  101305:	c3                   	ret    

00101306 <bzero>:
bzero():
/u/s/h/shirui/private/cs537/p3a/p3/xv6-sp20/kernel/fs.c:41
  101306:	55                   	push   %ebp
  101307:	89 e5                	mov    %esp,%ebp
  101309:	83 ec 18             	sub    $0x18,%esp
/u/s/h/shirui/private/cs537/p3a/p3/xv6-sp20/kernel/fs.c:44
  10130c:	8b 55 0c             	mov    0xc(%ebp),%edx
  10130f:	8b 45 08             	mov    0x8(%ebp),%eax
  101312:	83 ec 08             	sub    $0x8,%esp
  101315:	52                   	push   %edx
  101316:	50                   	push   %eax
  101317:	e8 c4 ee ff ff       	call   1001e0 <bread>
  10131c:	83 c4 10             	add    $0x10,%esp
  10131f:	89 45 f4             	mov    %eax,-0xc(%ebp)
/u/s/h/shirui/private/cs537/p3a/p3/xv6-sp20/kernel/fs.c:45
  101322:	8b 45 f4             	mov    -0xc(%ebp),%eax
  101325:	83 c0 18             	add    $0x18,%eax
  101328:	83 ec 04             	sub    $0x4,%esp
  10132b:	68 00 02 00 00       	push   $0x200
  101330:	6a 00                	push   $0x0
  101332:	50                   	push   %eax
  101333:	e8 85 37 00 00       	call   104abd <memset>
  101338:	83 c4 10             	add    $0x10,%esp
/u/s/h/shirui/private/cs537/p3a/p3/xv6-sp20/kernel/fs.c:46
  10133b:	83 ec 0c             	sub    $0xc,%esp
  10133e:	ff 75 f4             	pushl  -0xc(%ebp)
  101341:	e8 d3 ee ff ff       	call   100219 <bwrite>
  101346:	83 c4 10             	add    $0x10,%esp
/u/s/h/shirui/private/cs537/p3a/p3/xv6-sp20/kernel/fs.c:47
  101349:	83 ec 0c             	sub    $0xc,%esp
  10134c:	ff 75 f4             	pushl  -0xc(%ebp)
  10134f:	e8 04 ef ff ff       	call   100258 <brelse>
  101354:	83 c4 10             	add    $0x10,%esp
/u/s/h/shirui/private/cs537/p3a/p3/xv6-sp20/kernel/fs.c:48
  101357:	90                   	nop
  101358:	c9                   	leave  
  101359:	c3                   	ret    

0010135a <balloc>:
balloc():
/u/s/h/shirui/private/cs537/p3a/p3/xv6-sp20/kernel/fs.c:55
  10135a:	55                   	push   %ebp
  10135b:	89 e5                	mov    %esp,%ebp
  10135d:	83 ec 28             	sub    $0x28,%esp
/u/s/h/shirui/private/cs537/p3a/p3/xv6-sp20/kernel/fs.c:60
  101360:	c7 45 ec 00 00 00 00 	movl   $0x0,-0x14(%ebp)
/u/s/h/shirui/private/cs537/p3a/p3/xv6-sp20/kernel/fs.c:61
  101367:	8b 45 08             	mov    0x8(%ebp),%eax
  10136a:	83 ec 08             	sub    $0x8,%esp
  10136d:	8d 55 dc             	lea    -0x24(%ebp),%edx
  101370:	52                   	push   %edx
  101371:	50                   	push   %eax
  101372:	e8 4d ff ff ff       	call   1012c4 <readsb>
  101377:	83 c4 10             	add    $0x10,%esp
/u/s/h/shirui/private/cs537/p3a/p3/xv6-sp20/kernel/fs.c:62
  10137a:	c7 45 f4 00 00 00 00 	movl   $0x0,-0xc(%ebp)
  101381:	e9 ec 00 00 00       	jmp    101472 <balloc+0x118>
/u/s/h/shirui/private/cs537/p3a/p3/xv6-sp20/kernel/fs.c:63
  101386:	8b 45 f4             	mov    -0xc(%ebp),%eax
  101389:	8d 90 ff 0f 00 00    	lea    0xfff(%eax),%edx
  10138f:	85 c0                	test   %eax,%eax
  101391:	0f 48 c2             	cmovs  %edx,%eax
  101394:	c1 f8 0c             	sar    $0xc,%eax
  101397:	89 c2                	mov    %eax,%edx
  101399:	8b 45 e4             	mov    -0x1c(%ebp),%eax
  10139c:	c1 e8 03             	shr    $0x3,%eax
  10139f:	01 d0                	add    %edx,%eax
  1013a1:	83 c0 03             	add    $0x3,%eax
  1013a4:	83 ec 08             	sub    $0x8,%esp
  1013a7:	50                   	push   %eax
  1013a8:	ff 75 08             	pushl  0x8(%ebp)
  1013ab:	e8 30 ee ff ff       	call   1001e0 <bread>
  1013b0:	83 c4 10             	add    $0x10,%esp
  1013b3:	89 45 ec             	mov    %eax,-0x14(%ebp)
/u/s/h/shirui/private/cs537/p3a/p3/xv6-sp20/kernel/fs.c:64
  1013b6:	c7 45 f0 00 00 00 00 	movl   $0x0,-0x10(%ebp)
  1013bd:	e9 8e 00 00 00       	jmp    101450 <balloc+0xf6>
/u/s/h/shirui/private/cs537/p3a/p3/xv6-sp20/kernel/fs.c:65
  1013c2:	8b 45 f0             	mov    -0x10(%ebp),%eax
  1013c5:	99                   	cltd   
  1013c6:	c1 ea 1d             	shr    $0x1d,%edx
  1013c9:	01 d0                	add    %edx,%eax
  1013cb:	83 e0 07             	and    $0x7,%eax
  1013ce:	29 d0                	sub    %edx,%eax
  1013d0:	ba 01 00 00 00       	mov    $0x1,%edx
  1013d5:	89 c1                	mov    %eax,%ecx
  1013d7:	d3 e2                	shl    %cl,%edx
  1013d9:	89 d0                	mov    %edx,%eax
  1013db:	89 45 e8             	mov    %eax,-0x18(%ebp)
/u/s/h/shirui/private/cs537/p3a/p3/xv6-sp20/kernel/fs.c:66
  1013de:	8b 45 f0             	mov    -0x10(%ebp),%eax
  1013e1:	8d 50 07             	lea    0x7(%eax),%edx
  1013e4:	85 c0                	test   %eax,%eax
  1013e6:	0f 48 c2             	cmovs  %edx,%eax
  1013e9:	c1 f8 03             	sar    $0x3,%eax
  1013ec:	89 c2                	mov    %eax,%edx
  1013ee:	8b 45 ec             	mov    -0x14(%ebp),%eax
  1013f1:	0f b6 44 10 18       	movzbl 0x18(%eax,%edx,1),%eax
  1013f6:	0f b6 c0             	movzbl %al,%eax
  1013f9:	23 45 e8             	and    -0x18(%ebp),%eax
  1013fc:	85 c0                	test   %eax,%eax
  1013fe:	75 4c                	jne    10144c <balloc+0xf2>
/u/s/h/shirui/private/cs537/p3a/p3/xv6-sp20/kernel/fs.c:67
  101400:	8b 45 f0             	mov    -0x10(%ebp),%eax
  101403:	8d 50 07             	lea    0x7(%eax),%edx
  101406:	85 c0                	test   %eax,%eax
  101408:	0f 48 c2             	cmovs  %edx,%eax
  10140b:	c1 f8 03             	sar    $0x3,%eax
  10140e:	8b 55 ec             	mov    -0x14(%ebp),%edx
  101411:	0f b6 54 02 18       	movzbl 0x18(%edx,%eax,1),%edx
  101416:	89 d1                	mov    %edx,%ecx
  101418:	8b 55 e8             	mov    -0x18(%ebp),%edx
  10141b:	09 ca                	or     %ecx,%edx
  10141d:	89 d1                	mov    %edx,%ecx
  10141f:	8b 55 ec             	mov    -0x14(%ebp),%edx
  101422:	88 4c 02 18          	mov    %cl,0x18(%edx,%eax,1)
/u/s/h/shirui/private/cs537/p3a/p3/xv6-sp20/kernel/fs.c:68
  101426:	83 ec 0c             	sub    $0xc,%esp
  101429:	ff 75 ec             	pushl  -0x14(%ebp)
  10142c:	e8 e8 ed ff ff       	call   100219 <bwrite>
  101431:	83 c4 10             	add    $0x10,%esp
/u/s/h/shirui/private/cs537/p3a/p3/xv6-sp20/kernel/fs.c:69
  101434:	83 ec 0c             	sub    $0xc,%esp
  101437:	ff 75 ec             	pushl  -0x14(%ebp)
  10143a:	e8 19 ee ff ff       	call   100258 <brelse>
  10143f:	83 c4 10             	add    $0x10,%esp
/u/s/h/shirui/private/cs537/p3a/p3/xv6-sp20/kernel/fs.c:70
  101442:	8b 55 f4             	mov    -0xc(%ebp),%edx
  101445:	8b 45 f0             	mov    -0x10(%ebp),%eax
  101448:	01 d0                	add    %edx,%eax
  10144a:	eb 41                	jmp    10148d <balloc+0x133>
/u/s/h/shirui/private/cs537/p3a/p3/xv6-sp20/kernel/fs.c:64 (discriminator 2)
  10144c:	83 45 f0 01          	addl   $0x1,-0x10(%ebp)
/u/s/h/shirui/private/cs537/p3a/p3/xv6-sp20/kernel/fs.c:64 (discriminator 1)
  101450:	81 7d f0 ff 0f 00 00 	cmpl   $0xfff,-0x10(%ebp)
  101457:	0f 8e 65 ff ff ff    	jle    1013c2 <balloc+0x68>
/u/s/h/shirui/private/cs537/p3a/p3/xv6-sp20/kernel/fs.c:73 (discriminator 2)
  10145d:	83 ec 0c             	sub    $0xc,%esp
  101460:	ff 75 ec             	pushl  -0x14(%ebp)
  101463:	e8 f0 ed ff ff       	call   100258 <brelse>
  101468:	83 c4 10             	add    $0x10,%esp
/u/s/h/shirui/private/cs537/p3a/p3/xv6-sp20/kernel/fs.c:62 (discriminator 2)
  10146b:	81 45 f4 00 10 00 00 	addl   $0x1000,-0xc(%ebp)
/u/s/h/shirui/private/cs537/p3a/p3/xv6-sp20/kernel/fs.c:62 (discriminator 1)
  101472:	8b 55 dc             	mov    -0x24(%ebp),%edx
  101475:	8b 45 f4             	mov    -0xc(%ebp),%eax
  101478:	39 c2                	cmp    %eax,%edx
  10147a:	0f 87 06 ff ff ff    	ja     101386 <balloc+0x2c>
/u/s/h/shirui/private/cs537/p3a/p3/xv6-sp20/kernel/fs.c:75
  101480:	83 ec 0c             	sub    $0xc,%esp
  101483:	68 94 7f 10 00       	push   $0x107f94
  101488:	e8 eb f0 ff ff       	call   100578 <panic>
/u/s/h/shirui/private/cs537/p3a/p3/xv6-sp20/kernel/fs.c:76
  10148d:	c9                   	leave  
  10148e:	c3                   	ret    

0010148f <bfree>:
bfree():
/u/s/h/shirui/private/cs537/p3a/p3/xv6-sp20/kernel/fs.c:81
  10148f:	55                   	push   %ebp
  101490:	89 e5                	mov    %esp,%ebp
  101492:	83 ec 28             	sub    $0x28,%esp
/u/s/h/shirui/private/cs537/p3a/p3/xv6-sp20/kernel/fs.c:86
  101495:	8b 45 0c             	mov    0xc(%ebp),%eax
  101498:	83 ec 08             	sub    $0x8,%esp
  10149b:	50                   	push   %eax
  10149c:	ff 75 08             	pushl  0x8(%ebp)
  10149f:	e8 62 fe ff ff       	call   101306 <bzero>
  1014a4:	83 c4 10             	add    $0x10,%esp
/u/s/h/shirui/private/cs537/p3a/p3/xv6-sp20/kernel/fs.c:88
  1014a7:	83 ec 08             	sub    $0x8,%esp
  1014aa:	8d 45 e0             	lea    -0x20(%ebp),%eax
  1014ad:	50                   	push   %eax
  1014ae:	ff 75 08             	pushl  0x8(%ebp)
  1014b1:	e8 0e fe ff ff       	call   1012c4 <readsb>
  1014b6:	83 c4 10             	add    $0x10,%esp
/u/s/h/shirui/private/cs537/p3a/p3/xv6-sp20/kernel/fs.c:89
  1014b9:	8b 45 0c             	mov    0xc(%ebp),%eax
  1014bc:	c1 e8 0c             	shr    $0xc,%eax
  1014bf:	89 c2                	mov    %eax,%edx
  1014c1:	8b 45 e8             	mov    -0x18(%ebp),%eax
  1014c4:	c1 e8 03             	shr    $0x3,%eax
  1014c7:	01 d0                	add    %edx,%eax
  1014c9:	8d 50 03             	lea    0x3(%eax),%edx
  1014cc:	8b 45 08             	mov    0x8(%ebp),%eax
  1014cf:	83 ec 08             	sub    $0x8,%esp
  1014d2:	52                   	push   %edx
  1014d3:	50                   	push   %eax
  1014d4:	e8 07 ed ff ff       	call   1001e0 <bread>
  1014d9:	83 c4 10             	add    $0x10,%esp
  1014dc:	89 45 f4             	mov    %eax,-0xc(%ebp)
/u/s/h/shirui/private/cs537/p3a/p3/xv6-sp20/kernel/fs.c:90
  1014df:	8b 45 0c             	mov    0xc(%ebp),%eax
  1014e2:	25 ff 0f 00 00       	and    $0xfff,%eax
  1014e7:	89 45 f0             	mov    %eax,-0x10(%ebp)
/u/s/h/shirui/private/cs537/p3a/p3/xv6-sp20/kernel/fs.c:91
  1014ea:	8b 45 f0             	mov    -0x10(%ebp),%eax
  1014ed:	99                   	cltd   
  1014ee:	c1 ea 1d             	shr    $0x1d,%edx
  1014f1:	01 d0                	add    %edx,%eax
  1014f3:	83 e0 07             	and    $0x7,%eax
  1014f6:	29 d0                	sub    %edx,%eax
  1014f8:	ba 01 00 00 00       	mov    $0x1,%edx
  1014fd:	89 c1                	mov    %eax,%ecx
  1014ff:	d3 e2                	shl    %cl,%edx
  101501:	89 d0                	mov    %edx,%eax
  101503:	89 45 ec             	mov    %eax,-0x14(%ebp)
/u/s/h/shirui/private/cs537/p3a/p3/xv6-sp20/kernel/fs.c:92
  101506:	8b 45 f0             	mov    -0x10(%ebp),%eax
  101509:	8d 50 07             	lea    0x7(%eax),%edx
  10150c:	85 c0                	test   %eax,%eax
  10150e:	0f 48 c2             	cmovs  %edx,%eax
  101511:	c1 f8 03             	sar    $0x3,%eax
  101514:	89 c2                	mov    %eax,%edx
  101516:	8b 45 f4             	mov    -0xc(%ebp),%eax
  101519:	0f b6 44 10 18       	movzbl 0x18(%eax,%edx,1),%eax
  10151e:	0f b6 c0             	movzbl %al,%eax
  101521:	23 45 ec             	and    -0x14(%ebp),%eax
  101524:	85 c0                	test   %eax,%eax
  101526:	75 0d                	jne    101535 <bfree+0xa6>
/u/s/h/shirui/private/cs537/p3a/p3/xv6-sp20/kernel/fs.c:93
  101528:	83 ec 0c             	sub    $0xc,%esp
  10152b:	68 aa 7f 10 00       	push   $0x107faa
  101530:	e8 43 f0 ff ff       	call   100578 <panic>
/u/s/h/shirui/private/cs537/p3a/p3/xv6-sp20/kernel/fs.c:94
  101535:	8b 45 f0             	mov    -0x10(%ebp),%eax
  101538:	8d 50 07             	lea    0x7(%eax),%edx
  10153b:	85 c0                	test   %eax,%eax
  10153d:	0f 48 c2             	cmovs  %edx,%eax
  101540:	c1 f8 03             	sar    $0x3,%eax
  101543:	8b 55 f4             	mov    -0xc(%ebp),%edx
  101546:	0f b6 54 02 18       	movzbl 0x18(%edx,%eax,1),%edx
  10154b:	89 d1                	mov    %edx,%ecx
  10154d:	8b 55 ec             	mov    -0x14(%ebp),%edx
  101550:	f7 d2                	not    %edx
  101552:	21 ca                	and    %ecx,%edx
  101554:	89 d1                	mov    %edx,%ecx
  101556:	8b 55 f4             	mov    -0xc(%ebp),%edx
  101559:	88 4c 02 18          	mov    %cl,0x18(%edx,%eax,1)
/u/s/h/shirui/private/cs537/p3a/p3/xv6-sp20/kernel/fs.c:95
  10155d:	83 ec 0c             	sub    $0xc,%esp
  101560:	ff 75 f4             	pushl  -0xc(%ebp)
  101563:	e8 b1 ec ff ff       	call   100219 <bwrite>
  101568:	83 c4 10             	add    $0x10,%esp
/u/s/h/shirui/private/cs537/p3a/p3/xv6-sp20/kernel/fs.c:96
  10156b:	83 ec 0c             	sub    $0xc,%esp
  10156e:	ff 75 f4             	pushl  -0xc(%ebp)
  101571:	e8 e2 ec ff ff       	call   100258 <brelse>
  101576:	83 c4 10             	add    $0x10,%esp
/u/s/h/shirui/private/cs537/p3a/p3/xv6-sp20/kernel/fs.c:97
  101579:	90                   	nop
  10157a:	c9                   	leave  
  10157b:	c3                   	ret    

0010157c <iinit>:
iinit():
/u/s/h/shirui/private/cs537/p3a/p3/xv6-sp20/kernel/fs.c:139
  10157c:	55                   	push   %ebp
  10157d:	89 e5                	mov    %esp,%ebp
  10157f:	83 ec 08             	sub    $0x8,%esp
/u/s/h/shirui/private/cs537/p3a/p3/xv6-sp20/kernel/fs.c:140
  101582:	83 ec 08             	sub    $0x8,%esp
  101585:	68 bd 7f 10 00       	push   $0x107fbd
  10158a:	68 80 ed 10 00       	push   $0x10ed80
  10158f:	e8 ca 32 00 00       	call   10485e <initlock>
  101594:	83 c4 10             	add    $0x10,%esp
/u/s/h/shirui/private/cs537/p3a/p3/xv6-sp20/kernel/fs.c:141
  101597:	90                   	nop
  101598:	c9                   	leave  
  101599:	c3                   	ret    

0010159a <ialloc>:
ialloc():
/u/s/h/shirui/private/cs537/p3a/p3/xv6-sp20/kernel/fs.c:148
  10159a:	55                   	push   %ebp
  10159b:	89 e5                	mov    %esp,%ebp
  10159d:	83 ec 38             	sub    $0x38,%esp
  1015a0:	8b 45 0c             	mov    0xc(%ebp),%eax
  1015a3:	66 89 45 d4          	mov    %ax,-0x2c(%ebp)
/u/s/h/shirui/private/cs537/p3a/p3/xv6-sp20/kernel/fs.c:154
  1015a7:	8b 45 08             	mov    0x8(%ebp),%eax
  1015aa:	83 ec 08             	sub    $0x8,%esp
  1015ad:	8d 55 e0             	lea    -0x20(%ebp),%edx
  1015b0:	52                   	push   %edx
  1015b1:	50                   	push   %eax
  1015b2:	e8 0d fd ff ff       	call   1012c4 <readsb>
  1015b7:	83 c4 10             	add    $0x10,%esp
/u/s/h/shirui/private/cs537/p3a/p3/xv6-sp20/kernel/fs.c:155
  1015ba:	c7 45 f4 01 00 00 00 	movl   $0x1,-0xc(%ebp)
  1015c1:	e9 98 00 00 00       	jmp    10165e <ialloc+0xc4>
/u/s/h/shirui/private/cs537/p3a/p3/xv6-sp20/kernel/fs.c:156
  1015c6:	8b 45 f4             	mov    -0xc(%ebp),%eax
  1015c9:	c1 e8 03             	shr    $0x3,%eax
  1015cc:	83 c0 02             	add    $0x2,%eax
  1015cf:	83 ec 08             	sub    $0x8,%esp
  1015d2:	50                   	push   %eax
  1015d3:	ff 75 08             	pushl  0x8(%ebp)
  1015d6:	e8 05 ec ff ff       	call   1001e0 <bread>
  1015db:	83 c4 10             	add    $0x10,%esp
  1015de:	89 45 f0             	mov    %eax,-0x10(%ebp)
/u/s/h/shirui/private/cs537/p3a/p3/xv6-sp20/kernel/fs.c:157
  1015e1:	8b 45 f0             	mov    -0x10(%ebp),%eax
  1015e4:	8d 50 18             	lea    0x18(%eax),%edx
  1015e7:	8b 45 f4             	mov    -0xc(%ebp),%eax
  1015ea:	83 e0 07             	and    $0x7,%eax
  1015ed:	c1 e0 06             	shl    $0x6,%eax
  1015f0:	01 d0                	add    %edx,%eax
  1015f2:	89 45 ec             	mov    %eax,-0x14(%ebp)
/u/s/h/shirui/private/cs537/p3a/p3/xv6-sp20/kernel/fs.c:158
  1015f5:	8b 45 ec             	mov    -0x14(%ebp),%eax
  1015f8:	0f b7 00             	movzwl (%eax),%eax
  1015fb:	66 85 c0             	test   %ax,%ax
  1015fe:	75 4c                	jne    10164c <ialloc+0xb2>
/u/s/h/shirui/private/cs537/p3a/p3/xv6-sp20/kernel/fs.c:159
  101600:	83 ec 04             	sub    $0x4,%esp
  101603:	6a 40                	push   $0x40
  101605:	6a 00                	push   $0x0
  101607:	ff 75 ec             	pushl  -0x14(%ebp)
  10160a:	e8 ae 34 00 00       	call   104abd <memset>
  10160f:	83 c4 10             	add    $0x10,%esp
/u/s/h/shirui/private/cs537/p3a/p3/xv6-sp20/kernel/fs.c:160
  101612:	8b 45 ec             	mov    -0x14(%ebp),%eax
  101615:	0f b7 55 d4          	movzwl -0x2c(%ebp),%edx
  101619:	66 89 10             	mov    %dx,(%eax)
/u/s/h/shirui/private/cs537/p3a/p3/xv6-sp20/kernel/fs.c:161
  10161c:	83 ec 0c             	sub    $0xc,%esp
  10161f:	ff 75 f0             	pushl  -0x10(%ebp)
  101622:	e8 f2 eb ff ff       	call   100219 <bwrite>
  101627:	83 c4 10             	add    $0x10,%esp
/u/s/h/shirui/private/cs537/p3a/p3/xv6-sp20/kernel/fs.c:162
  10162a:	83 ec 0c             	sub    $0xc,%esp
  10162d:	ff 75 f0             	pushl  -0x10(%ebp)
  101630:	e8 23 ec ff ff       	call   100258 <brelse>
  101635:	83 c4 10             	add    $0x10,%esp
/u/s/h/shirui/private/cs537/p3a/p3/xv6-sp20/kernel/fs.c:163
  101638:	8b 45 f4             	mov    -0xc(%ebp),%eax
  10163b:	83 ec 08             	sub    $0x8,%esp
  10163e:	50                   	push   %eax
  10163f:	ff 75 08             	pushl  0x8(%ebp)
  101642:	e8 ef 00 00 00       	call   101736 <iget>
  101647:	83 c4 10             	add    $0x10,%esp
  10164a:	eb 2d                	jmp    101679 <ialloc+0xdf>
/u/s/h/shirui/private/cs537/p3a/p3/xv6-sp20/kernel/fs.c:165 (discriminator 2)
  10164c:	83 ec 0c             	sub    $0xc,%esp
  10164f:	ff 75 f0             	pushl  -0x10(%ebp)
  101652:	e8 01 ec ff ff       	call   100258 <brelse>
  101657:	83 c4 10             	add    $0x10,%esp
/u/s/h/shirui/private/cs537/p3a/p3/xv6-sp20/kernel/fs.c:155 (discriminator 2)
  10165a:	83 45 f4 01          	addl   $0x1,-0xc(%ebp)
/u/s/h/shirui/private/cs537/p3a/p3/xv6-sp20/kernel/fs.c:155 (discriminator 1)
  10165e:	8b 55 e8             	mov    -0x18(%ebp),%edx
  101661:	8b 45 f4             	mov    -0xc(%ebp),%eax
  101664:	39 c2                	cmp    %eax,%edx
  101666:	0f 87 5a ff ff ff    	ja     1015c6 <ialloc+0x2c>
/u/s/h/shirui/private/cs537/p3a/p3/xv6-sp20/kernel/fs.c:167
  10166c:	83 ec 0c             	sub    $0xc,%esp
  10166f:	68 c4 7f 10 00       	push   $0x107fc4
  101674:	e8 ff ee ff ff       	call   100578 <panic>
/u/s/h/shirui/private/cs537/p3a/p3/xv6-sp20/kernel/fs.c:168
  101679:	c9                   	leave  
  10167a:	c3                   	ret    

0010167b <iupdate>:
iupdate():
/u/s/h/shirui/private/cs537/p3a/p3/xv6-sp20/kernel/fs.c:173
  10167b:	55                   	push   %ebp
  10167c:	89 e5                	mov    %esp,%ebp
  10167e:	83 ec 18             	sub    $0x18,%esp
/u/s/h/shirui/private/cs537/p3a/p3/xv6-sp20/kernel/fs.c:177
  101681:	8b 45 08             	mov    0x8(%ebp),%eax
  101684:	8b 40 04             	mov    0x4(%eax),%eax
  101687:	c1 e8 03             	shr    $0x3,%eax
  10168a:	8d 50 02             	lea    0x2(%eax),%edx
  10168d:	8b 45 08             	mov    0x8(%ebp),%eax
  101690:	8b 00                	mov    (%eax),%eax
  101692:	83 ec 08             	sub    $0x8,%esp
  101695:	52                   	push   %edx
  101696:	50                   	push   %eax
  101697:	e8 44 eb ff ff       	call   1001e0 <bread>
  10169c:	83 c4 10             	add    $0x10,%esp
  10169f:	89 45 f4             	mov    %eax,-0xc(%ebp)
/u/s/h/shirui/private/cs537/p3a/p3/xv6-sp20/kernel/fs.c:178
  1016a2:	8b 45 f4             	mov    -0xc(%ebp),%eax
  1016a5:	8d 50 18             	lea    0x18(%eax),%edx
  1016a8:	8b 45 08             	mov    0x8(%ebp),%eax
  1016ab:	8b 40 04             	mov    0x4(%eax),%eax
  1016ae:	83 e0 07             	and    $0x7,%eax
  1016b1:	c1 e0 06             	shl    $0x6,%eax
  1016b4:	01 d0                	add    %edx,%eax
  1016b6:	89 45 f0             	mov    %eax,-0x10(%ebp)
/u/s/h/shirui/private/cs537/p3a/p3/xv6-sp20/kernel/fs.c:179
  1016b9:	8b 45 08             	mov    0x8(%ebp),%eax
  1016bc:	0f b7 50 10          	movzwl 0x10(%eax),%edx
  1016c0:	8b 45 f0             	mov    -0x10(%ebp),%eax
  1016c3:	66 89 10             	mov    %dx,(%eax)
/u/s/h/shirui/private/cs537/p3a/p3/xv6-sp20/kernel/fs.c:180
  1016c6:	8b 45 08             	mov    0x8(%ebp),%eax
  1016c9:	0f b7 50 12          	movzwl 0x12(%eax),%edx
  1016cd:	8b 45 f0             	mov    -0x10(%ebp),%eax
  1016d0:	66 89 50 02          	mov    %dx,0x2(%eax)
/u/s/h/shirui/private/cs537/p3a/p3/xv6-sp20/kernel/fs.c:181
  1016d4:	8b 45 08             	mov    0x8(%ebp),%eax
  1016d7:	0f b7 50 14          	movzwl 0x14(%eax),%edx
  1016db:	8b 45 f0             	mov    -0x10(%ebp),%eax
  1016de:	66 89 50 04          	mov    %dx,0x4(%eax)
/u/s/h/shirui/private/cs537/p3a/p3/xv6-sp20/kernel/fs.c:182
  1016e2:	8b 45 08             	mov    0x8(%ebp),%eax
  1016e5:	0f b7 50 16          	movzwl 0x16(%eax),%edx
  1016e9:	8b 45 f0             	mov    -0x10(%ebp),%eax
  1016ec:	66 89 50 06          	mov    %dx,0x6(%eax)
/u/s/h/shirui/private/cs537/p3a/p3/xv6-sp20/kernel/fs.c:183
  1016f0:	8b 45 08             	mov    0x8(%ebp),%eax
  1016f3:	8b 50 18             	mov    0x18(%eax),%edx
  1016f6:	8b 45 f0             	mov    -0x10(%ebp),%eax
  1016f9:	89 50 08             	mov    %edx,0x8(%eax)
/u/s/h/shirui/private/cs537/p3a/p3/xv6-sp20/kernel/fs.c:184
  1016fc:	8b 45 08             	mov    0x8(%ebp),%eax
  1016ff:	8d 50 1c             	lea    0x1c(%eax),%edx
  101702:	8b 45 f0             	mov    -0x10(%ebp),%eax
  101705:	83 c0 0c             	add    $0xc,%eax
  101708:	83 ec 04             	sub    $0x4,%esp
  10170b:	6a 34                	push   $0x34
  10170d:	52                   	push   %edx
  10170e:	50                   	push   %eax
  10170f:	e8 1b 34 00 00       	call   104b2f <memmove>
  101714:	83 c4 10             	add    $0x10,%esp
/u/s/h/shirui/private/cs537/p3a/p3/xv6-sp20/kernel/fs.c:185
  101717:	83 ec 0c             	sub    $0xc,%esp
  10171a:	ff 75 f4             	pushl  -0xc(%ebp)
  10171d:	e8 f7 ea ff ff       	call   100219 <bwrite>
  101722:	83 c4 10             	add    $0x10,%esp
/u/s/h/shirui/private/cs537/p3a/p3/xv6-sp20/kernel/fs.c:186
  101725:	83 ec 0c             	sub    $0xc,%esp
  101728:	ff 75 f4             	pushl  -0xc(%ebp)
  10172b:	e8 28 eb ff ff       	call   100258 <brelse>
  101730:	83 c4 10             	add    $0x10,%esp
/u/s/h/shirui/private/cs537/p3a/p3/xv6-sp20/kernel/fs.c:187
  101733:	90                   	nop
  101734:	c9                   	leave  
  101735:	c3                   	ret    

00101736 <iget>:
iget():
/u/s/h/shirui/private/cs537/p3a/p3/xv6-sp20/kernel/fs.c:193
  101736:	55                   	push   %ebp
  101737:	89 e5                	mov    %esp,%ebp
  101739:	83 ec 18             	sub    $0x18,%esp
/u/s/h/shirui/private/cs537/p3a/p3/xv6-sp20/kernel/fs.c:196
  10173c:	83 ec 0c             	sub    $0xc,%esp
  10173f:	68 80 ed 10 00       	push   $0x10ed80
  101744:	e8 37 31 00 00       	call   104880 <acquire>
  101749:	83 c4 10             	add    $0x10,%esp
/u/s/h/shirui/private/cs537/p3a/p3/xv6-sp20/kernel/fs.c:199
  10174c:	c7 45 f0 00 00 00 00 	movl   $0x0,-0x10(%ebp)
/u/s/h/shirui/private/cs537/p3a/p3/xv6-sp20/kernel/fs.c:200
  101753:	c7 45 f4 b4 ed 10 00 	movl   $0x10edb4,-0xc(%ebp)
  10175a:	eb 5d                	jmp    1017b9 <iget+0x83>
/u/s/h/shirui/private/cs537/p3a/p3/xv6-sp20/kernel/fs.c:201
  10175c:	8b 45 f4             	mov    -0xc(%ebp),%eax
  10175f:	8b 40 08             	mov    0x8(%eax),%eax
  101762:	85 c0                	test   %eax,%eax
  101764:	7e 39                	jle    10179f <iget+0x69>
/u/s/h/shirui/private/cs537/p3a/p3/xv6-sp20/kernel/fs.c:201 (discriminator 1)
  101766:	8b 45 f4             	mov    -0xc(%ebp),%eax
  101769:	8b 00                	mov    (%eax),%eax
  10176b:	39 45 08             	cmp    %eax,0x8(%ebp)
  10176e:	75 2f                	jne    10179f <iget+0x69>
/u/s/h/shirui/private/cs537/p3a/p3/xv6-sp20/kernel/fs.c:201 (discriminator 2)
  101770:	8b 45 f4             	mov    -0xc(%ebp),%eax
  101773:	8b 40 04             	mov    0x4(%eax),%eax
  101776:	39 45 0c             	cmp    %eax,0xc(%ebp)
  101779:	75 24                	jne    10179f <iget+0x69>
/u/s/h/shirui/private/cs537/p3a/p3/xv6-sp20/kernel/fs.c:202
  10177b:	8b 45 f4             	mov    -0xc(%ebp),%eax
  10177e:	8b 40 08             	mov    0x8(%eax),%eax
  101781:	8d 50 01             	lea    0x1(%eax),%edx
  101784:	8b 45 f4             	mov    -0xc(%ebp),%eax
  101787:	89 50 08             	mov    %edx,0x8(%eax)
/u/s/h/shirui/private/cs537/p3a/p3/xv6-sp20/kernel/fs.c:203
  10178a:	83 ec 0c             	sub    $0xc,%esp
  10178d:	68 80 ed 10 00       	push   $0x10ed80
  101792:	e8 50 31 00 00       	call   1048e7 <release>
  101797:	83 c4 10             	add    $0x10,%esp
/u/s/h/shirui/private/cs537/p3a/p3/xv6-sp20/kernel/fs.c:204
  10179a:	8b 45 f4             	mov    -0xc(%ebp),%eax
  10179d:	eb 74                	jmp    101813 <iget+0xdd>
/u/s/h/shirui/private/cs537/p3a/p3/xv6-sp20/kernel/fs.c:206
  10179f:	83 7d f0 00          	cmpl   $0x0,-0x10(%ebp)
  1017a3:	75 10                	jne    1017b5 <iget+0x7f>
/u/s/h/shirui/private/cs537/p3a/p3/xv6-sp20/kernel/fs.c:206 (discriminator 1)
  1017a5:	8b 45 f4             	mov    -0xc(%ebp),%eax
  1017a8:	8b 40 08             	mov    0x8(%eax),%eax
  1017ab:	85 c0                	test   %eax,%eax
  1017ad:	75 06                	jne    1017b5 <iget+0x7f>
/u/s/h/shirui/private/cs537/p3a/p3/xv6-sp20/kernel/fs.c:207
  1017af:	8b 45 f4             	mov    -0xc(%ebp),%eax
  1017b2:	89 45 f0             	mov    %eax,-0x10(%ebp)
/u/s/h/shirui/private/cs537/p3a/p3/xv6-sp20/kernel/fs.c:200 (discriminator 2)
  1017b5:	83 45 f4 50          	addl   $0x50,-0xc(%ebp)
/u/s/h/shirui/private/cs537/p3a/p3/xv6-sp20/kernel/fs.c:200 (discriminator 1)
  1017b9:	81 7d f4 54 fd 10 00 	cmpl   $0x10fd54,-0xc(%ebp)
  1017c0:	72 9a                	jb     10175c <iget+0x26>
/u/s/h/shirui/private/cs537/p3a/p3/xv6-sp20/kernel/fs.c:211
  1017c2:	83 7d f0 00          	cmpl   $0x0,-0x10(%ebp)
  1017c6:	75 0d                	jne    1017d5 <iget+0x9f>
/u/s/h/shirui/private/cs537/p3a/p3/xv6-sp20/kernel/fs.c:212
  1017c8:	83 ec 0c             	sub    $0xc,%esp
  1017cb:	68 d6 7f 10 00       	push   $0x107fd6
  1017d0:	e8 a3 ed ff ff       	call   100578 <panic>
/u/s/h/shirui/private/cs537/p3a/p3/xv6-sp20/kernel/fs.c:214
  1017d5:	8b 45 f0             	mov    -0x10(%ebp),%eax
  1017d8:	89 45 f4             	mov    %eax,-0xc(%ebp)
/u/s/h/shirui/private/cs537/p3a/p3/xv6-sp20/kernel/fs.c:215
  1017db:	8b 45 f4             	mov    -0xc(%ebp),%eax
  1017de:	8b 55 08             	mov    0x8(%ebp),%edx
  1017e1:	89 10                	mov    %edx,(%eax)
/u/s/h/shirui/private/cs537/p3a/p3/xv6-sp20/kernel/fs.c:216
  1017e3:	8b 45 f4             	mov    -0xc(%ebp),%eax
  1017e6:	8b 55 0c             	mov    0xc(%ebp),%edx
  1017e9:	89 50 04             	mov    %edx,0x4(%eax)
/u/s/h/shirui/private/cs537/p3a/p3/xv6-sp20/kernel/fs.c:217
  1017ec:	8b 45 f4             	mov    -0xc(%ebp),%eax
  1017ef:	c7 40 08 01 00 00 00 	movl   $0x1,0x8(%eax)
/u/s/h/shirui/private/cs537/p3a/p3/xv6-sp20/kernel/fs.c:218
  1017f6:	8b 45 f4             	mov    -0xc(%ebp),%eax
  1017f9:	c7 40 0c 00 00 00 00 	movl   $0x0,0xc(%eax)
/u/s/h/shirui/private/cs537/p3a/p3/xv6-sp20/kernel/fs.c:219
  101800:	83 ec 0c             	sub    $0xc,%esp
  101803:	68 80 ed 10 00       	push   $0x10ed80
  101808:	e8 da 30 00 00       	call   1048e7 <release>
  10180d:	83 c4 10             	add    $0x10,%esp
/u/s/h/shirui/private/cs537/p3a/p3/xv6-sp20/kernel/fs.c:221
  101810:	8b 45 f4             	mov    -0xc(%ebp),%eax
/u/s/h/shirui/private/cs537/p3a/p3/xv6-sp20/kernel/fs.c:222
  101813:	c9                   	leave  
  101814:	c3                   	ret    

00101815 <idup>:
idup():
/u/s/h/shirui/private/cs537/p3a/p3/xv6-sp20/kernel/fs.c:228
  101815:	55                   	push   %ebp
  101816:	89 e5                	mov    %esp,%ebp
  101818:	83 ec 08             	sub    $0x8,%esp
/u/s/h/shirui/private/cs537/p3a/p3/xv6-sp20/kernel/fs.c:229
  10181b:	83 ec 0c             	sub    $0xc,%esp
  10181e:	68 80 ed 10 00       	push   $0x10ed80
  101823:	e8 58 30 00 00       	call   104880 <acquire>
  101828:	83 c4 10             	add    $0x10,%esp
/u/s/h/shirui/private/cs537/p3a/p3/xv6-sp20/kernel/fs.c:230
  10182b:	8b 45 08             	mov    0x8(%ebp),%eax
  10182e:	8b 40 08             	mov    0x8(%eax),%eax
  101831:	8d 50 01             	lea    0x1(%eax),%edx
  101834:	8b 45 08             	mov    0x8(%ebp),%eax
  101837:	89 50 08             	mov    %edx,0x8(%eax)
/u/s/h/shirui/private/cs537/p3a/p3/xv6-sp20/kernel/fs.c:231
  10183a:	83 ec 0c             	sub    $0xc,%esp
  10183d:	68 80 ed 10 00       	push   $0x10ed80
  101842:	e8 a0 30 00 00       	call   1048e7 <release>
  101847:	83 c4 10             	add    $0x10,%esp
/u/s/h/shirui/private/cs537/p3a/p3/xv6-sp20/kernel/fs.c:232
  10184a:	8b 45 08             	mov    0x8(%ebp),%eax
/u/s/h/shirui/private/cs537/p3a/p3/xv6-sp20/kernel/fs.c:233
  10184d:	c9                   	leave  
  10184e:	c3                   	ret    

0010184f <ilock>:
ilock():
/u/s/h/shirui/private/cs537/p3a/p3/xv6-sp20/kernel/fs.c:238
  10184f:	55                   	push   %ebp
  101850:	89 e5                	mov    %esp,%ebp
  101852:	83 ec 18             	sub    $0x18,%esp
/u/s/h/shirui/private/cs537/p3a/p3/xv6-sp20/kernel/fs.c:242
  101855:	83 7d 08 00          	cmpl   $0x0,0x8(%ebp)
  101859:	74 0a                	je     101865 <ilock+0x16>
/u/s/h/shirui/private/cs537/p3a/p3/xv6-sp20/kernel/fs.c:242 (discriminator 1)
  10185b:	8b 45 08             	mov    0x8(%ebp),%eax
  10185e:	8b 40 08             	mov    0x8(%eax),%eax
  101861:	85 c0                	test   %eax,%eax
  101863:	7f 0d                	jg     101872 <ilock+0x23>
/u/s/h/shirui/private/cs537/p3a/p3/xv6-sp20/kernel/fs.c:243
  101865:	83 ec 0c             	sub    $0xc,%esp
  101868:	68 e6 7f 10 00       	push   $0x107fe6
  10186d:	e8 06 ed ff ff       	call   100578 <panic>
/u/s/h/shirui/private/cs537/p3a/p3/xv6-sp20/kernel/fs.c:245
  101872:	83 ec 0c             	sub    $0xc,%esp
  101875:	68 80 ed 10 00       	push   $0x10ed80
  10187a:	e8 01 30 00 00       	call   104880 <acquire>
  10187f:	83 c4 10             	add    $0x10,%esp
/u/s/h/shirui/private/cs537/p3a/p3/xv6-sp20/kernel/fs.c:246
  101882:	eb 13                	jmp    101897 <ilock+0x48>
/u/s/h/shirui/private/cs537/p3a/p3/xv6-sp20/kernel/fs.c:247
  101884:	83 ec 08             	sub    $0x8,%esp
  101887:	68 80 ed 10 00       	push   $0x10ed80
  10188c:	ff 75 08             	pushl  0x8(%ebp)
  10188f:	e8 f3 2c 00 00       	call   104587 <sleep>
  101894:	83 c4 10             	add    $0x10,%esp
/u/s/h/shirui/private/cs537/p3a/p3/xv6-sp20/kernel/fs.c:246
  101897:	8b 45 08             	mov    0x8(%ebp),%eax
  10189a:	8b 40 0c             	mov    0xc(%eax),%eax
  10189d:	83 e0 01             	and    $0x1,%eax
  1018a0:	85 c0                	test   %eax,%eax
  1018a2:	75 e0                	jne    101884 <ilock+0x35>
/u/s/h/shirui/private/cs537/p3a/p3/xv6-sp20/kernel/fs.c:248
  1018a4:	8b 45 08             	mov    0x8(%ebp),%eax
  1018a7:	8b 40 0c             	mov    0xc(%eax),%eax
  1018aa:	83 c8 01             	or     $0x1,%eax
  1018ad:	89 c2                	mov    %eax,%edx
  1018af:	8b 45 08             	mov    0x8(%ebp),%eax
  1018b2:	89 50 0c             	mov    %edx,0xc(%eax)
/u/s/h/shirui/private/cs537/p3a/p3/xv6-sp20/kernel/fs.c:249
  1018b5:	83 ec 0c             	sub    $0xc,%esp
  1018b8:	68 80 ed 10 00       	push   $0x10ed80
  1018bd:	e8 25 30 00 00       	call   1048e7 <release>
  1018c2:	83 c4 10             	add    $0x10,%esp
/u/s/h/shirui/private/cs537/p3a/p3/xv6-sp20/kernel/fs.c:251
  1018c5:	8b 45 08             	mov    0x8(%ebp),%eax
  1018c8:	8b 40 0c             	mov    0xc(%eax),%eax
  1018cb:	83 e0 02             	and    $0x2,%eax
  1018ce:	85 c0                	test   %eax,%eax
  1018d0:	0f 85 ce 00 00 00    	jne    1019a4 <ilock+0x155>
/u/s/h/shirui/private/cs537/p3a/p3/xv6-sp20/kernel/fs.c:252
  1018d6:	8b 45 08             	mov    0x8(%ebp),%eax
  1018d9:	8b 40 04             	mov    0x4(%eax),%eax
  1018dc:	c1 e8 03             	shr    $0x3,%eax
  1018df:	8d 50 02             	lea    0x2(%eax),%edx
  1018e2:	8b 45 08             	mov    0x8(%ebp),%eax
  1018e5:	8b 00                	mov    (%eax),%eax
  1018e7:	83 ec 08             	sub    $0x8,%esp
  1018ea:	52                   	push   %edx
  1018eb:	50                   	push   %eax
  1018ec:	e8 ef e8 ff ff       	call   1001e0 <bread>
  1018f1:	83 c4 10             	add    $0x10,%esp
  1018f4:	89 45 f4             	mov    %eax,-0xc(%ebp)
/u/s/h/shirui/private/cs537/p3a/p3/xv6-sp20/kernel/fs.c:253
  1018f7:	8b 45 f4             	mov    -0xc(%ebp),%eax
  1018fa:	8d 50 18             	lea    0x18(%eax),%edx
  1018fd:	8b 45 08             	mov    0x8(%ebp),%eax
  101900:	8b 40 04             	mov    0x4(%eax),%eax
  101903:	83 e0 07             	and    $0x7,%eax
  101906:	c1 e0 06             	shl    $0x6,%eax
  101909:	01 d0                	add    %edx,%eax
  10190b:	89 45 f0             	mov    %eax,-0x10(%ebp)
/u/s/h/shirui/private/cs537/p3a/p3/xv6-sp20/kernel/fs.c:254
  10190e:	8b 45 f0             	mov    -0x10(%ebp),%eax
  101911:	0f b7 10             	movzwl (%eax),%edx
  101914:	8b 45 08             	mov    0x8(%ebp),%eax
  101917:	66 89 50 10          	mov    %dx,0x10(%eax)
/u/s/h/shirui/private/cs537/p3a/p3/xv6-sp20/kernel/fs.c:255
  10191b:	8b 45 f0             	mov    -0x10(%ebp),%eax
  10191e:	0f b7 50 02          	movzwl 0x2(%eax),%edx
  101922:	8b 45 08             	mov    0x8(%ebp),%eax
  101925:	66 89 50 12          	mov    %dx,0x12(%eax)
/u/s/h/shirui/private/cs537/p3a/p3/xv6-sp20/kernel/fs.c:256
  101929:	8b 45 f0             	mov    -0x10(%ebp),%eax
  10192c:	0f b7 50 04          	movzwl 0x4(%eax),%edx
  101930:	8b 45 08             	mov    0x8(%ebp),%eax
  101933:	66 89 50 14          	mov    %dx,0x14(%eax)
/u/s/h/shirui/private/cs537/p3a/p3/xv6-sp20/kernel/fs.c:257
  101937:	8b 45 f0             	mov    -0x10(%ebp),%eax
  10193a:	0f b7 50 06          	movzwl 0x6(%eax),%edx
  10193e:	8b 45 08             	mov    0x8(%ebp),%eax
  101941:	66 89 50 16          	mov    %dx,0x16(%eax)
/u/s/h/shirui/private/cs537/p3a/p3/xv6-sp20/kernel/fs.c:258
  101945:	8b 45 f0             	mov    -0x10(%ebp),%eax
  101948:	8b 50 08             	mov    0x8(%eax),%edx
  10194b:	8b 45 08             	mov    0x8(%ebp),%eax
  10194e:	89 50 18             	mov    %edx,0x18(%eax)
/u/s/h/shirui/private/cs537/p3a/p3/xv6-sp20/kernel/fs.c:259
  101951:	8b 45 f0             	mov    -0x10(%ebp),%eax
  101954:	8d 50 0c             	lea    0xc(%eax),%edx
  101957:	8b 45 08             	mov    0x8(%ebp),%eax
  10195a:	83 c0 1c             	add    $0x1c,%eax
  10195d:	83 ec 04             	sub    $0x4,%esp
  101960:	6a 34                	push   $0x34
  101962:	52                   	push   %edx
  101963:	50                   	push   %eax
  101964:	e8 c6 31 00 00       	call   104b2f <memmove>
  101969:	83 c4 10             	add    $0x10,%esp
/u/s/h/shirui/private/cs537/p3a/p3/xv6-sp20/kernel/fs.c:260
  10196c:	83 ec 0c             	sub    $0xc,%esp
  10196f:	ff 75 f4             	pushl  -0xc(%ebp)
  101972:	e8 e1 e8 ff ff       	call   100258 <brelse>
  101977:	83 c4 10             	add    $0x10,%esp
/u/s/h/shirui/private/cs537/p3a/p3/xv6-sp20/kernel/fs.c:261
  10197a:	8b 45 08             	mov    0x8(%ebp),%eax
  10197d:	8b 40 0c             	mov    0xc(%eax),%eax
  101980:	83 c8 02             	or     $0x2,%eax
  101983:	89 c2                	mov    %eax,%edx
  101985:	8b 45 08             	mov    0x8(%ebp),%eax
  101988:	89 50 0c             	mov    %edx,0xc(%eax)
/u/s/h/shirui/private/cs537/p3a/p3/xv6-sp20/kernel/fs.c:262
  10198b:	8b 45 08             	mov    0x8(%ebp),%eax
  10198e:	0f b7 40 10          	movzwl 0x10(%eax),%eax
  101992:	66 85 c0             	test   %ax,%ax
  101995:	75 0d                	jne    1019a4 <ilock+0x155>
/u/s/h/shirui/private/cs537/p3a/p3/xv6-sp20/kernel/fs.c:263
  101997:	83 ec 0c             	sub    $0xc,%esp
  10199a:	68 ec 7f 10 00       	push   $0x107fec
  10199f:	e8 d4 eb ff ff       	call   100578 <panic>
/u/s/h/shirui/private/cs537/p3a/p3/xv6-sp20/kernel/fs.c:265
  1019a4:	90                   	nop
  1019a5:	c9                   	leave  
  1019a6:	c3                   	ret    

001019a7 <iunlock>:
iunlock():
/u/s/h/shirui/private/cs537/p3a/p3/xv6-sp20/kernel/fs.c:270
  1019a7:	55                   	push   %ebp
  1019a8:	89 e5                	mov    %esp,%ebp
  1019aa:	83 ec 08             	sub    $0x8,%esp
/u/s/h/shirui/private/cs537/p3a/p3/xv6-sp20/kernel/fs.c:271
  1019ad:	83 7d 08 00          	cmpl   $0x0,0x8(%ebp)
  1019b1:	74 17                	je     1019ca <iunlock+0x23>
/u/s/h/shirui/private/cs537/p3a/p3/xv6-sp20/kernel/fs.c:271 (discriminator 1)
  1019b3:	8b 45 08             	mov    0x8(%ebp),%eax
  1019b6:	8b 40 0c             	mov    0xc(%eax),%eax
  1019b9:	83 e0 01             	and    $0x1,%eax
  1019bc:	85 c0                	test   %eax,%eax
  1019be:	74 0a                	je     1019ca <iunlock+0x23>
/u/s/h/shirui/private/cs537/p3a/p3/xv6-sp20/kernel/fs.c:271 (discriminator 2)
  1019c0:	8b 45 08             	mov    0x8(%ebp),%eax
  1019c3:	8b 40 08             	mov    0x8(%eax),%eax
  1019c6:	85 c0                	test   %eax,%eax
  1019c8:	7f 0d                	jg     1019d7 <iunlock+0x30>
/u/s/h/shirui/private/cs537/p3a/p3/xv6-sp20/kernel/fs.c:272
  1019ca:	83 ec 0c             	sub    $0xc,%esp
  1019cd:	68 fb 7f 10 00       	push   $0x107ffb
  1019d2:	e8 a1 eb ff ff       	call   100578 <panic>
/u/s/h/shirui/private/cs537/p3a/p3/xv6-sp20/kernel/fs.c:274
  1019d7:	83 ec 0c             	sub    $0xc,%esp
  1019da:	68 80 ed 10 00       	push   $0x10ed80
  1019df:	e8 9c 2e 00 00       	call   104880 <acquire>
  1019e4:	83 c4 10             	add    $0x10,%esp
/u/s/h/shirui/private/cs537/p3a/p3/xv6-sp20/kernel/fs.c:275
  1019e7:	8b 45 08             	mov    0x8(%ebp),%eax
  1019ea:	8b 40 0c             	mov    0xc(%eax),%eax
  1019ed:	83 e0 fe             	and    $0xfffffffe,%eax
  1019f0:	89 c2                	mov    %eax,%edx
  1019f2:	8b 45 08             	mov    0x8(%ebp),%eax
  1019f5:	89 50 0c             	mov    %edx,0xc(%eax)
/u/s/h/shirui/private/cs537/p3a/p3/xv6-sp20/kernel/fs.c:276
  1019f8:	83 ec 0c             	sub    $0xc,%esp
  1019fb:	ff 75 08             	pushl  0x8(%ebp)
  1019fe:	e8 6f 2c 00 00       	call   104672 <wakeup>
  101a03:	83 c4 10             	add    $0x10,%esp
/u/s/h/shirui/private/cs537/p3a/p3/xv6-sp20/kernel/fs.c:277
  101a06:	83 ec 0c             	sub    $0xc,%esp
  101a09:	68 80 ed 10 00       	push   $0x10ed80
  101a0e:	e8 d4 2e 00 00       	call   1048e7 <release>
  101a13:	83 c4 10             	add    $0x10,%esp
/u/s/h/shirui/private/cs537/p3a/p3/xv6-sp20/kernel/fs.c:278
  101a16:	90                   	nop
  101a17:	c9                   	leave  
  101a18:	c3                   	ret    

00101a19 <iput>:
iput():
/u/s/h/shirui/private/cs537/p3a/p3/xv6-sp20/kernel/fs.c:283
  101a19:	55                   	push   %ebp
  101a1a:	89 e5                	mov    %esp,%ebp
  101a1c:	83 ec 08             	sub    $0x8,%esp
/u/s/h/shirui/private/cs537/p3a/p3/xv6-sp20/kernel/fs.c:284
  101a1f:	83 ec 0c             	sub    $0xc,%esp
  101a22:	68 80 ed 10 00       	push   $0x10ed80
  101a27:	e8 54 2e 00 00       	call   104880 <acquire>
  101a2c:	83 c4 10             	add    $0x10,%esp
/u/s/h/shirui/private/cs537/p3a/p3/xv6-sp20/kernel/fs.c:285
  101a2f:	8b 45 08             	mov    0x8(%ebp),%eax
  101a32:	8b 40 08             	mov    0x8(%eax),%eax
  101a35:	83 f8 01             	cmp    $0x1,%eax
  101a38:	0f 85 a9 00 00 00    	jne    101ae7 <iput+0xce>
/u/s/h/shirui/private/cs537/p3a/p3/xv6-sp20/kernel/fs.c:285 (discriminator 1)
  101a3e:	8b 45 08             	mov    0x8(%ebp),%eax
  101a41:	8b 40 0c             	mov    0xc(%eax),%eax
  101a44:	83 e0 02             	and    $0x2,%eax
  101a47:	85 c0                	test   %eax,%eax
  101a49:	0f 84 98 00 00 00    	je     101ae7 <iput+0xce>
/u/s/h/shirui/private/cs537/p3a/p3/xv6-sp20/kernel/fs.c:285 (discriminator 2)
  101a4f:	8b 45 08             	mov    0x8(%ebp),%eax
  101a52:	0f b7 40 16          	movzwl 0x16(%eax),%eax
  101a56:	66 85 c0             	test   %ax,%ax
  101a59:	0f 85 88 00 00 00    	jne    101ae7 <iput+0xce>
/u/s/h/shirui/private/cs537/p3a/p3/xv6-sp20/kernel/fs.c:287
  101a5f:	8b 45 08             	mov    0x8(%ebp),%eax
  101a62:	8b 40 0c             	mov    0xc(%eax),%eax
  101a65:	83 e0 01             	and    $0x1,%eax
  101a68:	85 c0                	test   %eax,%eax
  101a6a:	74 0d                	je     101a79 <iput+0x60>
/u/s/h/shirui/private/cs537/p3a/p3/xv6-sp20/kernel/fs.c:288
  101a6c:	83 ec 0c             	sub    $0xc,%esp
  101a6f:	68 03 80 10 00       	push   $0x108003
  101a74:	e8 ff ea ff ff       	call   100578 <panic>
/u/s/h/shirui/private/cs537/p3a/p3/xv6-sp20/kernel/fs.c:289
  101a79:	8b 45 08             	mov    0x8(%ebp),%eax
  101a7c:	8b 40 0c             	mov    0xc(%eax),%eax
  101a7f:	83 c8 01             	or     $0x1,%eax
  101a82:	89 c2                	mov    %eax,%edx
  101a84:	8b 45 08             	mov    0x8(%ebp),%eax
  101a87:	89 50 0c             	mov    %edx,0xc(%eax)
/u/s/h/shirui/private/cs537/p3a/p3/xv6-sp20/kernel/fs.c:290
  101a8a:	83 ec 0c             	sub    $0xc,%esp
  101a8d:	68 80 ed 10 00       	push   $0x10ed80
  101a92:	e8 50 2e 00 00       	call   1048e7 <release>
  101a97:	83 c4 10             	add    $0x10,%esp
/u/s/h/shirui/private/cs537/p3a/p3/xv6-sp20/kernel/fs.c:291
  101a9a:	83 ec 0c             	sub    $0xc,%esp
  101a9d:	ff 75 08             	pushl  0x8(%ebp)
  101aa0:	e8 a3 01 00 00       	call   101c48 <itrunc>
  101aa5:	83 c4 10             	add    $0x10,%esp
/u/s/h/shirui/private/cs537/p3a/p3/xv6-sp20/kernel/fs.c:292
  101aa8:	8b 45 08             	mov    0x8(%ebp),%eax
  101aab:	66 c7 40 10 00 00    	movw   $0x0,0x10(%eax)
/u/s/h/shirui/private/cs537/p3a/p3/xv6-sp20/kernel/fs.c:293
  101ab1:	83 ec 0c             	sub    $0xc,%esp
  101ab4:	ff 75 08             	pushl  0x8(%ebp)
  101ab7:	e8 bf fb ff ff       	call   10167b <iupdate>
  101abc:	83 c4 10             	add    $0x10,%esp
/u/s/h/shirui/private/cs537/p3a/p3/xv6-sp20/kernel/fs.c:294
  101abf:	83 ec 0c             	sub    $0xc,%esp
  101ac2:	68 80 ed 10 00       	push   $0x10ed80
  101ac7:	e8 b4 2d 00 00       	call   104880 <acquire>
  101acc:	83 c4 10             	add    $0x10,%esp
/u/s/h/shirui/private/cs537/p3a/p3/xv6-sp20/kernel/fs.c:295
  101acf:	8b 45 08             	mov    0x8(%ebp),%eax
  101ad2:	c7 40 0c 00 00 00 00 	movl   $0x0,0xc(%eax)
/u/s/h/shirui/private/cs537/p3a/p3/xv6-sp20/kernel/fs.c:296
  101ad9:	83 ec 0c             	sub    $0xc,%esp
  101adc:	ff 75 08             	pushl  0x8(%ebp)
  101adf:	e8 8e 2b 00 00       	call   104672 <wakeup>
  101ae4:	83 c4 10             	add    $0x10,%esp
/u/s/h/shirui/private/cs537/p3a/p3/xv6-sp20/kernel/fs.c:298
  101ae7:	8b 45 08             	mov    0x8(%ebp),%eax
  101aea:	8b 40 08             	mov    0x8(%eax),%eax
  101aed:	8d 50 ff             	lea    -0x1(%eax),%edx
  101af0:	8b 45 08             	mov    0x8(%ebp),%eax
  101af3:	89 50 08             	mov    %edx,0x8(%eax)
/u/s/h/shirui/private/cs537/p3a/p3/xv6-sp20/kernel/fs.c:299
  101af6:	83 ec 0c             	sub    $0xc,%esp
  101af9:	68 80 ed 10 00       	push   $0x10ed80
  101afe:	e8 e4 2d 00 00       	call   1048e7 <release>
  101b03:	83 c4 10             	add    $0x10,%esp
/u/s/h/shirui/private/cs537/p3a/p3/xv6-sp20/kernel/fs.c:300
  101b06:	90                   	nop
  101b07:	c9                   	leave  
  101b08:	c3                   	ret    

00101b09 <iunlockput>:
iunlockput():
/u/s/h/shirui/private/cs537/p3a/p3/xv6-sp20/kernel/fs.c:305
  101b09:	55                   	push   %ebp
  101b0a:	89 e5                	mov    %esp,%ebp
  101b0c:	83 ec 08             	sub    $0x8,%esp
/u/s/h/shirui/private/cs537/p3a/p3/xv6-sp20/kernel/fs.c:306
  101b0f:	83 ec 0c             	sub    $0xc,%esp
  101b12:	ff 75 08             	pushl  0x8(%ebp)
  101b15:	e8 8d fe ff ff       	call   1019a7 <iunlock>
  101b1a:	83 c4 10             	add    $0x10,%esp
/u/s/h/shirui/private/cs537/p3a/p3/xv6-sp20/kernel/fs.c:307
  101b1d:	83 ec 0c             	sub    $0xc,%esp
  101b20:	ff 75 08             	pushl  0x8(%ebp)
  101b23:	e8 f1 fe ff ff       	call   101a19 <iput>
  101b28:	83 c4 10             	add    $0x10,%esp
/u/s/h/shirui/private/cs537/p3a/p3/xv6-sp20/kernel/fs.c:308
  101b2b:	90                   	nop
  101b2c:	c9                   	leave  
  101b2d:	c3                   	ret    

00101b2e <bmap>:
bmap():
/u/s/h/shirui/private/cs537/p3a/p3/xv6-sp20/kernel/fs.c:321
  101b2e:	55                   	push   %ebp
  101b2f:	89 e5                	mov    %esp,%ebp
  101b31:	83 ec 18             	sub    $0x18,%esp
/u/s/h/shirui/private/cs537/p3a/p3/xv6-sp20/kernel/fs.c:325
  101b34:	83 7d 0c 0b          	cmpl   $0xb,0xc(%ebp)
  101b38:	77 42                	ja     101b7c <bmap+0x4e>
/u/s/h/shirui/private/cs537/p3a/p3/xv6-sp20/kernel/fs.c:326
  101b3a:	8b 45 08             	mov    0x8(%ebp),%eax
  101b3d:	8b 55 0c             	mov    0xc(%ebp),%edx
  101b40:	83 c2 04             	add    $0x4,%edx
  101b43:	8b 44 90 0c          	mov    0xc(%eax,%edx,4),%eax
  101b47:	89 45 f4             	mov    %eax,-0xc(%ebp)
  101b4a:	83 7d f4 00          	cmpl   $0x0,-0xc(%ebp)
  101b4e:	75 24                	jne    101b74 <bmap+0x46>
/u/s/h/shirui/private/cs537/p3a/p3/xv6-sp20/kernel/fs.c:327
  101b50:	8b 45 08             	mov    0x8(%ebp),%eax
  101b53:	8b 00                	mov    (%eax),%eax
  101b55:	83 ec 0c             	sub    $0xc,%esp
  101b58:	50                   	push   %eax
  101b59:	e8 fc f7 ff ff       	call   10135a <balloc>
  101b5e:	83 c4 10             	add    $0x10,%esp
  101b61:	89 45 f4             	mov    %eax,-0xc(%ebp)
  101b64:	8b 45 08             	mov    0x8(%ebp),%eax
  101b67:	8b 55 0c             	mov    0xc(%ebp),%edx
  101b6a:	8d 4a 04             	lea    0x4(%edx),%ecx
  101b6d:	8b 55 f4             	mov    -0xc(%ebp),%edx
  101b70:	89 54 88 0c          	mov    %edx,0xc(%eax,%ecx,4)
/u/s/h/shirui/private/cs537/p3a/p3/xv6-sp20/kernel/fs.c:328
  101b74:	8b 45 f4             	mov    -0xc(%ebp),%eax
  101b77:	e9 ca 00 00 00       	jmp    101c46 <bmap+0x118>
/u/s/h/shirui/private/cs537/p3a/p3/xv6-sp20/kernel/fs.c:330
  101b7c:	83 6d 0c 0c          	subl   $0xc,0xc(%ebp)
/u/s/h/shirui/private/cs537/p3a/p3/xv6-sp20/kernel/fs.c:332
  101b80:	83 7d 0c 7f          	cmpl   $0x7f,0xc(%ebp)
  101b84:	0f 87 af 00 00 00    	ja     101c39 <bmap+0x10b>
/u/s/h/shirui/private/cs537/p3a/p3/xv6-sp20/kernel/fs.c:334
  101b8a:	8b 45 08             	mov    0x8(%ebp),%eax
  101b8d:	8b 40 4c             	mov    0x4c(%eax),%eax
  101b90:	89 45 f4             	mov    %eax,-0xc(%ebp)
  101b93:	83 7d f4 00          	cmpl   $0x0,-0xc(%ebp)
  101b97:	75 1d                	jne    101bb6 <bmap+0x88>
/u/s/h/shirui/private/cs537/p3a/p3/xv6-sp20/kernel/fs.c:335
  101b99:	8b 45 08             	mov    0x8(%ebp),%eax
  101b9c:	8b 00                	mov    (%eax),%eax
  101b9e:	83 ec 0c             	sub    $0xc,%esp
  101ba1:	50                   	push   %eax
  101ba2:	e8 b3 f7 ff ff       	call   10135a <balloc>
  101ba7:	83 c4 10             	add    $0x10,%esp
  101baa:	89 45 f4             	mov    %eax,-0xc(%ebp)
  101bad:	8b 45 08             	mov    0x8(%ebp),%eax
  101bb0:	8b 55 f4             	mov    -0xc(%ebp),%edx
  101bb3:	89 50 4c             	mov    %edx,0x4c(%eax)
/u/s/h/shirui/private/cs537/p3a/p3/xv6-sp20/kernel/fs.c:336
  101bb6:	8b 45 08             	mov    0x8(%ebp),%eax
  101bb9:	8b 00                	mov    (%eax),%eax
  101bbb:	83 ec 08             	sub    $0x8,%esp
  101bbe:	ff 75 f4             	pushl  -0xc(%ebp)
  101bc1:	50                   	push   %eax
  101bc2:	e8 19 e6 ff ff       	call   1001e0 <bread>
  101bc7:	83 c4 10             	add    $0x10,%esp
  101bca:	89 45 f0             	mov    %eax,-0x10(%ebp)
/u/s/h/shirui/private/cs537/p3a/p3/xv6-sp20/kernel/fs.c:337
  101bcd:	8b 45 f0             	mov    -0x10(%ebp),%eax
  101bd0:	83 c0 18             	add    $0x18,%eax
  101bd3:	89 45 ec             	mov    %eax,-0x14(%ebp)
/u/s/h/shirui/private/cs537/p3a/p3/xv6-sp20/kernel/fs.c:338
  101bd6:	8b 45 0c             	mov    0xc(%ebp),%eax
  101bd9:	8d 14 85 00 00 00 00 	lea    0x0(,%eax,4),%edx
  101be0:	8b 45 ec             	mov    -0x14(%ebp),%eax
  101be3:	01 d0                	add    %edx,%eax
  101be5:	8b 00                	mov    (%eax),%eax
  101be7:	89 45 f4             	mov    %eax,-0xc(%ebp)
  101bea:	83 7d f4 00          	cmpl   $0x0,-0xc(%ebp)
  101bee:	75 36                	jne    101c26 <bmap+0xf8>
/u/s/h/shirui/private/cs537/p3a/p3/xv6-sp20/kernel/fs.c:339
  101bf0:	8b 45 08             	mov    0x8(%ebp),%eax
  101bf3:	8b 00                	mov    (%eax),%eax
  101bf5:	83 ec 0c             	sub    $0xc,%esp
  101bf8:	50                   	push   %eax
  101bf9:	e8 5c f7 ff ff       	call   10135a <balloc>
  101bfe:	83 c4 10             	add    $0x10,%esp
  101c01:	89 45 f4             	mov    %eax,-0xc(%ebp)
  101c04:	8b 45 0c             	mov    0xc(%ebp),%eax
  101c07:	8d 14 85 00 00 00 00 	lea    0x0(,%eax,4),%edx
  101c0e:	8b 45 ec             	mov    -0x14(%ebp),%eax
  101c11:	01 c2                	add    %eax,%edx
  101c13:	8b 45 f4             	mov    -0xc(%ebp),%eax
  101c16:	89 02                	mov    %eax,(%edx)
/u/s/h/shirui/private/cs537/p3a/p3/xv6-sp20/kernel/fs.c:340
  101c18:	83 ec 0c             	sub    $0xc,%esp
  101c1b:	ff 75 f0             	pushl  -0x10(%ebp)
  101c1e:	e8 f6 e5 ff ff       	call   100219 <bwrite>
  101c23:	83 c4 10             	add    $0x10,%esp
/u/s/h/shirui/private/cs537/p3a/p3/xv6-sp20/kernel/fs.c:342
  101c26:	83 ec 0c             	sub    $0xc,%esp
  101c29:	ff 75 f0             	pushl  -0x10(%ebp)
  101c2c:	e8 27 e6 ff ff       	call   100258 <brelse>
  101c31:	83 c4 10             	add    $0x10,%esp
/u/s/h/shirui/private/cs537/p3a/p3/xv6-sp20/kernel/fs.c:343
  101c34:	8b 45 f4             	mov    -0xc(%ebp),%eax
  101c37:	eb 0d                	jmp    101c46 <bmap+0x118>
/u/s/h/shirui/private/cs537/p3a/p3/xv6-sp20/kernel/fs.c:346
  101c39:	83 ec 0c             	sub    $0xc,%esp
  101c3c:	68 0d 80 10 00       	push   $0x10800d
  101c41:	e8 32 e9 ff ff       	call   100578 <panic>
/u/s/h/shirui/private/cs537/p3a/p3/xv6-sp20/kernel/fs.c:347
  101c46:	c9                   	leave  
  101c47:	c3                   	ret    

00101c48 <itrunc>:
itrunc():
/u/s/h/shirui/private/cs537/p3a/p3/xv6-sp20/kernel/fs.c:354
  101c48:	55                   	push   %ebp
  101c49:	89 e5                	mov    %esp,%ebp
  101c4b:	83 ec 18             	sub    $0x18,%esp
/u/s/h/shirui/private/cs537/p3a/p3/xv6-sp20/kernel/fs.c:359
  101c4e:	c7 45 f4 00 00 00 00 	movl   $0x0,-0xc(%ebp)
  101c55:	eb 45                	jmp    101c9c <itrunc+0x54>
/u/s/h/shirui/private/cs537/p3a/p3/xv6-sp20/kernel/fs.c:360
  101c57:	8b 45 08             	mov    0x8(%ebp),%eax
  101c5a:	8b 55 f4             	mov    -0xc(%ebp),%edx
  101c5d:	83 c2 04             	add    $0x4,%edx
  101c60:	8b 44 90 0c          	mov    0xc(%eax,%edx,4),%eax
  101c64:	85 c0                	test   %eax,%eax
  101c66:	74 30                	je     101c98 <itrunc+0x50>
/u/s/h/shirui/private/cs537/p3a/p3/xv6-sp20/kernel/fs.c:361
  101c68:	8b 45 08             	mov    0x8(%ebp),%eax
  101c6b:	8b 55 f4             	mov    -0xc(%ebp),%edx
  101c6e:	83 c2 04             	add    $0x4,%edx
  101c71:	8b 44 90 0c          	mov    0xc(%eax,%edx,4),%eax
  101c75:	8b 55 08             	mov    0x8(%ebp),%edx
  101c78:	8b 12                	mov    (%edx),%edx
  101c7a:	83 ec 08             	sub    $0x8,%esp
  101c7d:	50                   	push   %eax
  101c7e:	52                   	push   %edx
  101c7f:	e8 0b f8 ff ff       	call   10148f <bfree>
  101c84:	83 c4 10             	add    $0x10,%esp
/u/s/h/shirui/private/cs537/p3a/p3/xv6-sp20/kernel/fs.c:362
  101c87:	8b 45 08             	mov    0x8(%ebp),%eax
  101c8a:	8b 55 f4             	mov    -0xc(%ebp),%edx
  101c8d:	83 c2 04             	add    $0x4,%edx
  101c90:	c7 44 90 0c 00 00 00 	movl   $0x0,0xc(%eax,%edx,4)
  101c97:	00 
/u/s/h/shirui/private/cs537/p3a/p3/xv6-sp20/kernel/fs.c:359 (discriminator 2)
  101c98:	83 45 f4 01          	addl   $0x1,-0xc(%ebp)
/u/s/h/shirui/private/cs537/p3a/p3/xv6-sp20/kernel/fs.c:359 (discriminator 1)
  101c9c:	83 7d f4 0b          	cmpl   $0xb,-0xc(%ebp)
  101ca0:	7e b5                	jle    101c57 <itrunc+0xf>
/u/s/h/shirui/private/cs537/p3a/p3/xv6-sp20/kernel/fs.c:366
  101ca2:	8b 45 08             	mov    0x8(%ebp),%eax
  101ca5:	8b 40 4c             	mov    0x4c(%eax),%eax
  101ca8:	85 c0                	test   %eax,%eax
  101caa:	0f 84 a1 00 00 00    	je     101d51 <itrunc+0x109>
/u/s/h/shirui/private/cs537/p3a/p3/xv6-sp20/kernel/fs.c:367
  101cb0:	8b 45 08             	mov    0x8(%ebp),%eax
  101cb3:	8b 50 4c             	mov    0x4c(%eax),%edx
  101cb6:	8b 45 08             	mov    0x8(%ebp),%eax
  101cb9:	8b 00                	mov    (%eax),%eax
  101cbb:	83 ec 08             	sub    $0x8,%esp
  101cbe:	52                   	push   %edx
  101cbf:	50                   	push   %eax
  101cc0:	e8 1b e5 ff ff       	call   1001e0 <bread>
  101cc5:	83 c4 10             	add    $0x10,%esp
  101cc8:	89 45 ec             	mov    %eax,-0x14(%ebp)
/u/s/h/shirui/private/cs537/p3a/p3/xv6-sp20/kernel/fs.c:368
  101ccb:	8b 45 ec             	mov    -0x14(%ebp),%eax
  101cce:	83 c0 18             	add    $0x18,%eax
  101cd1:	89 45 e8             	mov    %eax,-0x18(%ebp)
/u/s/h/shirui/private/cs537/p3a/p3/xv6-sp20/kernel/fs.c:369
  101cd4:	c7 45 f0 00 00 00 00 	movl   $0x0,-0x10(%ebp)
  101cdb:	eb 3c                	jmp    101d19 <itrunc+0xd1>
/u/s/h/shirui/private/cs537/p3a/p3/xv6-sp20/kernel/fs.c:370
  101cdd:	8b 45 f0             	mov    -0x10(%ebp),%eax
  101ce0:	8d 14 85 00 00 00 00 	lea    0x0(,%eax,4),%edx
  101ce7:	8b 45 e8             	mov    -0x18(%ebp),%eax
  101cea:	01 d0                	add    %edx,%eax
  101cec:	8b 00                	mov    (%eax),%eax
  101cee:	85 c0                	test   %eax,%eax
  101cf0:	74 23                	je     101d15 <itrunc+0xcd>
/u/s/h/shirui/private/cs537/p3a/p3/xv6-sp20/kernel/fs.c:371
  101cf2:	8b 45 f0             	mov    -0x10(%ebp),%eax
  101cf5:	8d 14 85 00 00 00 00 	lea    0x0(,%eax,4),%edx
  101cfc:	8b 45 e8             	mov    -0x18(%ebp),%eax
  101cff:	01 d0                	add    %edx,%eax
  101d01:	8b 00                	mov    (%eax),%eax
  101d03:	8b 55 08             	mov    0x8(%ebp),%edx
  101d06:	8b 12                	mov    (%edx),%edx
  101d08:	83 ec 08             	sub    $0x8,%esp
  101d0b:	50                   	push   %eax
  101d0c:	52                   	push   %edx
  101d0d:	e8 7d f7 ff ff       	call   10148f <bfree>
  101d12:	83 c4 10             	add    $0x10,%esp
/u/s/h/shirui/private/cs537/p3a/p3/xv6-sp20/kernel/fs.c:369 (discriminator 2)
  101d15:	83 45 f0 01          	addl   $0x1,-0x10(%ebp)
/u/s/h/shirui/private/cs537/p3a/p3/xv6-sp20/kernel/fs.c:369 (discriminator 1)
  101d19:	8b 45 f0             	mov    -0x10(%ebp),%eax
  101d1c:	83 f8 7f             	cmp    $0x7f,%eax
  101d1f:	76 bc                	jbe    101cdd <itrunc+0x95>
/u/s/h/shirui/private/cs537/p3a/p3/xv6-sp20/kernel/fs.c:373
  101d21:	83 ec 0c             	sub    $0xc,%esp
  101d24:	ff 75 ec             	pushl  -0x14(%ebp)
  101d27:	e8 2c e5 ff ff       	call   100258 <brelse>
  101d2c:	83 c4 10             	add    $0x10,%esp
/u/s/h/shirui/private/cs537/p3a/p3/xv6-sp20/kernel/fs.c:374
  101d2f:	8b 45 08             	mov    0x8(%ebp),%eax
  101d32:	8b 40 4c             	mov    0x4c(%eax),%eax
  101d35:	8b 55 08             	mov    0x8(%ebp),%edx
  101d38:	8b 12                	mov    (%edx),%edx
  101d3a:	83 ec 08             	sub    $0x8,%esp
  101d3d:	50                   	push   %eax
  101d3e:	52                   	push   %edx
  101d3f:	e8 4b f7 ff ff       	call   10148f <bfree>
  101d44:	83 c4 10             	add    $0x10,%esp
/u/s/h/shirui/private/cs537/p3a/p3/xv6-sp20/kernel/fs.c:375
  101d47:	8b 45 08             	mov    0x8(%ebp),%eax
  101d4a:	c7 40 4c 00 00 00 00 	movl   $0x0,0x4c(%eax)
/u/s/h/shirui/private/cs537/p3a/p3/xv6-sp20/kernel/fs.c:378
  101d51:	8b 45 08             	mov    0x8(%ebp),%eax
  101d54:	c7 40 18 00 00 00 00 	movl   $0x0,0x18(%eax)
/u/s/h/shirui/private/cs537/p3a/p3/xv6-sp20/kernel/fs.c:379
  101d5b:	83 ec 0c             	sub    $0xc,%esp
  101d5e:	ff 75 08             	pushl  0x8(%ebp)
  101d61:	e8 15 f9 ff ff       	call   10167b <iupdate>
  101d66:	83 c4 10             	add    $0x10,%esp
/u/s/h/shirui/private/cs537/p3a/p3/xv6-sp20/kernel/fs.c:380
  101d69:	90                   	nop
  101d6a:	c9                   	leave  
  101d6b:	c3                   	ret    

00101d6c <stati>:
stati():
/u/s/h/shirui/private/cs537/p3a/p3/xv6-sp20/kernel/fs.c:385
  101d6c:	55                   	push   %ebp
  101d6d:	89 e5                	mov    %esp,%ebp
/u/s/h/shirui/private/cs537/p3a/p3/xv6-sp20/kernel/fs.c:386
  101d6f:	8b 45 08             	mov    0x8(%ebp),%eax
  101d72:	8b 00                	mov    (%eax),%eax
  101d74:	89 c2                	mov    %eax,%edx
  101d76:	8b 45 0c             	mov    0xc(%ebp),%eax
  101d79:	89 50 04             	mov    %edx,0x4(%eax)
/u/s/h/shirui/private/cs537/p3a/p3/xv6-sp20/kernel/fs.c:387
  101d7c:	8b 45 08             	mov    0x8(%ebp),%eax
  101d7f:	8b 50 04             	mov    0x4(%eax),%edx
  101d82:	8b 45 0c             	mov    0xc(%ebp),%eax
  101d85:	89 50 08             	mov    %edx,0x8(%eax)
/u/s/h/shirui/private/cs537/p3a/p3/xv6-sp20/kernel/fs.c:388
  101d88:	8b 45 08             	mov    0x8(%ebp),%eax
  101d8b:	0f b7 50 10          	movzwl 0x10(%eax),%edx
  101d8f:	8b 45 0c             	mov    0xc(%ebp),%eax
  101d92:	66 89 10             	mov    %dx,(%eax)
/u/s/h/shirui/private/cs537/p3a/p3/xv6-sp20/kernel/fs.c:389
  101d95:	8b 45 08             	mov    0x8(%ebp),%eax
  101d98:	0f b7 50 16          	movzwl 0x16(%eax),%edx
  101d9c:	8b 45 0c             	mov    0xc(%ebp),%eax
  101d9f:	66 89 50 0c          	mov    %dx,0xc(%eax)
/u/s/h/shirui/private/cs537/p3a/p3/xv6-sp20/kernel/fs.c:390
  101da3:	8b 45 08             	mov    0x8(%ebp),%eax
  101da6:	8b 50 18             	mov    0x18(%eax),%edx
  101da9:	8b 45 0c             	mov    0xc(%ebp),%eax
  101dac:	89 50 10             	mov    %edx,0x10(%eax)
/u/s/h/shirui/private/cs537/p3a/p3/xv6-sp20/kernel/fs.c:391
  101daf:	90                   	nop
  101db0:	5d                   	pop    %ebp
  101db1:	c3                   	ret    

00101db2 <readi>:
readi():
/u/s/h/shirui/private/cs537/p3a/p3/xv6-sp20/kernel/fs.c:396
  101db2:	55                   	push   %ebp
  101db3:	89 e5                	mov    %esp,%ebp
  101db5:	83 ec 18             	sub    $0x18,%esp
/u/s/h/shirui/private/cs537/p3a/p3/xv6-sp20/kernel/fs.c:400
  101db8:	8b 45 08             	mov    0x8(%ebp),%eax
  101dbb:	0f b7 40 10          	movzwl 0x10(%eax),%eax
  101dbf:	66 83 f8 03          	cmp    $0x3,%ax
  101dc3:	75 5c                	jne    101e21 <readi+0x6f>
/u/s/h/shirui/private/cs537/p3a/p3/xv6-sp20/kernel/fs.c:401
  101dc5:	8b 45 08             	mov    0x8(%ebp),%eax
  101dc8:	0f b7 40 12          	movzwl 0x12(%eax),%eax
  101dcc:	66 85 c0             	test   %ax,%ax
  101dcf:	78 20                	js     101df1 <readi+0x3f>
/u/s/h/shirui/private/cs537/p3a/p3/xv6-sp20/kernel/fs.c:401 (discriminator 1)
  101dd1:	8b 45 08             	mov    0x8(%ebp),%eax
  101dd4:	0f b7 40 12          	movzwl 0x12(%eax),%eax
  101dd8:	66 83 f8 09          	cmp    $0x9,%ax
  101ddc:	7f 13                	jg     101df1 <readi+0x3f>
/u/s/h/shirui/private/cs537/p3a/p3/xv6-sp20/kernel/fs.c:401 (discriminator 2)
  101dde:	8b 45 08             	mov    0x8(%ebp),%eax
  101de1:	0f b7 40 12          	movzwl 0x12(%eax),%eax
  101de5:	98                   	cwtl   
  101de6:	8b 04 c5 20 ed 10 00 	mov    0x10ed20(,%eax,8),%eax
  101ded:	85 c0                	test   %eax,%eax
  101def:	75 0a                	jne    101dfb <readi+0x49>
/u/s/h/shirui/private/cs537/p3a/p3/xv6-sp20/kernel/fs.c:402
  101df1:	b8 ff ff ff ff       	mov    $0xffffffff,%eax
  101df6:	e9 0c 01 00 00       	jmp    101f07 <readi+0x155>
/u/s/h/shirui/private/cs537/p3a/p3/xv6-sp20/kernel/fs.c:403
  101dfb:	8b 45 08             	mov    0x8(%ebp),%eax
  101dfe:	0f b7 40 12          	movzwl 0x12(%eax),%eax
  101e02:	98                   	cwtl   
  101e03:	8b 04 c5 20 ed 10 00 	mov    0x10ed20(,%eax,8),%eax
  101e0a:	8b 55 14             	mov    0x14(%ebp),%edx
  101e0d:	83 ec 04             	sub    $0x4,%esp
  101e10:	52                   	push   %edx
  101e11:	ff 75 0c             	pushl  0xc(%ebp)
  101e14:	ff 75 08             	pushl  0x8(%ebp)
  101e17:	ff d0                	call   *%eax
  101e19:	83 c4 10             	add    $0x10,%esp
  101e1c:	e9 e6 00 00 00       	jmp    101f07 <readi+0x155>
/u/s/h/shirui/private/cs537/p3a/p3/xv6-sp20/kernel/fs.c:406
  101e21:	8b 45 08             	mov    0x8(%ebp),%eax
  101e24:	8b 40 18             	mov    0x18(%eax),%eax
  101e27:	39 45 10             	cmp    %eax,0x10(%ebp)
  101e2a:	77 0d                	ja     101e39 <readi+0x87>
/u/s/h/shirui/private/cs537/p3a/p3/xv6-sp20/kernel/fs.c:406 (discriminator 1)
  101e2c:	8b 55 10             	mov    0x10(%ebp),%edx
  101e2f:	8b 45 14             	mov    0x14(%ebp),%eax
  101e32:	01 d0                	add    %edx,%eax
  101e34:	39 45 10             	cmp    %eax,0x10(%ebp)
  101e37:	76 0a                	jbe    101e43 <readi+0x91>
/u/s/h/shirui/private/cs537/p3a/p3/xv6-sp20/kernel/fs.c:407
  101e39:	b8 ff ff ff ff       	mov    $0xffffffff,%eax
  101e3e:	e9 c4 00 00 00       	jmp    101f07 <readi+0x155>
/u/s/h/shirui/private/cs537/p3a/p3/xv6-sp20/kernel/fs.c:408
  101e43:	8b 55 10             	mov    0x10(%ebp),%edx
  101e46:	8b 45 14             	mov    0x14(%ebp),%eax
  101e49:	01 c2                	add    %eax,%edx
  101e4b:	8b 45 08             	mov    0x8(%ebp),%eax
  101e4e:	8b 40 18             	mov    0x18(%eax),%eax
  101e51:	39 c2                	cmp    %eax,%edx
  101e53:	76 0c                	jbe    101e61 <readi+0xaf>
/u/s/h/shirui/private/cs537/p3a/p3/xv6-sp20/kernel/fs.c:409
  101e55:	8b 45 08             	mov    0x8(%ebp),%eax
  101e58:	8b 40 18             	mov    0x18(%eax),%eax
  101e5b:	2b 45 10             	sub    0x10(%ebp),%eax
  101e5e:	89 45 14             	mov    %eax,0x14(%ebp)
/u/s/h/shirui/private/cs537/p3a/p3/xv6-sp20/kernel/fs.c:411
  101e61:	c7 45 f4 00 00 00 00 	movl   $0x0,-0xc(%ebp)
  101e68:	e9 8b 00 00 00       	jmp    101ef8 <readi+0x146>
/u/s/h/shirui/private/cs537/p3a/p3/xv6-sp20/kernel/fs.c:412 (discriminator 3)
  101e6d:	8b 45 10             	mov    0x10(%ebp),%eax
  101e70:	c1 e8 09             	shr    $0x9,%eax
  101e73:	83 ec 08             	sub    $0x8,%esp
  101e76:	50                   	push   %eax
  101e77:	ff 75 08             	pushl  0x8(%ebp)
  101e7a:	e8 af fc ff ff       	call   101b2e <bmap>
  101e7f:	83 c4 10             	add    $0x10,%esp
  101e82:	89 c2                	mov    %eax,%edx
  101e84:	8b 45 08             	mov    0x8(%ebp),%eax
  101e87:	8b 00                	mov    (%eax),%eax
  101e89:	83 ec 08             	sub    $0x8,%esp
  101e8c:	52                   	push   %edx
  101e8d:	50                   	push   %eax
  101e8e:	e8 4d e3 ff ff       	call   1001e0 <bread>
  101e93:	83 c4 10             	add    $0x10,%esp
  101e96:	89 45 f0             	mov    %eax,-0x10(%ebp)
/u/s/h/shirui/private/cs537/p3a/p3/xv6-sp20/kernel/fs.c:413 (discriminator 3)
  101e99:	8b 45 10             	mov    0x10(%ebp),%eax
  101e9c:	25 ff 01 00 00       	and    $0x1ff,%eax
  101ea1:	ba 00 02 00 00       	mov    $0x200,%edx
  101ea6:	29 c2                	sub    %eax,%edx
  101ea8:	8b 45 14             	mov    0x14(%ebp),%eax
  101eab:	2b 45 f4             	sub    -0xc(%ebp),%eax
  101eae:	39 c2                	cmp    %eax,%edx
  101eb0:	0f 46 c2             	cmovbe %edx,%eax
  101eb3:	89 45 ec             	mov    %eax,-0x14(%ebp)
/u/s/h/shirui/private/cs537/p3a/p3/xv6-sp20/kernel/fs.c:414 (discriminator 3)
  101eb6:	8b 45 f0             	mov    -0x10(%ebp),%eax
  101eb9:	8d 50 18             	lea    0x18(%eax),%edx
  101ebc:	8b 45 10             	mov    0x10(%ebp),%eax
  101ebf:	25 ff 01 00 00       	and    $0x1ff,%eax
  101ec4:	01 d0                	add    %edx,%eax
  101ec6:	83 ec 04             	sub    $0x4,%esp
  101ec9:	ff 75 ec             	pushl  -0x14(%ebp)
  101ecc:	50                   	push   %eax
  101ecd:	ff 75 0c             	pushl  0xc(%ebp)
  101ed0:	e8 5a 2c 00 00       	call   104b2f <memmove>
  101ed5:	83 c4 10             	add    $0x10,%esp
/u/s/h/shirui/private/cs537/p3a/p3/xv6-sp20/kernel/fs.c:415 (discriminator 3)
  101ed8:	83 ec 0c             	sub    $0xc,%esp
  101edb:	ff 75 f0             	pushl  -0x10(%ebp)
  101ede:	e8 75 e3 ff ff       	call   100258 <brelse>
  101ee3:	83 c4 10             	add    $0x10,%esp
/u/s/h/shirui/private/cs537/p3a/p3/xv6-sp20/kernel/fs.c:411 (discriminator 3)
  101ee6:	8b 45 ec             	mov    -0x14(%ebp),%eax
  101ee9:	01 45 f4             	add    %eax,-0xc(%ebp)
  101eec:	8b 45 ec             	mov    -0x14(%ebp),%eax
  101eef:	01 45 10             	add    %eax,0x10(%ebp)
  101ef2:	8b 45 ec             	mov    -0x14(%ebp),%eax
  101ef5:	01 45 0c             	add    %eax,0xc(%ebp)
/u/s/h/shirui/private/cs537/p3a/p3/xv6-sp20/kernel/fs.c:411 (discriminator 1)
  101ef8:	8b 45 f4             	mov    -0xc(%ebp),%eax
  101efb:	3b 45 14             	cmp    0x14(%ebp),%eax
  101efe:	0f 82 69 ff ff ff    	jb     101e6d <readi+0xbb>
/u/s/h/shirui/private/cs537/p3a/p3/xv6-sp20/kernel/fs.c:417
  101f04:	8b 45 14             	mov    0x14(%ebp),%eax
/u/s/h/shirui/private/cs537/p3a/p3/xv6-sp20/kernel/fs.c:418
  101f07:	c9                   	leave  
  101f08:	c3                   	ret    

00101f09 <writei>:
writei():
/u/s/h/shirui/private/cs537/p3a/p3/xv6-sp20/kernel/fs.c:423
  101f09:	55                   	push   %ebp
  101f0a:	89 e5                	mov    %esp,%ebp
  101f0c:	83 ec 18             	sub    $0x18,%esp
/u/s/h/shirui/private/cs537/p3a/p3/xv6-sp20/kernel/fs.c:427
  101f0f:	8b 45 08             	mov    0x8(%ebp),%eax
  101f12:	0f b7 40 10          	movzwl 0x10(%eax),%eax
  101f16:	66 83 f8 03          	cmp    $0x3,%ax
  101f1a:	75 5c                	jne    101f78 <writei+0x6f>
/u/s/h/shirui/private/cs537/p3a/p3/xv6-sp20/kernel/fs.c:428
  101f1c:	8b 45 08             	mov    0x8(%ebp),%eax
  101f1f:	0f b7 40 12          	movzwl 0x12(%eax),%eax
  101f23:	66 85 c0             	test   %ax,%ax
  101f26:	78 20                	js     101f48 <writei+0x3f>
/u/s/h/shirui/private/cs537/p3a/p3/xv6-sp20/kernel/fs.c:428 (discriminator 1)
  101f28:	8b 45 08             	mov    0x8(%ebp),%eax
  101f2b:	0f b7 40 12          	movzwl 0x12(%eax),%eax
  101f2f:	66 83 f8 09          	cmp    $0x9,%ax
  101f33:	7f 13                	jg     101f48 <writei+0x3f>
/u/s/h/shirui/private/cs537/p3a/p3/xv6-sp20/kernel/fs.c:428 (discriminator 2)
  101f35:	8b 45 08             	mov    0x8(%ebp),%eax
  101f38:	0f b7 40 12          	movzwl 0x12(%eax),%eax
  101f3c:	98                   	cwtl   
  101f3d:	8b 04 c5 24 ed 10 00 	mov    0x10ed24(,%eax,8),%eax
  101f44:	85 c0                	test   %eax,%eax
  101f46:	75 0a                	jne    101f52 <writei+0x49>
/u/s/h/shirui/private/cs537/p3a/p3/xv6-sp20/kernel/fs.c:429
  101f48:	b8 ff ff ff ff       	mov    $0xffffffff,%eax
  101f4d:	e9 3e 01 00 00       	jmp    102090 <writei+0x187>
/u/s/h/shirui/private/cs537/p3a/p3/xv6-sp20/kernel/fs.c:430
  101f52:	8b 45 08             	mov    0x8(%ebp),%eax
  101f55:	0f b7 40 12          	movzwl 0x12(%eax),%eax
  101f59:	98                   	cwtl   
  101f5a:	8b 04 c5 24 ed 10 00 	mov    0x10ed24(,%eax,8),%eax
  101f61:	8b 55 14             	mov    0x14(%ebp),%edx
  101f64:	83 ec 04             	sub    $0x4,%esp
  101f67:	52                   	push   %edx
  101f68:	ff 75 0c             	pushl  0xc(%ebp)
  101f6b:	ff 75 08             	pushl  0x8(%ebp)
  101f6e:	ff d0                	call   *%eax
  101f70:	83 c4 10             	add    $0x10,%esp
  101f73:	e9 18 01 00 00       	jmp    102090 <writei+0x187>
/u/s/h/shirui/private/cs537/p3a/p3/xv6-sp20/kernel/fs.c:433
  101f78:	8b 45 08             	mov    0x8(%ebp),%eax
  101f7b:	8b 40 18             	mov    0x18(%eax),%eax
  101f7e:	39 45 10             	cmp    %eax,0x10(%ebp)
  101f81:	77 0d                	ja     101f90 <writei+0x87>
/u/s/h/shirui/private/cs537/p3a/p3/xv6-sp20/kernel/fs.c:433 (discriminator 1)
  101f83:	8b 55 10             	mov    0x10(%ebp),%edx
  101f86:	8b 45 14             	mov    0x14(%ebp),%eax
  101f89:	01 d0                	add    %edx,%eax
  101f8b:	39 45 10             	cmp    %eax,0x10(%ebp)
  101f8e:	76 0a                	jbe    101f9a <writei+0x91>
/u/s/h/shirui/private/cs537/p3a/p3/xv6-sp20/kernel/fs.c:434
  101f90:	b8 ff ff ff ff       	mov    $0xffffffff,%eax
  101f95:	e9 f6 00 00 00       	jmp    102090 <writei+0x187>
/u/s/h/shirui/private/cs537/p3a/p3/xv6-sp20/kernel/fs.c:435
  101f9a:	8b 55 10             	mov    0x10(%ebp),%edx
  101f9d:	8b 45 14             	mov    0x14(%ebp),%eax
  101fa0:	01 d0                	add    %edx,%eax
  101fa2:	3d 00 18 01 00       	cmp    $0x11800,%eax
  101fa7:	76 0b                	jbe    101fb4 <writei+0xab>
/u/s/h/shirui/private/cs537/p3a/p3/xv6-sp20/kernel/fs.c:436
  101fa9:	b8 00 18 01 00       	mov    $0x11800,%eax
  101fae:	2b 45 10             	sub    0x10(%ebp),%eax
  101fb1:	89 45 14             	mov    %eax,0x14(%ebp)
/u/s/h/shirui/private/cs537/p3a/p3/xv6-sp20/kernel/fs.c:438
  101fb4:	c7 45 f4 00 00 00 00 	movl   $0x0,-0xc(%ebp)
  101fbb:	e9 99 00 00 00       	jmp    102059 <writei+0x150>
/u/s/h/shirui/private/cs537/p3a/p3/xv6-sp20/kernel/fs.c:439 (discriminator 3)
  101fc0:	8b 45 10             	mov    0x10(%ebp),%eax
  101fc3:	c1 e8 09             	shr    $0x9,%eax
  101fc6:	83 ec 08             	sub    $0x8,%esp
  101fc9:	50                   	push   %eax
  101fca:	ff 75 08             	pushl  0x8(%ebp)
  101fcd:	e8 5c fb ff ff       	call   101b2e <bmap>
  101fd2:	83 c4 10             	add    $0x10,%esp
  101fd5:	89 c2                	mov    %eax,%edx
  101fd7:	8b 45 08             	mov    0x8(%ebp),%eax
  101fda:	8b 00                	mov    (%eax),%eax
  101fdc:	83 ec 08             	sub    $0x8,%esp
  101fdf:	52                   	push   %edx
  101fe0:	50                   	push   %eax
  101fe1:	e8 fa e1 ff ff       	call   1001e0 <bread>
  101fe6:	83 c4 10             	add    $0x10,%esp
  101fe9:	89 45 f0             	mov    %eax,-0x10(%ebp)
/u/s/h/shirui/private/cs537/p3a/p3/xv6-sp20/kernel/fs.c:440 (discriminator 3)
  101fec:	8b 45 10             	mov    0x10(%ebp),%eax
  101fef:	25 ff 01 00 00       	and    $0x1ff,%eax
  101ff4:	ba 00 02 00 00       	mov    $0x200,%edx
  101ff9:	29 c2                	sub    %eax,%edx
  101ffb:	8b 45 14             	mov    0x14(%ebp),%eax
  101ffe:	2b 45 f4             	sub    -0xc(%ebp),%eax
  102001:	39 c2                	cmp    %eax,%edx
  102003:	0f 46 c2             	cmovbe %edx,%eax
  102006:	89 45 ec             	mov    %eax,-0x14(%ebp)
/u/s/h/shirui/private/cs537/p3a/p3/xv6-sp20/kernel/fs.c:441 (discriminator 3)
  102009:	8b 45 f0             	mov    -0x10(%ebp),%eax
  10200c:	8d 50 18             	lea    0x18(%eax),%edx
  10200f:	8b 45 10             	mov    0x10(%ebp),%eax
  102012:	25 ff 01 00 00       	and    $0x1ff,%eax
  102017:	01 d0                	add    %edx,%eax
  102019:	83 ec 04             	sub    $0x4,%esp
  10201c:	ff 75 ec             	pushl  -0x14(%ebp)
  10201f:	ff 75 0c             	pushl  0xc(%ebp)
  102022:	50                   	push   %eax
  102023:	e8 07 2b 00 00       	call   104b2f <memmove>
  102028:	83 c4 10             	add    $0x10,%esp
/u/s/h/shirui/private/cs537/p3a/p3/xv6-sp20/kernel/fs.c:442 (discriminator 3)
  10202b:	83 ec 0c             	sub    $0xc,%esp
  10202e:	ff 75 f0             	pushl  -0x10(%ebp)
  102031:	e8 e3 e1 ff ff       	call   100219 <bwrite>
  102036:	83 c4 10             	add    $0x10,%esp
/u/s/h/shirui/private/cs537/p3a/p3/xv6-sp20/kernel/fs.c:443 (discriminator 3)
  102039:	83 ec 0c             	sub    $0xc,%esp
  10203c:	ff 75 f0             	pushl  -0x10(%ebp)
  10203f:	e8 14 e2 ff ff       	call   100258 <brelse>
  102044:	83 c4 10             	add    $0x10,%esp
/u/s/h/shirui/private/cs537/p3a/p3/xv6-sp20/kernel/fs.c:438 (discriminator 3)
  102047:	8b 45 ec             	mov    -0x14(%ebp),%eax
  10204a:	01 45 f4             	add    %eax,-0xc(%ebp)
  10204d:	8b 45 ec             	mov    -0x14(%ebp),%eax
  102050:	01 45 10             	add    %eax,0x10(%ebp)
  102053:	8b 45 ec             	mov    -0x14(%ebp),%eax
  102056:	01 45 0c             	add    %eax,0xc(%ebp)
/u/s/h/shirui/private/cs537/p3a/p3/xv6-sp20/kernel/fs.c:438 (discriminator 1)
  102059:	8b 45 f4             	mov    -0xc(%ebp),%eax
  10205c:	3b 45 14             	cmp    0x14(%ebp),%eax
  10205f:	0f 82 5b ff ff ff    	jb     101fc0 <writei+0xb7>
/u/s/h/shirui/private/cs537/p3a/p3/xv6-sp20/kernel/fs.c:446
  102065:	83 7d 14 00          	cmpl   $0x0,0x14(%ebp)
  102069:	74 22                	je     10208d <writei+0x184>
/u/s/h/shirui/private/cs537/p3a/p3/xv6-sp20/kernel/fs.c:446 (discriminator 1)
  10206b:	8b 45 08             	mov    0x8(%ebp),%eax
  10206e:	8b 40 18             	mov    0x18(%eax),%eax
  102071:	39 45 10             	cmp    %eax,0x10(%ebp)
  102074:	76 17                	jbe    10208d <writei+0x184>
/u/s/h/shirui/private/cs537/p3a/p3/xv6-sp20/kernel/fs.c:447
  102076:	8b 45 08             	mov    0x8(%ebp),%eax
  102079:	8b 55 10             	mov    0x10(%ebp),%edx
  10207c:	89 50 18             	mov    %edx,0x18(%eax)
/u/s/h/shirui/private/cs537/p3a/p3/xv6-sp20/kernel/fs.c:448
  10207f:	83 ec 0c             	sub    $0xc,%esp
  102082:	ff 75 08             	pushl  0x8(%ebp)
  102085:	e8 f1 f5 ff ff       	call   10167b <iupdate>
  10208a:	83 c4 10             	add    $0x10,%esp
/u/s/h/shirui/private/cs537/p3a/p3/xv6-sp20/kernel/fs.c:450
  10208d:	8b 45 14             	mov    0x14(%ebp),%eax
/u/s/h/shirui/private/cs537/p3a/p3/xv6-sp20/kernel/fs.c:451
  102090:	c9                   	leave  
  102091:	c3                   	ret    

00102092 <namecmp>:
namecmp():
/u/s/h/shirui/private/cs537/p3a/p3/xv6-sp20/kernel/fs.c:457
  102092:	55                   	push   %ebp
  102093:	89 e5                	mov    %esp,%ebp
  102095:	83 ec 08             	sub    $0x8,%esp
/u/s/h/shirui/private/cs537/p3a/p3/xv6-sp20/kernel/fs.c:458
  102098:	83 ec 04             	sub    $0x4,%esp
  10209b:	6a 0e                	push   $0xe
  10209d:	ff 75 0c             	pushl  0xc(%ebp)
  1020a0:	ff 75 08             	pushl  0x8(%ebp)
  1020a3:	e8 1d 2b 00 00       	call   104bc5 <strncmp>
  1020a8:	83 c4 10             	add    $0x10,%esp
/u/s/h/shirui/private/cs537/p3a/p3/xv6-sp20/kernel/fs.c:459
  1020ab:	c9                   	leave  
  1020ac:	c3                   	ret    

001020ad <dirlookup>:
dirlookup():
/u/s/h/shirui/private/cs537/p3a/p3/xv6-sp20/kernel/fs.c:466
  1020ad:	55                   	push   %ebp
  1020ae:	89 e5                	mov    %esp,%ebp
  1020b0:	83 ec 18             	sub    $0x18,%esp
/u/s/h/shirui/private/cs537/p3a/p3/xv6-sp20/kernel/fs.c:471
  1020b3:	8b 45 08             	mov    0x8(%ebp),%eax
  1020b6:	0f b7 40 10          	movzwl 0x10(%eax),%eax
  1020ba:	66 83 f8 01          	cmp    $0x1,%ax
  1020be:	74 0d                	je     1020cd <dirlookup+0x20>
/u/s/h/shirui/private/cs537/p3a/p3/xv6-sp20/kernel/fs.c:472
  1020c0:	83 ec 0c             	sub    $0xc,%esp
  1020c3:	68 20 80 10 00       	push   $0x108020
  1020c8:	e8 ab e4 ff ff       	call   100578 <panic>
/u/s/h/shirui/private/cs537/p3a/p3/xv6-sp20/kernel/fs.c:474
  1020cd:	c7 45 f4 00 00 00 00 	movl   $0x0,-0xc(%ebp)
  1020d4:	e9 da 00 00 00       	jmp    1021b3 <dirlookup+0x106>
/u/s/h/shirui/private/cs537/p3a/p3/xv6-sp20/kernel/fs.c:475
  1020d9:	8b 45 f4             	mov    -0xc(%ebp),%eax
  1020dc:	c1 e8 09             	shr    $0x9,%eax
  1020df:	83 ec 08             	sub    $0x8,%esp
  1020e2:	50                   	push   %eax
  1020e3:	ff 75 08             	pushl  0x8(%ebp)
  1020e6:	e8 43 fa ff ff       	call   101b2e <bmap>
  1020eb:	83 c4 10             	add    $0x10,%esp
  1020ee:	89 c2                	mov    %eax,%edx
  1020f0:	8b 45 08             	mov    0x8(%ebp),%eax
  1020f3:	8b 00                	mov    (%eax),%eax
  1020f5:	83 ec 08             	sub    $0x8,%esp
  1020f8:	52                   	push   %edx
  1020f9:	50                   	push   %eax
  1020fa:	e8 e1 e0 ff ff       	call   1001e0 <bread>
  1020ff:	83 c4 10             	add    $0x10,%esp
  102102:	89 45 ec             	mov    %eax,-0x14(%ebp)
/u/s/h/shirui/private/cs537/p3a/p3/xv6-sp20/kernel/fs.c:476
  102105:	8b 45 ec             	mov    -0x14(%ebp),%eax
  102108:	83 c0 18             	add    $0x18,%eax
  10210b:	89 45 f0             	mov    %eax,-0x10(%ebp)
  10210e:	eb 7a                	jmp    10218a <dirlookup+0xdd>
/u/s/h/shirui/private/cs537/p3a/p3/xv6-sp20/kernel/fs.c:479
  102110:	8b 45 f0             	mov    -0x10(%ebp),%eax
  102113:	0f b7 00             	movzwl (%eax),%eax
  102116:	66 85 c0             	test   %ax,%ax
  102119:	74 6a                	je     102185 <dirlookup+0xd8>
/u/s/h/shirui/private/cs537/p3a/p3/xv6-sp20/kernel/fs.c:481
  10211b:	8b 45 f0             	mov    -0x10(%ebp),%eax
  10211e:	83 c0 02             	add    $0x2,%eax
  102121:	83 ec 08             	sub    $0x8,%esp
  102124:	50                   	push   %eax
  102125:	ff 75 0c             	pushl  0xc(%ebp)
  102128:	e8 65 ff ff ff       	call   102092 <namecmp>
  10212d:	83 c4 10             	add    $0x10,%esp
  102130:	85 c0                	test   %eax,%eax
  102132:	75 52                	jne    102186 <dirlookup+0xd9>
/u/s/h/shirui/private/cs537/p3a/p3/xv6-sp20/kernel/fs.c:483
  102134:	83 7d 10 00          	cmpl   $0x0,0x10(%ebp)
  102138:	74 1b                	je     102155 <dirlookup+0xa8>
/u/s/h/shirui/private/cs537/p3a/p3/xv6-sp20/kernel/fs.c:484
  10213a:	8b 55 f0             	mov    -0x10(%ebp),%edx
  10213d:	8b 45 f4             	mov    -0xc(%ebp),%eax
  102140:	01 d0                	add    %edx,%eax
  102142:	89 c2                	mov    %eax,%edx
  102144:	8b 45 ec             	mov    -0x14(%ebp),%eax
  102147:	83 c0 18             	add    $0x18,%eax
  10214a:	29 c2                	sub    %eax,%edx
  10214c:	89 d0                	mov    %edx,%eax
  10214e:	89 c2                	mov    %eax,%edx
  102150:	8b 45 10             	mov    0x10(%ebp),%eax
  102153:	89 10                	mov    %edx,(%eax)
/u/s/h/shirui/private/cs537/p3a/p3/xv6-sp20/kernel/fs.c:485
  102155:	8b 45 f0             	mov    -0x10(%ebp),%eax
  102158:	0f b7 00             	movzwl (%eax),%eax
  10215b:	0f b7 c0             	movzwl %ax,%eax
  10215e:	89 45 e8             	mov    %eax,-0x18(%ebp)
/u/s/h/shirui/private/cs537/p3a/p3/xv6-sp20/kernel/fs.c:486
  102161:	83 ec 0c             	sub    $0xc,%esp
  102164:	ff 75 ec             	pushl  -0x14(%ebp)
  102167:	e8 ec e0 ff ff       	call   100258 <brelse>
  10216c:	83 c4 10             	add    $0x10,%esp
/u/s/h/shirui/private/cs537/p3a/p3/xv6-sp20/kernel/fs.c:487
  10216f:	8b 45 08             	mov    0x8(%ebp),%eax
  102172:	8b 00                	mov    (%eax),%eax
  102174:	83 ec 08             	sub    $0x8,%esp
  102177:	ff 75 e8             	pushl  -0x18(%ebp)
  10217a:	50                   	push   %eax
  10217b:	e8 b6 f5 ff ff       	call   101736 <iget>
  102180:	83 c4 10             	add    $0x10,%esp
  102183:	eb 42                	jmp    1021c7 <dirlookup+0x11a>
/u/s/h/shirui/private/cs537/p3a/p3/xv6-sp20/kernel/fs.c:480
  102185:	90                   	nop
/u/s/h/shirui/private/cs537/p3a/p3/xv6-sp20/kernel/fs.c:478
  102186:	83 45 f0 10          	addl   $0x10,-0x10(%ebp)
/u/s/h/shirui/private/cs537/p3a/p3/xv6-sp20/kernel/fs.c:477 (discriminator 1)
  10218a:	8b 45 ec             	mov    -0x14(%ebp),%eax
  10218d:	83 c0 18             	add    $0x18,%eax
  102190:	05 00 02 00 00       	add    $0x200,%eax
/u/s/h/shirui/private/cs537/p3a/p3/xv6-sp20/kernel/fs.c:476 (discriminator 1)
  102195:	39 45 f0             	cmp    %eax,-0x10(%ebp)
  102198:	0f 82 72 ff ff ff    	jb     102110 <dirlookup+0x63>
/u/s/h/shirui/private/cs537/p3a/p3/xv6-sp20/kernel/fs.c:490 (discriminator 2)
  10219e:	83 ec 0c             	sub    $0xc,%esp
  1021a1:	ff 75 ec             	pushl  -0x14(%ebp)
  1021a4:	e8 af e0 ff ff       	call   100258 <brelse>
  1021a9:	83 c4 10             	add    $0x10,%esp
/u/s/h/shirui/private/cs537/p3a/p3/xv6-sp20/kernel/fs.c:474 (discriminator 2)
  1021ac:	81 45 f4 00 02 00 00 	addl   $0x200,-0xc(%ebp)
/u/s/h/shirui/private/cs537/p3a/p3/xv6-sp20/kernel/fs.c:474 (discriminator 1)
  1021b3:	8b 45 08             	mov    0x8(%ebp),%eax
  1021b6:	8b 40 18             	mov    0x18(%eax),%eax
  1021b9:	39 45 f4             	cmp    %eax,-0xc(%ebp)
  1021bc:	0f 82 17 ff ff ff    	jb     1020d9 <dirlookup+0x2c>
/u/s/h/shirui/private/cs537/p3a/p3/xv6-sp20/kernel/fs.c:492
  1021c2:	b8 00 00 00 00       	mov    $0x0,%eax
/u/s/h/shirui/private/cs537/p3a/p3/xv6-sp20/kernel/fs.c:493
  1021c7:	c9                   	leave  
  1021c8:	c3                   	ret    

001021c9 <dirlink>:
dirlink():
/u/s/h/shirui/private/cs537/p3a/p3/xv6-sp20/kernel/fs.c:498
  1021c9:	55                   	push   %ebp
  1021ca:	89 e5                	mov    %esp,%ebp
  1021cc:	83 ec 28             	sub    $0x28,%esp
/u/s/h/shirui/private/cs537/p3a/p3/xv6-sp20/kernel/fs.c:504
  1021cf:	83 ec 04             	sub    $0x4,%esp
  1021d2:	6a 00                	push   $0x0
  1021d4:	ff 75 0c             	pushl  0xc(%ebp)
  1021d7:	ff 75 08             	pushl  0x8(%ebp)
  1021da:	e8 ce fe ff ff       	call   1020ad <dirlookup>
  1021df:	83 c4 10             	add    $0x10,%esp
  1021e2:	89 45 f0             	mov    %eax,-0x10(%ebp)
  1021e5:	83 7d f0 00          	cmpl   $0x0,-0x10(%ebp)
  1021e9:	74 18                	je     102203 <dirlink+0x3a>
/u/s/h/shirui/private/cs537/p3a/p3/xv6-sp20/kernel/fs.c:505
  1021eb:	83 ec 0c             	sub    $0xc,%esp
  1021ee:	ff 75 f0             	pushl  -0x10(%ebp)
  1021f1:	e8 23 f8 ff ff       	call   101a19 <iput>
  1021f6:	83 c4 10             	add    $0x10,%esp
/u/s/h/shirui/private/cs537/p3a/p3/xv6-sp20/kernel/fs.c:506
  1021f9:	b8 ff ff ff ff       	mov    $0xffffffff,%eax
  1021fe:	e9 9c 00 00 00       	jmp    10229f <dirlink+0xd6>
/u/s/h/shirui/private/cs537/p3a/p3/xv6-sp20/kernel/fs.c:510
  102203:	c7 45 f4 00 00 00 00 	movl   $0x0,-0xc(%ebp)
  10220a:	eb 39                	jmp    102245 <dirlink+0x7c>
/u/s/h/shirui/private/cs537/p3a/p3/xv6-sp20/kernel/fs.c:511
  10220c:	8b 45 f4             	mov    -0xc(%ebp),%eax
  10220f:	6a 10                	push   $0x10
  102211:	50                   	push   %eax
  102212:	8d 45 e0             	lea    -0x20(%ebp),%eax
  102215:	50                   	push   %eax
  102216:	ff 75 08             	pushl  0x8(%ebp)
  102219:	e8 94 fb ff ff       	call   101db2 <readi>
  10221e:	83 c4 10             	add    $0x10,%esp
  102221:	83 f8 10             	cmp    $0x10,%eax
  102224:	74 0d                	je     102233 <dirlink+0x6a>
/u/s/h/shirui/private/cs537/p3a/p3/xv6-sp20/kernel/fs.c:512
  102226:	83 ec 0c             	sub    $0xc,%esp
  102229:	68 32 80 10 00       	push   $0x108032
  10222e:	e8 45 e3 ff ff       	call   100578 <panic>
/u/s/h/shirui/private/cs537/p3a/p3/xv6-sp20/kernel/fs.c:513
  102233:	0f b7 45 e0          	movzwl -0x20(%ebp),%eax
  102237:	66 85 c0             	test   %ax,%ax
  10223a:	74 18                	je     102254 <dirlink+0x8b>
/u/s/h/shirui/private/cs537/p3a/p3/xv6-sp20/kernel/fs.c:510 (discriminator 2)
  10223c:	8b 45 f4             	mov    -0xc(%ebp),%eax
  10223f:	83 c0 10             	add    $0x10,%eax
  102242:	89 45 f4             	mov    %eax,-0xc(%ebp)
/u/s/h/shirui/private/cs537/p3a/p3/xv6-sp20/kernel/fs.c:510 (discriminator 1)
  102245:	8b 45 08             	mov    0x8(%ebp),%eax
  102248:	8b 50 18             	mov    0x18(%eax),%edx
  10224b:	8b 45 f4             	mov    -0xc(%ebp),%eax
  10224e:	39 c2                	cmp    %eax,%edx
  102250:	77 ba                	ja     10220c <dirlink+0x43>
  102252:	eb 01                	jmp    102255 <dirlink+0x8c>
/u/s/h/shirui/private/cs537/p3a/p3/xv6-sp20/kernel/fs.c:514
  102254:	90                   	nop
/u/s/h/shirui/private/cs537/p3a/p3/xv6-sp20/kernel/fs.c:517
  102255:	83 ec 04             	sub    $0x4,%esp
  102258:	6a 0e                	push   $0xe
  10225a:	ff 75 0c             	pushl  0xc(%ebp)
  10225d:	8d 45 e0             	lea    -0x20(%ebp),%eax
  102260:	83 c0 02             	add    $0x2,%eax
  102263:	50                   	push   %eax
  102264:	e8 b2 29 00 00       	call   104c1b <strncpy>
  102269:	83 c4 10             	add    $0x10,%esp
/u/s/h/shirui/private/cs537/p3a/p3/xv6-sp20/kernel/fs.c:518
  10226c:	8b 45 10             	mov    0x10(%ebp),%eax
  10226f:	66 89 45 e0          	mov    %ax,-0x20(%ebp)
/u/s/h/shirui/private/cs537/p3a/p3/xv6-sp20/kernel/fs.c:519
  102273:	8b 45 f4             	mov    -0xc(%ebp),%eax
  102276:	6a 10                	push   $0x10
  102278:	50                   	push   %eax
  102279:	8d 45 e0             	lea    -0x20(%ebp),%eax
  10227c:	50                   	push   %eax
  10227d:	ff 75 08             	pushl  0x8(%ebp)
  102280:	e8 84 fc ff ff       	call   101f09 <writei>
  102285:	83 c4 10             	add    $0x10,%esp
  102288:	83 f8 10             	cmp    $0x10,%eax
  10228b:	74 0d                	je     10229a <dirlink+0xd1>
/u/s/h/shirui/private/cs537/p3a/p3/xv6-sp20/kernel/fs.c:520
  10228d:	83 ec 0c             	sub    $0xc,%esp
  102290:	68 3f 80 10 00       	push   $0x10803f
  102295:	e8 de e2 ff ff       	call   100578 <panic>
/u/s/h/shirui/private/cs537/p3a/p3/xv6-sp20/kernel/fs.c:522
  10229a:	b8 00 00 00 00       	mov    $0x0,%eax
/u/s/h/shirui/private/cs537/p3a/p3/xv6-sp20/kernel/fs.c:523 (discriminator 1)
  10229f:	c9                   	leave  
  1022a0:	c3                   	ret    

001022a1 <skipelem>:
skipelem():
/u/s/h/shirui/private/cs537/p3a/p3/xv6-sp20/kernel/fs.c:541
  1022a1:	55                   	push   %ebp
  1022a2:	89 e5                	mov    %esp,%ebp
  1022a4:	83 ec 18             	sub    $0x18,%esp
/u/s/h/shirui/private/cs537/p3a/p3/xv6-sp20/kernel/fs.c:545
  1022a7:	eb 04                	jmp    1022ad <skipelem+0xc>
/u/s/h/shirui/private/cs537/p3a/p3/xv6-sp20/kernel/fs.c:546
  1022a9:	83 45 08 01          	addl   $0x1,0x8(%ebp)
/u/s/h/shirui/private/cs537/p3a/p3/xv6-sp20/kernel/fs.c:545
  1022ad:	8b 45 08             	mov    0x8(%ebp),%eax
  1022b0:	0f b6 00             	movzbl (%eax),%eax
  1022b3:	3c 2f                	cmp    $0x2f,%al
  1022b5:	74 f2                	je     1022a9 <skipelem+0x8>
/u/s/h/shirui/private/cs537/p3a/p3/xv6-sp20/kernel/fs.c:547
  1022b7:	8b 45 08             	mov    0x8(%ebp),%eax
  1022ba:	0f b6 00             	movzbl (%eax),%eax
  1022bd:	84 c0                	test   %al,%al
  1022bf:	75 07                	jne    1022c8 <skipelem+0x27>
/u/s/h/shirui/private/cs537/p3a/p3/xv6-sp20/kernel/fs.c:548
  1022c1:	b8 00 00 00 00       	mov    $0x0,%eax
  1022c6:	eb 7b                	jmp    102343 <skipelem+0xa2>
/u/s/h/shirui/private/cs537/p3a/p3/xv6-sp20/kernel/fs.c:549
  1022c8:	8b 45 08             	mov    0x8(%ebp),%eax
  1022cb:	89 45 f4             	mov    %eax,-0xc(%ebp)
/u/s/h/shirui/private/cs537/p3a/p3/xv6-sp20/kernel/fs.c:550
  1022ce:	eb 04                	jmp    1022d4 <skipelem+0x33>
/u/s/h/shirui/private/cs537/p3a/p3/xv6-sp20/kernel/fs.c:551
  1022d0:	83 45 08 01          	addl   $0x1,0x8(%ebp)
/u/s/h/shirui/private/cs537/p3a/p3/xv6-sp20/kernel/fs.c:550
  1022d4:	8b 45 08             	mov    0x8(%ebp),%eax
  1022d7:	0f b6 00             	movzbl (%eax),%eax
  1022da:	3c 2f                	cmp    $0x2f,%al
  1022dc:	74 0a                	je     1022e8 <skipelem+0x47>
/u/s/h/shirui/private/cs537/p3a/p3/xv6-sp20/kernel/fs.c:550 (discriminator 1)
  1022de:	8b 45 08             	mov    0x8(%ebp),%eax
  1022e1:	0f b6 00             	movzbl (%eax),%eax
  1022e4:	84 c0                	test   %al,%al
  1022e6:	75 e8                	jne    1022d0 <skipelem+0x2f>
/u/s/h/shirui/private/cs537/p3a/p3/xv6-sp20/kernel/fs.c:552
  1022e8:	8b 55 08             	mov    0x8(%ebp),%edx
  1022eb:	8b 45 f4             	mov    -0xc(%ebp),%eax
  1022ee:	29 c2                	sub    %eax,%edx
  1022f0:	89 d0                	mov    %edx,%eax
  1022f2:	89 45 f0             	mov    %eax,-0x10(%ebp)
/u/s/h/shirui/private/cs537/p3a/p3/xv6-sp20/kernel/fs.c:553
  1022f5:	83 7d f0 0d          	cmpl   $0xd,-0x10(%ebp)
  1022f9:	7e 15                	jle    102310 <skipelem+0x6f>
/u/s/h/shirui/private/cs537/p3a/p3/xv6-sp20/kernel/fs.c:554
  1022fb:	83 ec 04             	sub    $0x4,%esp
  1022fe:	6a 0e                	push   $0xe
  102300:	ff 75 f4             	pushl  -0xc(%ebp)
  102303:	ff 75 0c             	pushl  0xc(%ebp)
  102306:	e8 24 28 00 00       	call   104b2f <memmove>
  10230b:	83 c4 10             	add    $0x10,%esp
  10230e:	eb 26                	jmp    102336 <skipelem+0x95>
/u/s/h/shirui/private/cs537/p3a/p3/xv6-sp20/kernel/fs.c:556
  102310:	8b 45 f0             	mov    -0x10(%ebp),%eax
  102313:	83 ec 04             	sub    $0x4,%esp
  102316:	50                   	push   %eax
  102317:	ff 75 f4             	pushl  -0xc(%ebp)
  10231a:	ff 75 0c             	pushl  0xc(%ebp)
  10231d:	e8 0d 28 00 00       	call   104b2f <memmove>
  102322:	83 c4 10             	add    $0x10,%esp
/u/s/h/shirui/private/cs537/p3a/p3/xv6-sp20/kernel/fs.c:557
  102325:	8b 55 f0             	mov    -0x10(%ebp),%edx
  102328:	8b 45 0c             	mov    0xc(%ebp),%eax
  10232b:	01 d0                	add    %edx,%eax
  10232d:	c6 00 00             	movb   $0x0,(%eax)
/u/s/h/shirui/private/cs537/p3a/p3/xv6-sp20/kernel/fs.c:559
  102330:	eb 04                	jmp    102336 <skipelem+0x95>
/u/s/h/shirui/private/cs537/p3a/p3/xv6-sp20/kernel/fs.c:560
  102332:	83 45 08 01          	addl   $0x1,0x8(%ebp)
/u/s/h/shirui/private/cs537/p3a/p3/xv6-sp20/kernel/fs.c:559
  102336:	8b 45 08             	mov    0x8(%ebp),%eax
  102339:	0f b6 00             	movzbl (%eax),%eax
  10233c:	3c 2f                	cmp    $0x2f,%al
  10233e:	74 f2                	je     102332 <skipelem+0x91>
/u/s/h/shirui/private/cs537/p3a/p3/xv6-sp20/kernel/fs.c:561
  102340:	8b 45 08             	mov    0x8(%ebp),%eax
/u/s/h/shirui/private/cs537/p3a/p3/xv6-sp20/kernel/fs.c:562
  102343:	c9                   	leave  
  102344:	c3                   	ret    

00102345 <namex>:
namex():
/u/s/h/shirui/private/cs537/p3a/p3/xv6-sp20/kernel/fs.c:569
  102345:	55                   	push   %ebp
  102346:	89 e5                	mov    %esp,%ebp
  102348:	83 ec 18             	sub    $0x18,%esp
/u/s/h/shirui/private/cs537/p3a/p3/xv6-sp20/kernel/fs.c:572
  10234b:	8b 45 08             	mov    0x8(%ebp),%eax
  10234e:	0f b6 00             	movzbl (%eax),%eax
  102351:	3c 2f                	cmp    $0x2f,%al
  102353:	75 17                	jne    10236c <namex+0x27>
/u/s/h/shirui/private/cs537/p3a/p3/xv6-sp20/kernel/fs.c:573
  102355:	83 ec 08             	sub    $0x8,%esp
  102358:	6a 01                	push   $0x1
  10235a:	6a 01                	push   $0x1
  10235c:	e8 d5 f3 ff ff       	call   101736 <iget>
  102361:	83 c4 10             	add    $0x10,%esp
  102364:	89 45 f4             	mov    %eax,-0xc(%ebp)
  102367:	e9 bb 00 00 00       	jmp    102427 <namex+0xe2>
/u/s/h/shirui/private/cs537/p3a/p3/xv6-sp20/kernel/fs.c:575
  10236c:	65 a1 04 00 00 00    	mov    %gs:0x4,%eax
  102372:	8b 40 68             	mov    0x68(%eax),%eax
  102375:	83 ec 0c             	sub    $0xc,%esp
  102378:	50                   	push   %eax
  102379:	e8 97 f4 ff ff       	call   101815 <idup>
  10237e:	83 c4 10             	add    $0x10,%esp
  102381:	89 45 f4             	mov    %eax,-0xc(%ebp)
/u/s/h/shirui/private/cs537/p3a/p3/xv6-sp20/kernel/fs.c:577
  102384:	e9 9e 00 00 00       	jmp    102427 <namex+0xe2>
/u/s/h/shirui/private/cs537/p3a/p3/xv6-sp20/kernel/fs.c:578
  102389:	83 ec 0c             	sub    $0xc,%esp
  10238c:	ff 75 f4             	pushl  -0xc(%ebp)
  10238f:	e8 bb f4 ff ff       	call   10184f <ilock>
  102394:	83 c4 10             	add    $0x10,%esp
/u/s/h/shirui/private/cs537/p3a/p3/xv6-sp20/kernel/fs.c:579
  102397:	8b 45 f4             	mov    -0xc(%ebp),%eax
  10239a:	0f b7 40 10          	movzwl 0x10(%eax),%eax
  10239e:	66 83 f8 01          	cmp    $0x1,%ax
  1023a2:	74 18                	je     1023bc <namex+0x77>
/u/s/h/shirui/private/cs537/p3a/p3/xv6-sp20/kernel/fs.c:580
  1023a4:	83 ec 0c             	sub    $0xc,%esp
  1023a7:	ff 75 f4             	pushl  -0xc(%ebp)
  1023aa:	e8 5a f7 ff ff       	call   101b09 <iunlockput>
  1023af:	83 c4 10             	add    $0x10,%esp
/u/s/h/shirui/private/cs537/p3a/p3/xv6-sp20/kernel/fs.c:581
  1023b2:	b8 00 00 00 00       	mov    $0x0,%eax
  1023b7:	e9 a7 00 00 00       	jmp    102463 <namex+0x11e>
/u/s/h/shirui/private/cs537/p3a/p3/xv6-sp20/kernel/fs.c:583
  1023bc:	83 7d 0c 00          	cmpl   $0x0,0xc(%ebp)
  1023c0:	74 20                	je     1023e2 <namex+0x9d>
/u/s/h/shirui/private/cs537/p3a/p3/xv6-sp20/kernel/fs.c:583 (discriminator 1)
  1023c2:	8b 45 08             	mov    0x8(%ebp),%eax
  1023c5:	0f b6 00             	movzbl (%eax),%eax
  1023c8:	84 c0                	test   %al,%al
  1023ca:	75 16                	jne    1023e2 <namex+0x9d>
/u/s/h/shirui/private/cs537/p3a/p3/xv6-sp20/kernel/fs.c:585
  1023cc:	83 ec 0c             	sub    $0xc,%esp
  1023cf:	ff 75 f4             	pushl  -0xc(%ebp)
  1023d2:	e8 d0 f5 ff ff       	call   1019a7 <iunlock>
  1023d7:	83 c4 10             	add    $0x10,%esp
/u/s/h/shirui/private/cs537/p3a/p3/xv6-sp20/kernel/fs.c:586
  1023da:	8b 45 f4             	mov    -0xc(%ebp),%eax
  1023dd:	e9 81 00 00 00       	jmp    102463 <namex+0x11e>
/u/s/h/shirui/private/cs537/p3a/p3/xv6-sp20/kernel/fs.c:588
  1023e2:	83 ec 04             	sub    $0x4,%esp
  1023e5:	6a 00                	push   $0x0
  1023e7:	ff 75 10             	pushl  0x10(%ebp)
  1023ea:	ff 75 f4             	pushl  -0xc(%ebp)
  1023ed:	e8 bb fc ff ff       	call   1020ad <dirlookup>
  1023f2:	83 c4 10             	add    $0x10,%esp
  1023f5:	89 45 f0             	mov    %eax,-0x10(%ebp)
  1023f8:	83 7d f0 00          	cmpl   $0x0,-0x10(%ebp)
  1023fc:	75 15                	jne    102413 <namex+0xce>
/u/s/h/shirui/private/cs537/p3a/p3/xv6-sp20/kernel/fs.c:589
  1023fe:	83 ec 0c             	sub    $0xc,%esp
  102401:	ff 75 f4             	pushl  -0xc(%ebp)
  102404:	e8 00 f7 ff ff       	call   101b09 <iunlockput>
  102409:	83 c4 10             	add    $0x10,%esp
/u/s/h/shirui/private/cs537/p3a/p3/xv6-sp20/kernel/fs.c:590
  10240c:	b8 00 00 00 00       	mov    $0x0,%eax
  102411:	eb 50                	jmp    102463 <namex+0x11e>
/u/s/h/shirui/private/cs537/p3a/p3/xv6-sp20/kernel/fs.c:592
  102413:	83 ec 0c             	sub    $0xc,%esp
  102416:	ff 75 f4             	pushl  -0xc(%ebp)
  102419:	e8 eb f6 ff ff       	call   101b09 <iunlockput>
  10241e:	83 c4 10             	add    $0x10,%esp
/u/s/h/shirui/private/cs537/p3a/p3/xv6-sp20/kernel/fs.c:593
  102421:	8b 45 f0             	mov    -0x10(%ebp),%eax
  102424:	89 45 f4             	mov    %eax,-0xc(%ebp)
/u/s/h/shirui/private/cs537/p3a/p3/xv6-sp20/kernel/fs.c:577
  102427:	83 ec 08             	sub    $0x8,%esp
  10242a:	ff 75 10             	pushl  0x10(%ebp)
  10242d:	ff 75 08             	pushl  0x8(%ebp)
  102430:	e8 6c fe ff ff       	call   1022a1 <skipelem>
  102435:	83 c4 10             	add    $0x10,%esp
  102438:	89 45 08             	mov    %eax,0x8(%ebp)
  10243b:	83 7d 08 00          	cmpl   $0x0,0x8(%ebp)
  10243f:	0f 85 44 ff ff ff    	jne    102389 <namex+0x44>
/u/s/h/shirui/private/cs537/p3a/p3/xv6-sp20/kernel/fs.c:595
  102445:	83 7d 0c 00          	cmpl   $0x0,0xc(%ebp)
  102449:	74 15                	je     102460 <namex+0x11b>
/u/s/h/shirui/private/cs537/p3a/p3/xv6-sp20/kernel/fs.c:596
  10244b:	83 ec 0c             	sub    $0xc,%esp
  10244e:	ff 75 f4             	pushl  -0xc(%ebp)
  102451:	e8 c3 f5 ff ff       	call   101a19 <iput>
  102456:	83 c4 10             	add    $0x10,%esp
/u/s/h/shirui/private/cs537/p3a/p3/xv6-sp20/kernel/fs.c:597
  102459:	b8 00 00 00 00       	mov    $0x0,%eax
  10245e:	eb 03                	jmp    102463 <namex+0x11e>
/u/s/h/shirui/private/cs537/p3a/p3/xv6-sp20/kernel/fs.c:599
  102460:	8b 45 f4             	mov    -0xc(%ebp),%eax
/u/s/h/shirui/private/cs537/p3a/p3/xv6-sp20/kernel/fs.c:600
  102463:	c9                   	leave  
  102464:	c3                   	ret    

00102465 <namei>:
namei():
/u/s/h/shirui/private/cs537/p3a/p3/xv6-sp20/kernel/fs.c:604
  102465:	55                   	push   %ebp
  102466:	89 e5                	mov    %esp,%ebp
  102468:	83 ec 18             	sub    $0x18,%esp
/u/s/h/shirui/private/cs537/p3a/p3/xv6-sp20/kernel/fs.c:606
  10246b:	83 ec 04             	sub    $0x4,%esp
  10246e:	8d 45 ea             	lea    -0x16(%ebp),%eax
  102471:	50                   	push   %eax
  102472:	6a 00                	push   $0x0
  102474:	ff 75 08             	pushl  0x8(%ebp)
  102477:	e8 c9 fe ff ff       	call   102345 <namex>
  10247c:	83 c4 10             	add    $0x10,%esp
/u/s/h/shirui/private/cs537/p3a/p3/xv6-sp20/kernel/fs.c:607
  10247f:	c9                   	leave  
  102480:	c3                   	ret    

00102481 <nameiparent>:
nameiparent():
/u/s/h/shirui/private/cs537/p3a/p3/xv6-sp20/kernel/fs.c:611
  102481:	55                   	push   %ebp
  102482:	89 e5                	mov    %esp,%ebp
  102484:	83 ec 08             	sub    $0x8,%esp
/u/s/h/shirui/private/cs537/p3a/p3/xv6-sp20/kernel/fs.c:612
  102487:	83 ec 04             	sub    $0x4,%esp
  10248a:	ff 75 0c             	pushl  0xc(%ebp)
  10248d:	6a 01                	push   $0x1
  10248f:	ff 75 08             	pushl  0x8(%ebp)
  102492:	e8 ae fe ff ff       	call   102345 <namex>
  102497:	83 c4 10             	add    $0x10,%esp
/u/s/h/shirui/private/cs537/p3a/p3/xv6-sp20/kernel/fs.c:613
  10249a:	c9                   	leave  
  10249b:	c3                   	ret    

0010249c <inb>:
inb():
/u/s/h/shirui/private/cs537/p3a/p3/xv6-sp20/include/x86.h:7
  10249c:	55                   	push   %ebp
  10249d:	89 e5                	mov    %esp,%ebp
  10249f:	83 ec 14             	sub    $0x14,%esp
  1024a2:	8b 45 08             	mov    0x8(%ebp),%eax
  1024a5:	66 89 45 ec          	mov    %ax,-0x14(%ebp)
/u/s/h/shirui/private/cs537/p3a/p3/xv6-sp20/include/x86.h:10
  1024a9:	0f b7 45 ec          	movzwl -0x14(%ebp),%eax
  1024ad:	89 c2                	mov    %eax,%edx
  1024af:	ec                   	in     (%dx),%al
  1024b0:	88 45 ff             	mov    %al,-0x1(%ebp)
/u/s/h/shirui/private/cs537/p3a/p3/xv6-sp20/include/x86.h:11
  1024b3:	0f b6 45 ff          	movzbl -0x1(%ebp),%eax
/u/s/h/shirui/private/cs537/p3a/p3/xv6-sp20/include/x86.h:12
  1024b7:	c9                   	leave  
  1024b8:	c3                   	ret    

001024b9 <insl>:
insl():
/u/s/h/shirui/private/cs537/p3a/p3/xv6-sp20/include/x86.h:16
  1024b9:	55                   	push   %ebp
  1024ba:	89 e5                	mov    %esp,%ebp
  1024bc:	57                   	push   %edi
  1024bd:	53                   	push   %ebx
/u/s/h/shirui/private/cs537/p3a/p3/xv6-sp20/include/x86.h:17
  1024be:	8b 55 08             	mov    0x8(%ebp),%edx
  1024c1:	8b 4d 0c             	mov    0xc(%ebp),%ecx
  1024c4:	8b 45 10             	mov    0x10(%ebp),%eax
  1024c7:	89 cb                	mov    %ecx,%ebx
  1024c9:	89 df                	mov    %ebx,%edi
  1024cb:	89 c1                	mov    %eax,%ecx
  1024cd:	fc                   	cld    
  1024ce:	f3 6d                	rep insl (%dx),%es:(%edi)
  1024d0:	89 c8                	mov    %ecx,%eax
  1024d2:	89 fb                	mov    %edi,%ebx
  1024d4:	89 5d 0c             	mov    %ebx,0xc(%ebp)
  1024d7:	89 45 10             	mov    %eax,0x10(%ebp)
/u/s/h/shirui/private/cs537/p3a/p3/xv6-sp20/include/x86.h:21
  1024da:	90                   	nop
  1024db:	5b                   	pop    %ebx
  1024dc:	5f                   	pop    %edi
  1024dd:	5d                   	pop    %ebp
  1024de:	c3                   	ret    

001024df <outb>:
outb():
/u/s/h/shirui/private/cs537/p3a/p3/xv6-sp20/include/x86.h:25
  1024df:	55                   	push   %ebp
  1024e0:	89 e5                	mov    %esp,%ebp
  1024e2:	83 ec 08             	sub    $0x8,%esp
  1024e5:	8b 55 08             	mov    0x8(%ebp),%edx
  1024e8:	8b 45 0c             	mov    0xc(%ebp),%eax
  1024eb:	66 89 55 fc          	mov    %dx,-0x4(%ebp)
  1024ef:	88 45 f8             	mov    %al,-0x8(%ebp)
/u/s/h/shirui/private/cs537/p3a/p3/xv6-sp20/include/x86.h:26
  1024f2:	0f b6 45 f8          	movzbl -0x8(%ebp),%eax
  1024f6:	0f b7 55 fc          	movzwl -0x4(%ebp),%edx
  1024fa:	ee                   	out    %al,(%dx)
/u/s/h/shirui/private/cs537/p3a/p3/xv6-sp20/include/x86.h:27
  1024fb:	90                   	nop
  1024fc:	c9                   	leave  
  1024fd:	c3                   	ret    

001024fe <outsl>:
outsl():
/u/s/h/shirui/private/cs537/p3a/p3/xv6-sp20/include/x86.h:37
  1024fe:	55                   	push   %ebp
  1024ff:	89 e5                	mov    %esp,%ebp
  102501:	56                   	push   %esi
  102502:	53                   	push   %ebx
/u/s/h/shirui/private/cs537/p3a/p3/xv6-sp20/include/x86.h:38
  102503:	8b 55 08             	mov    0x8(%ebp),%edx
  102506:	8b 4d 0c             	mov    0xc(%ebp),%ecx
  102509:	8b 45 10             	mov    0x10(%ebp),%eax
  10250c:	89 cb                	mov    %ecx,%ebx
  10250e:	89 de                	mov    %ebx,%esi
  102510:	89 c1                	mov    %eax,%ecx
  102512:	fc                   	cld    
  102513:	f3 6f                	rep outsl %ds:(%esi),(%dx)
  102515:	89 c8                	mov    %ecx,%eax
  102517:	89 f3                	mov    %esi,%ebx
  102519:	89 5d 0c             	mov    %ebx,0xc(%ebp)
  10251c:	89 45 10             	mov    %eax,0x10(%ebp)
/u/s/h/shirui/private/cs537/p3a/p3/xv6-sp20/include/x86.h:42
  10251f:	90                   	nop
  102520:	5b                   	pop    %ebx
  102521:	5e                   	pop    %esi
  102522:	5d                   	pop    %ebp
  102523:	c3                   	ret    

00102524 <idewait>:
idewait():
/u/s/h/shirui/private/cs537/p3a/p3/xv6-sp20/kernel/ide.c:34
  102524:	55                   	push   %ebp
  102525:	89 e5                	mov    %esp,%ebp
  102527:	83 ec 10             	sub    $0x10,%esp
/u/s/h/shirui/private/cs537/p3a/p3/xv6-sp20/kernel/ide.c:37
  10252a:	90                   	nop
/u/s/h/shirui/private/cs537/p3a/p3/xv6-sp20/kernel/ide.c:37 (discriminator 1)
  10252b:	68 f7 01 00 00       	push   $0x1f7
  102530:	e8 67 ff ff ff       	call   10249c <inb>
  102535:	83 c4 04             	add    $0x4,%esp
  102538:	0f b6 c0             	movzbl %al,%eax
  10253b:	89 45 fc             	mov    %eax,-0x4(%ebp)
  10253e:	8b 45 fc             	mov    -0x4(%ebp),%eax
  102541:	25 c0 00 00 00       	and    $0xc0,%eax
  102546:	83 f8 40             	cmp    $0x40,%eax
  102549:	75 e0                	jne    10252b <idewait+0x7>
/u/s/h/shirui/private/cs537/p3a/p3/xv6-sp20/kernel/ide.c:39
  10254b:	83 7d 08 00          	cmpl   $0x0,0x8(%ebp)
  10254f:	74 11                	je     102562 <idewait+0x3e>
/u/s/h/shirui/private/cs537/p3a/p3/xv6-sp20/kernel/ide.c:39 (discriminator 1)
  102551:	8b 45 fc             	mov    -0x4(%ebp),%eax
  102554:	83 e0 21             	and    $0x21,%eax
  102557:	85 c0                	test   %eax,%eax
  102559:	74 07                	je     102562 <idewait+0x3e>
/u/s/h/shirui/private/cs537/p3a/p3/xv6-sp20/kernel/ide.c:40
  10255b:	b8 ff ff ff ff       	mov    $0xffffffff,%eax
  102560:	eb 05                	jmp    102567 <idewait+0x43>
/u/s/h/shirui/private/cs537/p3a/p3/xv6-sp20/kernel/ide.c:41
  102562:	b8 00 00 00 00       	mov    $0x0,%eax
/u/s/h/shirui/private/cs537/p3a/p3/xv6-sp20/kernel/ide.c:42
  102567:	c9                   	leave  
  102568:	c3                   	ret    

00102569 <ideinit>:
ideinit():
/u/s/h/shirui/private/cs537/p3a/p3/xv6-sp20/kernel/ide.c:46
  102569:	55                   	push   %ebp
  10256a:	89 e5                	mov    %esp,%ebp
  10256c:	83 ec 18             	sub    $0x18,%esp
/u/s/h/shirui/private/cs537/p3a/p3/xv6-sp20/kernel/ide.c:49
  10256f:	83 ec 08             	sub    $0x8,%esp
  102572:	68 47 80 10 00       	push   $0x108047
  102577:	68 20 bb 10 00       	push   $0x10bb20
  10257c:	e8 dd 22 00 00       	call   10485e <initlock>
  102581:	83 c4 10             	add    $0x10,%esp
/u/s/h/shirui/private/cs537/p3a/p3/xv6-sp20/kernel/ide.c:50
  102584:	83 ec 0c             	sub    $0xc,%esp
  102587:	6a 0e                	push   $0xe
  102589:	e8 50 12 00 00       	call   1037de <picenable>
  10258e:	83 c4 10             	add    $0x10,%esp
/u/s/h/shirui/private/cs537/p3a/p3/xv6-sp20/kernel/ide.c:51
  102591:	a1 c0 03 11 00       	mov    0x1103c0,%eax
  102596:	83 e8 01             	sub    $0x1,%eax
  102599:	83 ec 08             	sub    $0x8,%esp
  10259c:	50                   	push   %eax
  10259d:	6a 0e                	push   $0xe
  10259f:	e8 37 04 00 00       	call   1029db <ioapicenable>
  1025a4:	83 c4 10             	add    $0x10,%esp
/u/s/h/shirui/private/cs537/p3a/p3/xv6-sp20/kernel/ide.c:52
  1025a7:	83 ec 0c             	sub    $0xc,%esp
  1025aa:	6a 00                	push   $0x0
  1025ac:	e8 73 ff ff ff       	call   102524 <idewait>
  1025b1:	83 c4 10             	add    $0x10,%esp
/u/s/h/shirui/private/cs537/p3a/p3/xv6-sp20/kernel/ide.c:55
  1025b4:	83 ec 08             	sub    $0x8,%esp
  1025b7:	68 f0 00 00 00       	push   $0xf0
  1025bc:	68 f6 01 00 00       	push   $0x1f6
  1025c1:	e8 19 ff ff ff       	call   1024df <outb>
  1025c6:	83 c4 10             	add    $0x10,%esp
/u/s/h/shirui/private/cs537/p3a/p3/xv6-sp20/kernel/ide.c:56
  1025c9:	c7 45 f4 00 00 00 00 	movl   $0x0,-0xc(%ebp)
  1025d0:	eb 24                	jmp    1025f6 <ideinit+0x8d>
/u/s/h/shirui/private/cs537/p3a/p3/xv6-sp20/kernel/ide.c:57
  1025d2:	83 ec 0c             	sub    $0xc,%esp
  1025d5:	68 f7 01 00 00       	push   $0x1f7
  1025da:	e8 bd fe ff ff       	call   10249c <inb>
  1025df:	83 c4 10             	add    $0x10,%esp
  1025e2:	84 c0                	test   %al,%al
  1025e4:	74 0c                	je     1025f2 <ideinit+0x89>
/u/s/h/shirui/private/cs537/p3a/p3/xv6-sp20/kernel/ide.c:58
  1025e6:	c7 05 58 bb 10 00 01 	movl   $0x1,0x10bb58
  1025ed:	00 00 00 
/u/s/h/shirui/private/cs537/p3a/p3/xv6-sp20/kernel/ide.c:59
  1025f0:	eb 0d                	jmp    1025ff <ideinit+0x96>
/u/s/h/shirui/private/cs537/p3a/p3/xv6-sp20/kernel/ide.c:56 (discriminator 2)
  1025f2:	83 45 f4 01          	addl   $0x1,-0xc(%ebp)
/u/s/h/shirui/private/cs537/p3a/p3/xv6-sp20/kernel/ide.c:56 (discriminator 1)
  1025f6:	81 7d f4 e7 03 00 00 	cmpl   $0x3e7,-0xc(%ebp)
  1025fd:	7e d3                	jle    1025d2 <ideinit+0x69>
/u/s/h/shirui/private/cs537/p3a/p3/xv6-sp20/kernel/ide.c:64
  1025ff:	83 ec 08             	sub    $0x8,%esp
  102602:	68 e0 00 00 00       	push   $0xe0
  102607:	68 f6 01 00 00       	push   $0x1f6
  10260c:	e8 ce fe ff ff       	call   1024df <outb>
  102611:	83 c4 10             	add    $0x10,%esp
/u/s/h/shirui/private/cs537/p3a/p3/xv6-sp20/kernel/ide.c:65
  102614:	90                   	nop
  102615:	c9                   	leave  
  102616:	c3                   	ret    

00102617 <idestart>:
idestart():
/u/s/h/shirui/private/cs537/p3a/p3/xv6-sp20/kernel/ide.c:70
  102617:	55                   	push   %ebp
  102618:	89 e5                	mov    %esp,%ebp
  10261a:	83 ec 08             	sub    $0x8,%esp
/u/s/h/shirui/private/cs537/p3a/p3/xv6-sp20/kernel/ide.c:71
  10261d:	83 7d 08 00          	cmpl   $0x0,0x8(%ebp)
  102621:	75 0d                	jne    102630 <idestart+0x19>
/u/s/h/shirui/private/cs537/p3a/p3/xv6-sp20/kernel/ide.c:72
  102623:	83 ec 0c             	sub    $0xc,%esp
  102626:	68 4b 80 10 00       	push   $0x10804b
  10262b:	e8 48 df ff ff       	call   100578 <panic>
/u/s/h/shirui/private/cs537/p3a/p3/xv6-sp20/kernel/ide.c:74
  102630:	83 ec 0c             	sub    $0xc,%esp
  102633:	6a 00                	push   $0x0
  102635:	e8 ea fe ff ff       	call   102524 <idewait>
  10263a:	83 c4 10             	add    $0x10,%esp
/u/s/h/shirui/private/cs537/p3a/p3/xv6-sp20/kernel/ide.c:75
  10263d:	83 ec 08             	sub    $0x8,%esp
  102640:	6a 00                	push   $0x0
  102642:	68 f6 03 00 00       	push   $0x3f6
  102647:	e8 93 fe ff ff       	call   1024df <outb>
  10264c:	83 c4 10             	add    $0x10,%esp
/u/s/h/shirui/private/cs537/p3a/p3/xv6-sp20/kernel/ide.c:76
  10264f:	83 ec 08             	sub    $0x8,%esp
  102652:	6a 01                	push   $0x1
  102654:	68 f2 01 00 00       	push   $0x1f2
  102659:	e8 81 fe ff ff       	call   1024df <outb>
  10265e:	83 c4 10             	add    $0x10,%esp
/u/s/h/shirui/private/cs537/p3a/p3/xv6-sp20/kernel/ide.c:77
  102661:	8b 45 08             	mov    0x8(%ebp),%eax
  102664:	8b 40 08             	mov    0x8(%eax),%eax
  102667:	0f b6 c0             	movzbl %al,%eax
  10266a:	83 ec 08             	sub    $0x8,%esp
  10266d:	50                   	push   %eax
  10266e:	68 f3 01 00 00       	push   $0x1f3
  102673:	e8 67 fe ff ff       	call   1024df <outb>
  102678:	83 c4 10             	add    $0x10,%esp
/u/s/h/shirui/private/cs537/p3a/p3/xv6-sp20/kernel/ide.c:78
  10267b:	8b 45 08             	mov    0x8(%ebp),%eax
  10267e:	8b 40 08             	mov    0x8(%eax),%eax
  102681:	c1 e8 08             	shr    $0x8,%eax
  102684:	0f b6 c0             	movzbl %al,%eax
  102687:	83 ec 08             	sub    $0x8,%esp
  10268a:	50                   	push   %eax
  10268b:	68 f4 01 00 00       	push   $0x1f4
  102690:	e8 4a fe ff ff       	call   1024df <outb>
  102695:	83 c4 10             	add    $0x10,%esp
/u/s/h/shirui/private/cs537/p3a/p3/xv6-sp20/kernel/ide.c:79
  102698:	8b 45 08             	mov    0x8(%ebp),%eax
  10269b:	8b 40 08             	mov    0x8(%eax),%eax
  10269e:	c1 e8 10             	shr    $0x10,%eax
  1026a1:	0f b6 c0             	movzbl %al,%eax
  1026a4:	83 ec 08             	sub    $0x8,%esp
  1026a7:	50                   	push   %eax
  1026a8:	68 f5 01 00 00       	push   $0x1f5
  1026ad:	e8 2d fe ff ff       	call   1024df <outb>
  1026b2:	83 c4 10             	add    $0x10,%esp
/u/s/h/shirui/private/cs537/p3a/p3/xv6-sp20/kernel/ide.c:80
  1026b5:	8b 45 08             	mov    0x8(%ebp),%eax
  1026b8:	8b 40 04             	mov    0x4(%eax),%eax
  1026bb:	c1 e0 04             	shl    $0x4,%eax
  1026be:	83 e0 10             	and    $0x10,%eax
  1026c1:	89 c2                	mov    %eax,%edx
  1026c3:	8b 45 08             	mov    0x8(%ebp),%eax
  1026c6:	8b 40 08             	mov    0x8(%eax),%eax
  1026c9:	c1 e8 18             	shr    $0x18,%eax
  1026cc:	83 e0 0f             	and    $0xf,%eax
  1026cf:	09 d0                	or     %edx,%eax
  1026d1:	83 c8 e0             	or     $0xffffffe0,%eax
  1026d4:	0f b6 c0             	movzbl %al,%eax
  1026d7:	83 ec 08             	sub    $0x8,%esp
  1026da:	50                   	push   %eax
  1026db:	68 f6 01 00 00       	push   $0x1f6
  1026e0:	e8 fa fd ff ff       	call   1024df <outb>
  1026e5:	83 c4 10             	add    $0x10,%esp
/u/s/h/shirui/private/cs537/p3a/p3/xv6-sp20/kernel/ide.c:81
  1026e8:	8b 45 08             	mov    0x8(%ebp),%eax
  1026eb:	8b 00                	mov    (%eax),%eax
  1026ed:	83 e0 04             	and    $0x4,%eax
  1026f0:	85 c0                	test   %eax,%eax
  1026f2:	74 30                	je     102724 <idestart+0x10d>
/u/s/h/shirui/private/cs537/p3a/p3/xv6-sp20/kernel/ide.c:82
  1026f4:	83 ec 08             	sub    $0x8,%esp
  1026f7:	6a 30                	push   $0x30
  1026f9:	68 f7 01 00 00       	push   $0x1f7
  1026fe:	e8 dc fd ff ff       	call   1024df <outb>
  102703:	83 c4 10             	add    $0x10,%esp
/u/s/h/shirui/private/cs537/p3a/p3/xv6-sp20/kernel/ide.c:83
  102706:	8b 45 08             	mov    0x8(%ebp),%eax
  102709:	83 c0 18             	add    $0x18,%eax
  10270c:	83 ec 04             	sub    $0x4,%esp
  10270f:	68 80 00 00 00       	push   $0x80
  102714:	50                   	push   %eax
  102715:	68 f0 01 00 00       	push   $0x1f0
  10271a:	e8 df fd ff ff       	call   1024fe <outsl>
  10271f:	83 c4 10             	add    $0x10,%esp
/u/s/h/shirui/private/cs537/p3a/p3/xv6-sp20/kernel/ide.c:87
  102722:	eb 12                	jmp    102736 <idestart+0x11f>
/u/s/h/shirui/private/cs537/p3a/p3/xv6-sp20/kernel/ide.c:85
  102724:	83 ec 08             	sub    $0x8,%esp
  102727:	6a 20                	push   $0x20
  102729:	68 f7 01 00 00       	push   $0x1f7
  10272e:	e8 ac fd ff ff       	call   1024df <outb>
  102733:	83 c4 10             	add    $0x10,%esp
/u/s/h/shirui/private/cs537/p3a/p3/xv6-sp20/kernel/ide.c:87
  102736:	90                   	nop
  102737:	c9                   	leave  
  102738:	c3                   	ret    

00102739 <ideintr>:
ideintr():
/u/s/h/shirui/private/cs537/p3a/p3/xv6-sp20/kernel/ide.c:92
  102739:	55                   	push   %ebp
  10273a:	89 e5                	mov    %esp,%ebp
  10273c:	83 ec 18             	sub    $0x18,%esp
/u/s/h/shirui/private/cs537/p3a/p3/xv6-sp20/kernel/ide.c:96
  10273f:	83 ec 0c             	sub    $0xc,%esp
  102742:	68 20 bb 10 00       	push   $0x10bb20
  102747:	e8 34 21 00 00       	call   104880 <acquire>
  10274c:	83 c4 10             	add    $0x10,%esp
/u/s/h/shirui/private/cs537/p3a/p3/xv6-sp20/kernel/ide.c:97
  10274f:	a1 54 bb 10 00       	mov    0x10bb54,%eax
  102754:	89 45 f4             	mov    %eax,-0xc(%ebp)
  102757:	83 7d f4 00          	cmpl   $0x0,-0xc(%ebp)
  10275b:	75 15                	jne    102772 <ideintr+0x39>
/u/s/h/shirui/private/cs537/p3a/p3/xv6-sp20/kernel/ide.c:98
  10275d:	83 ec 0c             	sub    $0xc,%esp
  102760:	68 20 bb 10 00       	push   $0x10bb20
  102765:	e8 7d 21 00 00       	call   1048e7 <release>
  10276a:	83 c4 10             	add    $0x10,%esp
/u/s/h/shirui/private/cs537/p3a/p3/xv6-sp20/kernel/ide.c:100
  10276d:	e9 9a 00 00 00       	jmp    10280c <ideintr+0xd3>
/u/s/h/shirui/private/cs537/p3a/p3/xv6-sp20/kernel/ide.c:102
  102772:	8b 45 f4             	mov    -0xc(%ebp),%eax
  102775:	8b 40 14             	mov    0x14(%eax),%eax
  102778:	a3 54 bb 10 00       	mov    %eax,0x10bb54
/u/s/h/shirui/private/cs537/p3a/p3/xv6-sp20/kernel/ide.c:105
  10277d:	8b 45 f4             	mov    -0xc(%ebp),%eax
  102780:	8b 00                	mov    (%eax),%eax
  102782:	83 e0 04             	and    $0x4,%eax
  102785:	85 c0                	test   %eax,%eax
  102787:	75 2d                	jne    1027b6 <ideintr+0x7d>
/u/s/h/shirui/private/cs537/p3a/p3/xv6-sp20/kernel/ide.c:105 (discriminator 1)
  102789:	83 ec 0c             	sub    $0xc,%esp
  10278c:	6a 01                	push   $0x1
  10278e:	e8 91 fd ff ff       	call   102524 <idewait>
  102793:	83 c4 10             	add    $0x10,%esp
  102796:	85 c0                	test   %eax,%eax
  102798:	78 1c                	js     1027b6 <ideintr+0x7d>
/u/s/h/shirui/private/cs537/p3a/p3/xv6-sp20/kernel/ide.c:106
  10279a:	8b 45 f4             	mov    -0xc(%ebp),%eax
  10279d:	83 c0 18             	add    $0x18,%eax
  1027a0:	83 ec 04             	sub    $0x4,%esp
  1027a3:	68 80 00 00 00       	push   $0x80
  1027a8:	50                   	push   %eax
  1027a9:	68 f0 01 00 00       	push   $0x1f0
  1027ae:	e8 06 fd ff ff       	call   1024b9 <insl>
  1027b3:	83 c4 10             	add    $0x10,%esp
/u/s/h/shirui/private/cs537/p3a/p3/xv6-sp20/kernel/ide.c:109
  1027b6:	8b 45 f4             	mov    -0xc(%ebp),%eax
  1027b9:	8b 00                	mov    (%eax),%eax
  1027bb:	83 c8 02             	or     $0x2,%eax
  1027be:	89 c2                	mov    %eax,%edx
  1027c0:	8b 45 f4             	mov    -0xc(%ebp),%eax
  1027c3:	89 10                	mov    %edx,(%eax)
/u/s/h/shirui/private/cs537/p3a/p3/xv6-sp20/kernel/ide.c:110
  1027c5:	8b 45 f4             	mov    -0xc(%ebp),%eax
  1027c8:	8b 00                	mov    (%eax),%eax
  1027ca:	83 e0 fb             	and    $0xfffffffb,%eax
  1027cd:	89 c2                	mov    %eax,%edx
  1027cf:	8b 45 f4             	mov    -0xc(%ebp),%eax
  1027d2:	89 10                	mov    %edx,(%eax)
/u/s/h/shirui/private/cs537/p3a/p3/xv6-sp20/kernel/ide.c:111
  1027d4:	83 ec 0c             	sub    $0xc,%esp
  1027d7:	ff 75 f4             	pushl  -0xc(%ebp)
  1027da:	e8 93 1e 00 00       	call   104672 <wakeup>
  1027df:	83 c4 10             	add    $0x10,%esp
/u/s/h/shirui/private/cs537/p3a/p3/xv6-sp20/kernel/ide.c:114
  1027e2:	a1 54 bb 10 00       	mov    0x10bb54,%eax
  1027e7:	85 c0                	test   %eax,%eax
  1027e9:	74 11                	je     1027fc <ideintr+0xc3>
/u/s/h/shirui/private/cs537/p3a/p3/xv6-sp20/kernel/ide.c:115
  1027eb:	a1 54 bb 10 00       	mov    0x10bb54,%eax
  1027f0:	83 ec 0c             	sub    $0xc,%esp
  1027f3:	50                   	push   %eax
  1027f4:	e8 1e fe ff ff       	call   102617 <idestart>
  1027f9:	83 c4 10             	add    $0x10,%esp
/u/s/h/shirui/private/cs537/p3a/p3/xv6-sp20/kernel/ide.c:117
  1027fc:	83 ec 0c             	sub    $0xc,%esp
  1027ff:	68 20 bb 10 00       	push   $0x10bb20
  102804:	e8 de 20 00 00       	call   1048e7 <release>
  102809:	83 c4 10             	add    $0x10,%esp
/u/s/h/shirui/private/cs537/p3a/p3/xv6-sp20/kernel/ide.c:118
  10280c:	c9                   	leave  
  10280d:	c3                   	ret    

0010280e <iderw>:
iderw():
/u/s/h/shirui/private/cs537/p3a/p3/xv6-sp20/kernel/ide.c:125
  10280e:	55                   	push   %ebp
  10280f:	89 e5                	mov    %esp,%ebp
  102811:	83 ec 18             	sub    $0x18,%esp
/u/s/h/shirui/private/cs537/p3a/p3/xv6-sp20/kernel/ide.c:128
  102814:	8b 45 08             	mov    0x8(%ebp),%eax
  102817:	8b 00                	mov    (%eax),%eax
  102819:	83 e0 01             	and    $0x1,%eax
  10281c:	85 c0                	test   %eax,%eax
  10281e:	75 0d                	jne    10282d <iderw+0x1f>
/u/s/h/shirui/private/cs537/p3a/p3/xv6-sp20/kernel/ide.c:129
  102820:	83 ec 0c             	sub    $0xc,%esp
  102823:	68 54 80 10 00       	push   $0x108054
  102828:	e8 4b dd ff ff       	call   100578 <panic>
/u/s/h/shirui/private/cs537/p3a/p3/xv6-sp20/kernel/ide.c:130
  10282d:	8b 45 08             	mov    0x8(%ebp),%eax
  102830:	8b 00                	mov    (%eax),%eax
  102832:	83 e0 06             	and    $0x6,%eax
  102835:	83 f8 02             	cmp    $0x2,%eax
  102838:	75 0d                	jne    102847 <iderw+0x39>
/u/s/h/shirui/private/cs537/p3a/p3/xv6-sp20/kernel/ide.c:131
  10283a:	83 ec 0c             	sub    $0xc,%esp
  10283d:	68 68 80 10 00       	push   $0x108068
  102842:	e8 31 dd ff ff       	call   100578 <panic>
/u/s/h/shirui/private/cs537/p3a/p3/xv6-sp20/kernel/ide.c:132
  102847:	8b 45 08             	mov    0x8(%ebp),%eax
  10284a:	8b 40 04             	mov    0x4(%eax),%eax
  10284d:	85 c0                	test   %eax,%eax
  10284f:	74 16                	je     102867 <iderw+0x59>
/u/s/h/shirui/private/cs537/p3a/p3/xv6-sp20/kernel/ide.c:132 (discriminator 1)
  102851:	a1 58 bb 10 00       	mov    0x10bb58,%eax
  102856:	85 c0                	test   %eax,%eax
  102858:	75 0d                	jne    102867 <iderw+0x59>
/u/s/h/shirui/private/cs537/p3a/p3/xv6-sp20/kernel/ide.c:133
  10285a:	83 ec 0c             	sub    $0xc,%esp
  10285d:	68 7d 80 10 00       	push   $0x10807d
  102862:	e8 11 dd ff ff       	call   100578 <panic>
/u/s/h/shirui/private/cs537/p3a/p3/xv6-sp20/kernel/ide.c:135
  102867:	83 ec 0c             	sub    $0xc,%esp
  10286a:	68 20 bb 10 00       	push   $0x10bb20
  10286f:	e8 0c 20 00 00       	call   104880 <acquire>
  102874:	83 c4 10             	add    $0x10,%esp
/u/s/h/shirui/private/cs537/p3a/p3/xv6-sp20/kernel/ide.c:138
  102877:	8b 45 08             	mov    0x8(%ebp),%eax
  10287a:	c7 40 14 00 00 00 00 	movl   $0x0,0x14(%eax)
/u/s/h/shirui/private/cs537/p3a/p3/xv6-sp20/kernel/ide.c:139
  102881:	c7 45 f4 54 bb 10 00 	movl   $0x10bb54,-0xc(%ebp)
  102888:	eb 0b                	jmp    102895 <iderw+0x87>
/u/s/h/shirui/private/cs537/p3a/p3/xv6-sp20/kernel/ide.c:139 (discriminator 3)
  10288a:	8b 45 f4             	mov    -0xc(%ebp),%eax
  10288d:	8b 00                	mov    (%eax),%eax
  10288f:	83 c0 14             	add    $0x14,%eax
  102892:	89 45 f4             	mov    %eax,-0xc(%ebp)
/u/s/h/shirui/private/cs537/p3a/p3/xv6-sp20/kernel/ide.c:139 (discriminator 1)
  102895:	8b 45 f4             	mov    -0xc(%ebp),%eax
  102898:	8b 00                	mov    (%eax),%eax
  10289a:	85 c0                	test   %eax,%eax
  10289c:	75 ec                	jne    10288a <iderw+0x7c>
/u/s/h/shirui/private/cs537/p3a/p3/xv6-sp20/kernel/ide.c:141
  10289e:	8b 45 f4             	mov    -0xc(%ebp),%eax
  1028a1:	8b 55 08             	mov    0x8(%ebp),%edx
  1028a4:	89 10                	mov    %edx,(%eax)
/u/s/h/shirui/private/cs537/p3a/p3/xv6-sp20/kernel/ide.c:144
  1028a6:	a1 54 bb 10 00       	mov    0x10bb54,%eax
  1028ab:	39 45 08             	cmp    %eax,0x8(%ebp)
  1028ae:	75 23                	jne    1028d3 <iderw+0xc5>
/u/s/h/shirui/private/cs537/p3a/p3/xv6-sp20/kernel/ide.c:145
  1028b0:	83 ec 0c             	sub    $0xc,%esp
  1028b3:	ff 75 08             	pushl  0x8(%ebp)
  1028b6:	e8 5c fd ff ff       	call   102617 <idestart>
  1028bb:	83 c4 10             	add    $0x10,%esp
/u/s/h/shirui/private/cs537/p3a/p3/xv6-sp20/kernel/ide.c:149
  1028be:	eb 13                	jmp    1028d3 <iderw+0xc5>
/u/s/h/shirui/private/cs537/p3a/p3/xv6-sp20/kernel/ide.c:150
  1028c0:	83 ec 08             	sub    $0x8,%esp
  1028c3:	68 20 bb 10 00       	push   $0x10bb20
  1028c8:	ff 75 08             	pushl  0x8(%ebp)
  1028cb:	e8 b7 1c 00 00       	call   104587 <sleep>
  1028d0:	83 c4 10             	add    $0x10,%esp
/u/s/h/shirui/private/cs537/p3a/p3/xv6-sp20/kernel/ide.c:149
  1028d3:	8b 45 08             	mov    0x8(%ebp),%eax
  1028d6:	8b 00                	mov    (%eax),%eax
  1028d8:	83 e0 06             	and    $0x6,%eax
  1028db:	83 f8 02             	cmp    $0x2,%eax
  1028de:	75 e0                	jne    1028c0 <iderw+0xb2>
/u/s/h/shirui/private/cs537/p3a/p3/xv6-sp20/kernel/ide.c:153
  1028e0:	83 ec 0c             	sub    $0xc,%esp
  1028e3:	68 20 bb 10 00       	push   $0x10bb20
  1028e8:	e8 fa 1f 00 00       	call   1048e7 <release>
  1028ed:	83 c4 10             	add    $0x10,%esp
/u/s/h/shirui/private/cs537/p3a/p3/xv6-sp20/kernel/ide.c:154
  1028f0:	90                   	nop
  1028f1:	c9                   	leave  
  1028f2:	c3                   	ret    

001028f3 <ioapicread>:
ioapicread():
/u/s/h/shirui/private/cs537/p3a/p3/xv6-sp20/kernel/ioapic.c:36
  1028f3:	55                   	push   %ebp
  1028f4:	89 e5                	mov    %esp,%ebp
/u/s/h/shirui/private/cs537/p3a/p3/xv6-sp20/kernel/ioapic.c:37
  1028f6:	a1 54 fd 10 00       	mov    0x10fd54,%eax
  1028fb:	8b 55 08             	mov    0x8(%ebp),%edx
  1028fe:	89 10                	mov    %edx,(%eax)
/u/s/h/shirui/private/cs537/p3a/p3/xv6-sp20/kernel/ioapic.c:38
  102900:	a1 54 fd 10 00       	mov    0x10fd54,%eax
  102905:	8b 40 10             	mov    0x10(%eax),%eax
/u/s/h/shirui/private/cs537/p3a/p3/xv6-sp20/kernel/ioapic.c:39
  102908:	5d                   	pop    %ebp
  102909:	c3                   	ret    

0010290a <ioapicwrite>:
ioapicwrite():
/u/s/h/shirui/private/cs537/p3a/p3/xv6-sp20/kernel/ioapic.c:43
  10290a:	55                   	push   %ebp
  10290b:	89 e5                	mov    %esp,%ebp
/u/s/h/shirui/private/cs537/p3a/p3/xv6-sp20/kernel/ioapic.c:44
  10290d:	a1 54 fd 10 00       	mov    0x10fd54,%eax
  102912:	8b 55 08             	mov    0x8(%ebp),%edx
  102915:	89 10                	mov    %edx,(%eax)
/u/s/h/shirui/private/cs537/p3a/p3/xv6-sp20/kernel/ioapic.c:45
  102917:	a1 54 fd 10 00       	mov    0x10fd54,%eax
  10291c:	8b 55 0c             	mov    0xc(%ebp),%edx
  10291f:	89 50 10             	mov    %edx,0x10(%eax)
/u/s/h/shirui/private/cs537/p3a/p3/xv6-sp20/kernel/ioapic.c:46
  102922:	90                   	nop
  102923:	5d                   	pop    %ebp
  102924:	c3                   	ret    

00102925 <ioapicinit>:
ioapicinit():
/u/s/h/shirui/private/cs537/p3a/p3/xv6-sp20/kernel/ioapic.c:50
  102925:	55                   	push   %ebp
  102926:	89 e5                	mov    %esp,%ebp
  102928:	83 ec 18             	sub    $0x18,%esp
/u/s/h/shirui/private/cs537/p3a/p3/xv6-sp20/kernel/ioapic.c:53
  10292b:	a1 c4 fd 10 00       	mov    0x10fdc4,%eax
  102930:	85 c0                	test   %eax,%eax
  102932:	0f 84 a0 00 00 00    	je     1029d8 <ioapicinit+0xb3>
/u/s/h/shirui/private/cs537/p3a/p3/xv6-sp20/kernel/ioapic.c:56
  102938:	c7 05 54 fd 10 00 00 	movl   $0xfec00000,0x10fd54
  10293f:	00 c0 fe 
/u/s/h/shirui/private/cs537/p3a/p3/xv6-sp20/kernel/ioapic.c:57
  102942:	6a 01                	push   $0x1
  102944:	e8 aa ff ff ff       	call   1028f3 <ioapicread>
  102949:	83 c4 04             	add    $0x4,%esp
  10294c:	c1 e8 10             	shr    $0x10,%eax
  10294f:	25 ff 00 00 00       	and    $0xff,%eax
  102954:	89 45 f0             	mov    %eax,-0x10(%ebp)
/u/s/h/shirui/private/cs537/p3a/p3/xv6-sp20/kernel/ioapic.c:58
  102957:	6a 00                	push   $0x0
  102959:	e8 95 ff ff ff       	call   1028f3 <ioapicread>
  10295e:	83 c4 04             	add    $0x4,%esp
  102961:	c1 e8 18             	shr    $0x18,%eax
  102964:	89 45 ec             	mov    %eax,-0x14(%ebp)
/u/s/h/shirui/private/cs537/p3a/p3/xv6-sp20/kernel/ioapic.c:59
  102967:	0f b6 05 c0 fd 10 00 	movzbl 0x10fdc0,%eax
  10296e:	0f b6 c0             	movzbl %al,%eax
  102971:	39 45 ec             	cmp    %eax,-0x14(%ebp)
  102974:	74 10                	je     102986 <ioapicinit+0x61>
/u/s/h/shirui/private/cs537/p3a/p3/xv6-sp20/kernel/ioapic.c:60
  102976:	83 ec 0c             	sub    $0xc,%esp
  102979:	68 9c 80 10 00       	push   $0x10809c
  10297e:	e8 69 da ff ff       	call   1003ec <cprintf>
  102983:	83 c4 10             	add    $0x10,%esp
/u/s/h/shirui/private/cs537/p3a/p3/xv6-sp20/kernel/ioapic.c:64
  102986:	c7 45 f4 00 00 00 00 	movl   $0x0,-0xc(%ebp)
  10298d:	eb 3f                	jmp    1029ce <ioapicinit+0xa9>
/u/s/h/shirui/private/cs537/p3a/p3/xv6-sp20/kernel/ioapic.c:65 (discriminator 3)
  10298f:	8b 45 f4             	mov    -0xc(%ebp),%eax
  102992:	83 c0 20             	add    $0x20,%eax
  102995:	0d 00 00 01 00       	or     $0x10000,%eax
  10299a:	89 c2                	mov    %eax,%edx
  10299c:	8b 45 f4             	mov    -0xc(%ebp),%eax
  10299f:	83 c0 08             	add    $0x8,%eax
  1029a2:	01 c0                	add    %eax,%eax
  1029a4:	83 ec 08             	sub    $0x8,%esp
  1029a7:	52                   	push   %edx
  1029a8:	50                   	push   %eax
  1029a9:	e8 5c ff ff ff       	call   10290a <ioapicwrite>
  1029ae:	83 c4 10             	add    $0x10,%esp
/u/s/h/shirui/private/cs537/p3a/p3/xv6-sp20/kernel/ioapic.c:66 (discriminator 3)
  1029b1:	8b 45 f4             	mov    -0xc(%ebp),%eax
  1029b4:	83 c0 08             	add    $0x8,%eax
  1029b7:	01 c0                	add    %eax,%eax
  1029b9:	83 c0 01             	add    $0x1,%eax
  1029bc:	83 ec 08             	sub    $0x8,%esp
  1029bf:	6a 00                	push   $0x0
  1029c1:	50                   	push   %eax
  1029c2:	e8 43 ff ff ff       	call   10290a <ioapicwrite>
  1029c7:	83 c4 10             	add    $0x10,%esp
/u/s/h/shirui/private/cs537/p3a/p3/xv6-sp20/kernel/ioapic.c:64 (discriminator 3)
  1029ca:	83 45 f4 01          	addl   $0x1,-0xc(%ebp)
/u/s/h/shirui/private/cs537/p3a/p3/xv6-sp20/kernel/ioapic.c:64 (discriminator 1)
  1029ce:	8b 45 f4             	mov    -0xc(%ebp),%eax
  1029d1:	3b 45 f0             	cmp    -0x10(%ebp),%eax
  1029d4:	7e b9                	jle    10298f <ioapicinit+0x6a>
  1029d6:	eb 01                	jmp    1029d9 <ioapicinit+0xb4>
/u/s/h/shirui/private/cs537/p3a/p3/xv6-sp20/kernel/ioapic.c:54
  1029d8:	90                   	nop
/u/s/h/shirui/private/cs537/p3a/p3/xv6-sp20/kernel/ioapic.c:68
  1029d9:	c9                   	leave  
  1029da:	c3                   	ret    

001029db <ioapicenable>:
ioapicenable():
/u/s/h/shirui/private/cs537/p3a/p3/xv6-sp20/kernel/ioapic.c:72
  1029db:	55                   	push   %ebp
  1029dc:	89 e5                	mov    %esp,%ebp
/u/s/h/shirui/private/cs537/p3a/p3/xv6-sp20/kernel/ioapic.c:73
  1029de:	a1 c4 fd 10 00       	mov    0x10fdc4,%eax
  1029e3:	85 c0                	test   %eax,%eax
  1029e5:	74 39                	je     102a20 <ioapicenable+0x45>
/u/s/h/shirui/private/cs537/p3a/p3/xv6-sp20/kernel/ioapic.c:79
  1029e7:	8b 45 08             	mov    0x8(%ebp),%eax
  1029ea:	83 c0 20             	add    $0x20,%eax
  1029ed:	89 c2                	mov    %eax,%edx
  1029ef:	8b 45 08             	mov    0x8(%ebp),%eax
  1029f2:	83 c0 08             	add    $0x8,%eax
  1029f5:	01 c0                	add    %eax,%eax
  1029f7:	52                   	push   %edx
  1029f8:	50                   	push   %eax
  1029f9:	e8 0c ff ff ff       	call   10290a <ioapicwrite>
  1029fe:	83 c4 08             	add    $0x8,%esp
/u/s/h/shirui/private/cs537/p3a/p3/xv6-sp20/kernel/ioapic.c:80
  102a01:	8b 45 0c             	mov    0xc(%ebp),%eax
  102a04:	c1 e0 18             	shl    $0x18,%eax
  102a07:	89 c2                	mov    %eax,%edx
  102a09:	8b 45 08             	mov    0x8(%ebp),%eax
  102a0c:	83 c0 08             	add    $0x8,%eax
  102a0f:	01 c0                	add    %eax,%eax
  102a11:	83 c0 01             	add    $0x1,%eax
  102a14:	52                   	push   %edx
  102a15:	50                   	push   %eax
  102a16:	e8 ef fe ff ff       	call   10290a <ioapicwrite>
  102a1b:	83 c4 08             	add    $0x8,%esp
  102a1e:	eb 01                	jmp    102a21 <ioapicenable+0x46>
/u/s/h/shirui/private/cs537/p3a/p3/xv6-sp20/kernel/ioapic.c:74
  102a20:	90                   	nop
/u/s/h/shirui/private/cs537/p3a/p3/xv6-sp20/kernel/ioapic.c:81
  102a21:	c9                   	leave  
  102a22:	c3                   	ret    

00102a23 <kinit>:
kinit():
/u/s/h/shirui/private/cs537/p3a/p3/xv6-sp20/kernel/kalloc.c:35
  102a23:	55                   	push   %ebp
  102a24:	89 e5                	mov    %esp,%ebp
  102a26:	83 ec 18             	sub    $0x18,%esp
/u/s/h/shirui/private/cs537/p3a/p3/xv6-sp20/kernel/kalloc.c:38
  102a29:	83 ec 08             	sub    $0x8,%esp
  102a2c:	68 ce 80 10 00       	push   $0x1080ce
  102a31:	68 60 fd 10 00       	push   $0x10fd60
  102a36:	e8 23 1e 00 00       	call   10485e <initlock>
  102a3b:	83 c4 10             	add    $0x10,%esp
/u/s/h/shirui/private/cs537/p3a/p3/xv6-sp20/kernel/kalloc.c:39
  102a3e:	b8 64 2b 11 00       	mov    $0x112b64,%eax
  102a43:	05 ff 0f 00 00       	add    $0xfff,%eax
  102a48:	25 00 f0 ff ff       	and    $0xfffff000,%eax
  102a4d:	89 45 f4             	mov    %eax,-0xc(%ebp)
/u/s/h/shirui/private/cs537/p3a/p3/xv6-sp20/kernel/kalloc.c:40
  102a50:	eb 15                	jmp    102a67 <kinit+0x44>
/u/s/h/shirui/private/cs537/p3a/p3/xv6-sp20/kernel/kalloc.c:41 (discriminator 2)
  102a52:	83 ec 0c             	sub    $0xc,%esp
  102a55:	ff 75 f4             	pushl  -0xc(%ebp)
  102a58:	e8 3d 00 00 00       	call   102a9a <kfree>
  102a5d:	83 c4 10             	add    $0x10,%esp
/u/s/h/shirui/private/cs537/p3a/p3/xv6-sp20/kernel/kalloc.c:40 (discriminator 2)
  102a60:	81 45 f4 00 10 00 00 	addl   $0x1000,-0xc(%ebp)
/u/s/h/shirui/private/cs537/p3a/p3/xv6-sp20/kernel/kalloc.c:40 (discriminator 1)
  102a67:	8b 45 f4             	mov    -0xc(%ebp),%eax
  102a6a:	05 00 10 00 00       	add    $0x1000,%eax
  102a6f:	3d 00 00 00 01       	cmp    $0x1000000,%eax
  102a74:	76 dc                	jbe    102a52 <kinit+0x2f>
/u/s/h/shirui/private/cs537/p3a/p3/xv6-sp20/kernel/kalloc.c:43
  102a76:	a1 9c fd 10 00       	mov    0x10fd9c,%eax
  102a7b:	c7 00 00 00 00 00    	movl   $0x0,(%eax)
/u/s/h/shirui/private/cs537/p3a/p3/xv6-sp20/kernel/kalloc.c:44
  102a81:	a1 9c fd 10 00       	mov    0x10fd9c,%eax
  102a86:	c7 40 04 00 00 00 00 	movl   $0x0,0x4(%eax)
/u/s/h/shirui/private/cs537/p3a/p3/xv6-sp20/kernel/kalloc.c:45
  102a8d:	c7 05 98 fd 10 00 00 	movl   $0x0,0x10fd98
  102a94:	00 00 00 
/u/s/h/shirui/private/cs537/p3a/p3/xv6-sp20/kernel/kalloc.c:48
  102a97:	90                   	nop
  102a98:	c9                   	leave  
  102a99:	c3                   	ret    

00102a9a <kfree>:
kfree():
/u/s/h/shirui/private/cs537/p3a/p3/xv6-sp20/kernel/kalloc.c:56
  102a9a:	55                   	push   %ebp
  102a9b:	89 e5                	mov    %esp,%ebp
  102a9d:	83 ec 18             	sub    $0x18,%esp
/u/s/h/shirui/private/cs537/p3a/p3/xv6-sp20/kernel/kalloc.c:58
  102aa0:	a1 9c fd 10 00       	mov    0x10fd9c,%eax
  102aa5:	89 45 f4             	mov    %eax,-0xc(%ebp)
/u/s/h/shirui/private/cs537/p3a/p3/xv6-sp20/kernel/kalloc.c:60
  102aa8:	8b 45 08             	mov    0x8(%ebp),%eax
  102aab:	25 ff 0f 00 00       	and    $0xfff,%eax
  102ab0:	85 c0                	test   %eax,%eax
  102ab2:	75 13                	jne    102ac7 <kfree+0x2d>
/u/s/h/shirui/private/cs537/p3a/p3/xv6-sp20/kernel/kalloc.c:60 (discriminator 1)
  102ab4:	81 7d 08 64 2b 11 00 	cmpl   $0x112b64,0x8(%ebp)
  102abb:	72 0a                	jb     102ac7 <kfree+0x2d>
/u/s/h/shirui/private/cs537/p3a/p3/xv6-sp20/kernel/kalloc.c:60 (discriminator 2)
  102abd:	8b 45 08             	mov    0x8(%ebp),%eax
  102ac0:	3d ff ff ff 00       	cmp    $0xffffff,%eax
  102ac5:	76 0d                	jbe    102ad4 <kfree+0x3a>
/u/s/h/shirui/private/cs537/p3a/p3/xv6-sp20/kernel/kalloc.c:61
  102ac7:	83 ec 0c             	sub    $0xc,%esp
  102aca:	68 d3 80 10 00       	push   $0x1080d3
  102acf:	e8 a4 da ff ff       	call   100578 <panic>
/u/s/h/shirui/private/cs537/p3a/p3/xv6-sp20/kernel/kalloc.c:64
  102ad4:	83 ec 04             	sub    $0x4,%esp
  102ad7:	68 00 10 00 00       	push   $0x1000
  102adc:	6a 01                	push   $0x1
  102ade:	ff 75 08             	pushl  0x8(%ebp)
  102ae1:	e8 d7 1f 00 00       	call   104abd <memset>
  102ae6:	83 c4 10             	add    $0x10,%esp
/u/s/h/shirui/private/cs537/p3a/p3/xv6-sp20/kernel/kalloc.c:66
  102ae9:	83 ec 0c             	sub    $0xc,%esp
  102aec:	68 60 fd 10 00       	push   $0x10fd60
  102af1:	e8 8a 1d 00 00       	call   104880 <acquire>
  102af6:	83 c4 10             	add    $0x10,%esp
/u/s/h/shirui/private/cs537/p3a/p3/xv6-sp20/kernel/kalloc.c:67
  102af9:	8b 45 08             	mov    0x8(%ebp),%eax
  102afc:	89 45 f0             	mov    %eax,-0x10(%ebp)
/u/s/h/shirui/private/cs537/p3a/p3/xv6-sp20/kernel/kalloc.c:68
  102aff:	8b 15 94 fd 10 00    	mov    0x10fd94,%edx
  102b05:	8b 45 f0             	mov    -0x10(%ebp),%eax
  102b08:	89 10                	mov    %edx,(%eax)
/u/s/h/shirui/private/cs537/p3a/p3/xv6-sp20/kernel/kalloc.c:69
  102b0a:	8b 45 f0             	mov    -0x10(%ebp),%eax
  102b0d:	a3 94 fd 10 00       	mov    %eax,0x10fd94
/u/s/h/shirui/private/cs537/p3a/p3/xv6-sp20/kernel/kalloc.c:71
  102b12:	a1 9c fd 10 00       	mov    0x10fd9c,%eax
  102b17:	8b 10                	mov    (%eax),%edx
  102b19:	8b 45 f0             	mov    -0x10(%ebp),%eax
  102b1c:	39 c2                	cmp    %eax,%edx
  102b1e:	75 5c                	jne    102b7c <kfree+0xe2>
/u/s/h/shirui/private/cs537/p3a/p3/xv6-sp20/kernel/kalloc.c:72
  102b20:	a1 9c fd 10 00       	mov    0x10fd9c,%eax
  102b25:	8b 40 04             	mov    0x4(%eax),%eax
  102b28:	a3 9c fd 10 00       	mov    %eax,0x10fd9c
/u/s/h/shirui/private/cs537/p3a/p3/xv6-sp20/kernel/kalloc.c:73
  102b2d:	a1 98 fd 10 00       	mov    0x10fd98,%eax
  102b32:	83 e8 01             	sub    $0x1,%eax
  102b35:	a3 98 fd 10 00       	mov    %eax,0x10fd98
/u/s/h/shirui/private/cs537/p3a/p3/xv6-sp20/kernel/kalloc.c:74
  102b3a:	eb 55                	jmp    102b91 <kfree+0xf7>
/u/s/h/shirui/private/cs537/p3a/p3/xv6-sp20/kernel/kalloc.c:78
  102b3c:	a1 9c fd 10 00       	mov    0x10fd9c,%eax
  102b41:	8b 40 04             	mov    0x4(%eax),%eax
  102b44:	8b 10                	mov    (%eax),%edx
  102b46:	8b 45 f0             	mov    -0x10(%ebp),%eax
  102b49:	39 c2                	cmp    %eax,%edx
  102b4b:	75 22                	jne    102b6f <kfree+0xd5>
/u/s/h/shirui/private/cs537/p3a/p3/xv6-sp20/kernel/kalloc.c:79
  102b4d:	a1 9c fd 10 00       	mov    0x10fd9c,%eax
  102b52:	8b 50 04             	mov    0x4(%eax),%edx
  102b55:	a1 9c fd 10 00       	mov    0x10fd9c,%eax
  102b5a:	8b 52 04             	mov    0x4(%edx),%edx
  102b5d:	89 50 04             	mov    %edx,0x4(%eax)
/u/s/h/shirui/private/cs537/p3a/p3/xv6-sp20/kernel/kalloc.c:80
  102b60:	a1 98 fd 10 00       	mov    0x10fd98,%eax
  102b65:	83 e8 01             	sub    $0x1,%eax
  102b68:	a3 98 fd 10 00       	mov    %eax,0x10fd98
/u/s/h/shirui/private/cs537/p3a/p3/xv6-sp20/kernel/kalloc.c:81
  102b6d:	eb 1a                	jmp    102b89 <kfree+0xef>
/u/s/h/shirui/private/cs537/p3a/p3/xv6-sp20/kernel/kalloc.c:83
  102b6f:	a1 9c fd 10 00       	mov    0x10fd9c,%eax
  102b74:	8b 40 04             	mov    0x4(%eax),%eax
  102b77:	a3 9c fd 10 00       	mov    %eax,0x10fd9c
/u/s/h/shirui/private/cs537/p3a/p3/xv6-sp20/kernel/kalloc.c:77
  102b7c:	a1 9c fd 10 00       	mov    0x10fd9c,%eax
  102b81:	8b 40 04             	mov    0x4(%eax),%eax
  102b84:	85 c0                	test   %eax,%eax
  102b86:	75 b4                	jne    102b3c <kfree+0xa2>
/u/s/h/shirui/private/cs537/p3a/p3/xv6-sp20/kernel/kalloc.c:86
  102b88:	90                   	nop
/u/s/h/shirui/private/cs537/p3a/p3/xv6-sp20/kernel/kalloc.c:87
  102b89:	8b 45 f4             	mov    -0xc(%ebp),%eax
  102b8c:	a3 9c fd 10 00       	mov    %eax,0x10fd9c
/u/s/h/shirui/private/cs537/p3a/p3/xv6-sp20/kernel/kalloc.c:89
  102b91:	83 ec 0c             	sub    $0xc,%esp
  102b94:	68 60 fd 10 00       	push   $0x10fd60
  102b99:	e8 49 1d 00 00       	call   1048e7 <release>
  102b9e:	83 c4 10             	add    $0x10,%esp
/u/s/h/shirui/private/cs537/p3a/p3/xv6-sp20/kernel/kalloc.c:90
  102ba1:	90                   	nop
  102ba2:	c9                   	leave  
  102ba3:	c3                   	ret    

00102ba4 <kalloc>:
kalloc():
/u/s/h/shirui/private/cs537/p3a/p3/xv6-sp20/kernel/kalloc.c:97
  102ba4:	55                   	push   %ebp
  102ba5:	89 e5                	mov    %esp,%ebp
  102ba7:	83 ec 18             	sub    $0x18,%esp
/u/s/h/shirui/private/cs537/p3a/p3/xv6-sp20/kernel/kalloc.c:101
  102baa:	83 ec 0c             	sub    $0xc,%esp
  102bad:	68 60 fd 10 00       	push   $0x10fd60
  102bb2:	e8 c9 1c 00 00       	call   104880 <acquire>
  102bb7:	83 c4 10             	add    $0x10,%esp
/u/s/h/shirui/private/cs537/p3a/p3/xv6-sp20/kernel/kalloc.c:102
  102bba:	a1 94 fd 10 00       	mov    0x10fd94,%eax
  102bbf:	89 45 f4             	mov    %eax,-0xc(%ebp)
/u/s/h/shirui/private/cs537/p3a/p3/xv6-sp20/kernel/kalloc.c:103
  102bc2:	83 7d f4 00          	cmpl   $0x0,-0xc(%ebp)
  102bc6:	74 4e                	je     102c16 <kalloc+0x72>
/u/s/h/shirui/private/cs537/p3a/p3/xv6-sp20/kernel/kalloc.c:104
  102bc8:	8b 45 f4             	mov    -0xc(%ebp),%eax
  102bcb:	8b 00                	mov    (%eax),%eax
  102bcd:	a3 94 fd 10 00       	mov    %eax,0x10fd94
/u/s/h/shirui/private/cs537/p3a/p3/xv6-sp20/kernel/kalloc.c:105
  102bd2:	a1 98 fd 10 00       	mov    0x10fd98,%eax
  102bd7:	85 c0                	test   %eax,%eax
  102bd9:	74 24                	je     102bff <kalloc+0x5b>
/u/s/h/shirui/private/cs537/p3a/p3/xv6-sp20/kernel/kalloc.c:106
  102bdb:	a1 a0 fd 10 00       	mov    0x10fda0,%eax
  102be0:	8b 55 f4             	mov    -0xc(%ebp),%edx
  102be3:	89 10                	mov    %edx,(%eax)
/u/s/h/shirui/private/cs537/p3a/p3/xv6-sp20/kernel/kalloc.c:107
  102be5:	a1 9c fd 10 00       	mov    0x10fd9c,%eax
  102bea:	8b 15 9c fd 10 00    	mov    0x10fd9c,%edx
  102bf0:	89 50 04             	mov    %edx,0x4(%eax)
/u/s/h/shirui/private/cs537/p3a/p3/xv6-sp20/kernel/kalloc.c:108
  102bf3:	a1 a0 fd 10 00       	mov    0x10fda0,%eax
  102bf8:	a3 9c fd 10 00       	mov    %eax,0x10fd9c
  102bfd:	eb 0a                	jmp    102c09 <kalloc+0x65>
/u/s/h/shirui/private/cs537/p3a/p3/xv6-sp20/kernel/kalloc.c:110
  102bff:	a1 9c fd 10 00       	mov    0x10fd9c,%eax
  102c04:	8b 55 f4             	mov    -0xc(%ebp),%edx
  102c07:	89 10                	mov    %edx,(%eax)
/u/s/h/shirui/private/cs537/p3a/p3/xv6-sp20/kernel/kalloc.c:112
  102c09:	a1 98 fd 10 00       	mov    0x10fd98,%eax
  102c0e:	83 c0 01             	add    $0x1,%eax
  102c11:	a3 98 fd 10 00       	mov    %eax,0x10fd98
/u/s/h/shirui/private/cs537/p3a/p3/xv6-sp20/kernel/kalloc.c:114
  102c16:	83 ec 0c             	sub    $0xc,%esp
  102c19:	68 60 fd 10 00       	push   $0x10fd60
  102c1e:	e8 c4 1c 00 00       	call   1048e7 <release>
  102c23:	83 c4 10             	add    $0x10,%esp
/u/s/h/shirui/private/cs537/p3a/p3/xv6-sp20/kernel/kalloc.c:116
  102c26:	8b 45 f4             	mov    -0xc(%ebp),%eax
/u/s/h/shirui/private/cs537/p3a/p3/xv6-sp20/kernel/kalloc.c:117
  102c29:	c9                   	leave  
  102c2a:	c3                   	ret    

00102c2b <dump_allocated>:
dump_allocated():
/u/s/h/shirui/private/cs537/p3a/p3/xv6-sp20/kernel/kalloc.c:122
  102c2b:	55                   	push   %ebp
  102c2c:	89 e5                	mov    %esp,%ebp
  102c2e:	83 ec 10             	sub    $0x10,%esp
/u/s/h/shirui/private/cs537/p3a/p3/xv6-sp20/kernel/kalloc.c:123
  102c31:	a1 98 fd 10 00       	mov    0x10fd98,%eax
  102c36:	39 45 0c             	cmp    %eax,0xc(%ebp)
  102c39:	7e 07                	jle    102c42 <dump_allocated+0x17>
/u/s/h/shirui/private/cs537/p3a/p3/xv6-sp20/kernel/kalloc.c:123 (discriminator 1)
  102c3b:	b8 ff ff ff ff       	mov    $0xffffffff,%eax
  102c40:	eb 41                	jmp    102c83 <dump_allocated+0x58>
/u/s/h/shirui/private/cs537/p3a/p3/xv6-sp20/kernel/kalloc.c:125
  102c42:	a1 9c fd 10 00       	mov    0x10fd9c,%eax
  102c47:	89 45 fc             	mov    %eax,-0x4(%ebp)
/u/s/h/shirui/private/cs537/p3a/p3/xv6-sp20/kernel/kalloc.c:126
  102c4a:	c7 45 f8 00 00 00 00 	movl   $0x0,-0x8(%ebp)
  102c51:	eb 23                	jmp    102c76 <dump_allocated+0x4b>
/u/s/h/shirui/private/cs537/p3a/p3/xv6-sp20/kernel/kalloc.c:127 (discriminator 3)
  102c53:	8b 45 f8             	mov    -0x8(%ebp),%eax
  102c56:	8d 14 85 00 00 00 00 	lea    0x0(,%eax,4),%edx
  102c5d:	8b 45 08             	mov    0x8(%ebp),%eax
  102c60:	01 c2                	add    %eax,%edx
  102c62:	8b 45 fc             	mov    -0x4(%ebp),%eax
  102c65:	8b 00                	mov    (%eax),%eax
  102c67:	89 02                	mov    %eax,(%edx)
/u/s/h/shirui/private/cs537/p3a/p3/xv6-sp20/kernel/kalloc.c:128 (discriminator 3)
  102c69:	8b 45 fc             	mov    -0x4(%ebp),%eax
  102c6c:	8b 40 04             	mov    0x4(%eax),%eax
  102c6f:	89 45 fc             	mov    %eax,-0x4(%ebp)
/u/s/h/shirui/private/cs537/p3a/p3/xv6-sp20/kernel/kalloc.c:126 (discriminator 3)
  102c72:	83 45 f8 01          	addl   $0x1,-0x8(%ebp)
/u/s/h/shirui/private/cs537/p3a/p3/xv6-sp20/kernel/kalloc.c:126 (discriminator 1)
  102c76:	8b 45 f8             	mov    -0x8(%ebp),%eax
  102c79:	3b 45 0c             	cmp    0xc(%ebp),%eax
  102c7c:	7c d5                	jl     102c53 <dump_allocated+0x28>
/u/s/h/shirui/private/cs537/p3a/p3/xv6-sp20/kernel/kalloc.c:132
  102c7e:	b8 00 00 00 00       	mov    $0x0,%eax
/u/s/h/shirui/private/cs537/p3a/p3/xv6-sp20/kernel/kalloc.c:133
  102c83:	c9                   	leave  
  102c84:	c3                   	ret    

00102c85 <inb>:
inb():
/u/s/h/shirui/private/cs537/p3a/p3/xv6-sp20/include/x86.h:7
  102c85:	55                   	push   %ebp
  102c86:	89 e5                	mov    %esp,%ebp
  102c88:	83 ec 14             	sub    $0x14,%esp
  102c8b:	8b 45 08             	mov    0x8(%ebp),%eax
  102c8e:	66 89 45 ec          	mov    %ax,-0x14(%ebp)
/u/s/h/shirui/private/cs537/p3a/p3/xv6-sp20/include/x86.h:10
